
Sound Localization.elf:     file format elf32-littlearm

Sections:
Idx Name          Size      VMA       LMA       File off  Algn
  0 .isr_vector   000001d8  08000000  08000000  00001000  2**0
                  CONTENTS, ALLOC, LOAD, READONLY, DATA
  1 .text         00007050  080001e0  080001e0  000011e0  2**4
                  CONTENTS, ALLOC, LOAD, READONLY, CODE
  2 .rodata       000000d0  08007230  08007230  00008230  2**2
                  CONTENTS, ALLOC, LOAD, READONLY, DATA
  3 .ARM.extab    00000000  08007300  08007300  00009074  2**0
                  CONTENTS, READONLY
  4 .ARM          00000008  08007300  08007300  00008300  2**2
                  CONTENTS, ALLOC, LOAD, READONLY, DATA
  5 .preinit_array 00000000  08007308  08007308  00009074  2**0
                  CONTENTS, ALLOC, LOAD, DATA
  6 .init_array   00000004  08007308  08007308  00008308  2**2
                  CONTENTS, ALLOC, LOAD, READONLY, DATA
  7 .fini_array   00000004  0800730c  0800730c  0000830c  2**2
                  CONTENTS, ALLOC, LOAD, READONLY, DATA
  8 .data         00000074  20000000  08007310  00009000  2**2
                  CONTENTS, ALLOC, LOAD, DATA
  9 .bss          000073c0  20000074  08007384  00009074  2**2
                  ALLOC
 10 ._user_heap_stack 00000604  20007434  08007384  00009434  2**0
                  ALLOC
 11 .ARM.attributes 00000030  00000000  00000000  00009074  2**0
                  CONTENTS, READONLY
 12 .debug_info   0001e1c1  00000000  00000000  000090a4  2**0
                  CONTENTS, READONLY, DEBUGGING, OCTETS
 13 .debug_abbrev 000042ad  00000000  00000000  00027265  2**0
                  CONTENTS, READONLY, DEBUGGING, OCTETS
 14 .debug_aranges 00001da8  00000000  00000000  0002b518  2**3
                  CONTENTS, READONLY, DEBUGGING, OCTETS
 15 .debug_rnglists 000016d4  00000000  00000000  0002d2c0  2**0
                  CONTENTS, READONLY, DEBUGGING, OCTETS
 16 .debug_macro  0002a97c  00000000  00000000  0002e994  2**0
                  CONTENTS, READONLY, DEBUGGING, OCTETS
 17 .debug_line   0001e540  00000000  00000000  00059310  2**0
                  CONTENTS, READONLY, DEBUGGING, OCTETS
 18 .debug_str    0012f1cd  00000000  00000000  00077850  2**0
                  CONTENTS, READONLY, DEBUGGING, OCTETS
 19 .comment      00000043  00000000  00000000  001a6a1d  2**0
                  CONTENTS, READONLY
 20 .debug_frame  000082c8  00000000  00000000  001a6a60  2**2
                  CONTENTS, READONLY, DEBUGGING, OCTETS
 21 .debug_line_str 00000082  00000000  00000000  001aed28  2**0
                  CONTENTS, READONLY, DEBUGGING, OCTETS

Disassembly of section .text:

080001e0 <__do_global_dtors_aux>:
 80001e0:	b510      	push	{r4, lr}
 80001e2:	4c05      	ldr	r4, [pc, #20]	@ (80001f8 <__do_global_dtors_aux+0x18>)
 80001e4:	7823      	ldrb	r3, [r4, #0]
 80001e6:	b933      	cbnz	r3, 80001f6 <__do_global_dtors_aux+0x16>
 80001e8:	4b04      	ldr	r3, [pc, #16]	@ (80001fc <__do_global_dtors_aux+0x1c>)
 80001ea:	b113      	cbz	r3, 80001f2 <__do_global_dtors_aux+0x12>
 80001ec:	4804      	ldr	r0, [pc, #16]	@ (8000200 <__do_global_dtors_aux+0x20>)
 80001ee:	f3af 8000 	nop.w
 80001f2:	2301      	movs	r3, #1
 80001f4:	7023      	strb	r3, [r4, #0]
 80001f6:	bd10      	pop	{r4, pc}
 80001f8:	20000074 	.word	0x20000074
 80001fc:	00000000 	.word	0x00000000
 8000200:	08007218 	.word	0x08007218

08000204 <frame_dummy>:
 8000204:	b508      	push	{r3, lr}
 8000206:	4b03      	ldr	r3, [pc, #12]	@ (8000214 <frame_dummy+0x10>)
 8000208:	b11b      	cbz	r3, 8000212 <frame_dummy+0xe>
 800020a:	4903      	ldr	r1, [pc, #12]	@ (8000218 <frame_dummy+0x14>)
 800020c:	4803      	ldr	r0, [pc, #12]	@ (800021c <frame_dummy+0x18>)
 800020e:	f3af 8000 	nop.w
 8000212:	bd08      	pop	{r3, pc}
 8000214:	00000000 	.word	0x00000000
 8000218:	20000078 	.word	0x20000078
 800021c:	08007218 	.word	0x08007218

08000220 <__aeabi_uldivmod>:
 8000220:	b953      	cbnz	r3, 8000238 <__aeabi_uldivmod+0x18>
 8000222:	b94a      	cbnz	r2, 8000238 <__aeabi_uldivmod+0x18>
 8000224:	2900      	cmp	r1, #0
 8000226:	bf08      	it	eq
 8000228:	2800      	cmpeq	r0, #0
 800022a:	bf1c      	itt	ne
 800022c:	f04f 31ff 	movne.w	r1, #4294967295
 8000230:	f04f 30ff 	movne.w	r0, #4294967295
 8000234:	f000 b988 	b.w	8000548 <__aeabi_idiv0>
 8000238:	f1ad 0c08 	sub.w	ip, sp, #8
 800023c:	e96d ce04 	strd	ip, lr, [sp, #-16]!
 8000240:	f000 f806 	bl	8000250 <__udivmoddi4>
 8000244:	f8dd e004 	ldr.w	lr, [sp, #4]
 8000248:	e9dd 2302 	ldrd	r2, r3, [sp, #8]
 800024c:	b004      	add	sp, #16
 800024e:	4770      	bx	lr

08000250 <__udivmoddi4>:
 8000250:	e92d 47f0 	stmdb	sp!, {r4, r5, r6, r7, r8, r9, sl, lr}
 8000254:	9d08      	ldr	r5, [sp, #32]
 8000256:	468e      	mov	lr, r1
 8000258:	4604      	mov	r4, r0
 800025a:	4688      	mov	r8, r1
 800025c:	2b00      	cmp	r3, #0
 800025e:	d14a      	bne.n	80002f6 <__udivmoddi4+0xa6>
 8000260:	428a      	cmp	r2, r1
 8000262:	4617      	mov	r7, r2
 8000264:	d962      	bls.n	800032c <__udivmoddi4+0xdc>
 8000266:	fab2 f682 	clz	r6, r2
 800026a:	b14e      	cbz	r6, 8000280 <__udivmoddi4+0x30>
 800026c:	f1c6 0320 	rsb	r3, r6, #32
 8000270:	fa01 f806 	lsl.w	r8, r1, r6
 8000274:	fa20 f303 	lsr.w	r3, r0, r3
 8000278:	40b7      	lsls	r7, r6
 800027a:	ea43 0808 	orr.w	r8, r3, r8
 800027e:	40b4      	lsls	r4, r6
 8000280:	ea4f 4e17 	mov.w	lr, r7, lsr #16
 8000284:	fa1f fc87 	uxth.w	ip, r7
 8000288:	fbb8 f1fe 	udiv	r1, r8, lr
 800028c:	0c23      	lsrs	r3, r4, #16
 800028e:	fb0e 8811 	mls	r8, lr, r1, r8
 8000292:	ea43 4308 	orr.w	r3, r3, r8, lsl #16
 8000296:	fb01 f20c 	mul.w	r2, r1, ip
 800029a:	429a      	cmp	r2, r3
 800029c:	d909      	bls.n	80002b2 <__udivmoddi4+0x62>
 800029e:	18fb      	adds	r3, r7, r3
 80002a0:	f101 30ff 	add.w	r0, r1, #4294967295
 80002a4:	f080 80ea 	bcs.w	800047c <__udivmoddi4+0x22c>
 80002a8:	429a      	cmp	r2, r3
 80002aa:	f240 80e7 	bls.w	800047c <__udivmoddi4+0x22c>
 80002ae:	3902      	subs	r1, #2
 80002b0:	443b      	add	r3, r7
 80002b2:	1a9a      	subs	r2, r3, r2
 80002b4:	b2a3      	uxth	r3, r4
 80002b6:	fbb2 f0fe 	udiv	r0, r2, lr
 80002ba:	fb0e 2210 	mls	r2, lr, r0, r2
 80002be:	ea43 4302 	orr.w	r3, r3, r2, lsl #16
 80002c2:	fb00 fc0c 	mul.w	ip, r0, ip
 80002c6:	459c      	cmp	ip, r3
 80002c8:	d909      	bls.n	80002de <__udivmoddi4+0x8e>
 80002ca:	18fb      	adds	r3, r7, r3
 80002cc:	f100 32ff 	add.w	r2, r0, #4294967295
 80002d0:	f080 80d6 	bcs.w	8000480 <__udivmoddi4+0x230>
 80002d4:	459c      	cmp	ip, r3
 80002d6:	f240 80d3 	bls.w	8000480 <__udivmoddi4+0x230>
 80002da:	443b      	add	r3, r7
 80002dc:	3802      	subs	r0, #2
 80002de:	ea40 4001 	orr.w	r0, r0, r1, lsl #16
 80002e2:	eba3 030c 	sub.w	r3, r3, ip
 80002e6:	2100      	movs	r1, #0
 80002e8:	b11d      	cbz	r5, 80002f2 <__udivmoddi4+0xa2>
 80002ea:	40f3      	lsrs	r3, r6
 80002ec:	2200      	movs	r2, #0
 80002ee:	e9c5 3200 	strd	r3, r2, [r5]
 80002f2:	e8bd 87f0 	ldmia.w	sp!, {r4, r5, r6, r7, r8, r9, sl, pc}
 80002f6:	428b      	cmp	r3, r1
 80002f8:	d905      	bls.n	8000306 <__udivmoddi4+0xb6>
 80002fa:	b10d      	cbz	r5, 8000300 <__udivmoddi4+0xb0>
 80002fc:	e9c5 0100 	strd	r0, r1, [r5]
 8000300:	2100      	movs	r1, #0
 8000302:	4608      	mov	r0, r1
 8000304:	e7f5      	b.n	80002f2 <__udivmoddi4+0xa2>
 8000306:	fab3 f183 	clz	r1, r3
 800030a:	2900      	cmp	r1, #0
 800030c:	d146      	bne.n	800039c <__udivmoddi4+0x14c>
 800030e:	4573      	cmp	r3, lr
 8000310:	d302      	bcc.n	8000318 <__udivmoddi4+0xc8>
 8000312:	4282      	cmp	r2, r0
 8000314:	f200 8105 	bhi.w	8000522 <__udivmoddi4+0x2d2>
 8000318:	1a84      	subs	r4, r0, r2
 800031a:	eb6e 0203 	sbc.w	r2, lr, r3
 800031e:	2001      	movs	r0, #1
 8000320:	4690      	mov	r8, r2
 8000322:	2d00      	cmp	r5, #0
 8000324:	d0e5      	beq.n	80002f2 <__udivmoddi4+0xa2>
 8000326:	e9c5 4800 	strd	r4, r8, [r5]
 800032a:	e7e2      	b.n	80002f2 <__udivmoddi4+0xa2>
 800032c:	2a00      	cmp	r2, #0
 800032e:	f000 8090 	beq.w	8000452 <__udivmoddi4+0x202>
 8000332:	fab2 f682 	clz	r6, r2
 8000336:	2e00      	cmp	r6, #0
 8000338:	f040 80a4 	bne.w	8000484 <__udivmoddi4+0x234>
 800033c:	1a8a      	subs	r2, r1, r2
 800033e:	0c03      	lsrs	r3, r0, #16
 8000340:	ea4f 4e17 	mov.w	lr, r7, lsr #16
 8000344:	b280      	uxth	r0, r0
 8000346:	b2bc      	uxth	r4, r7
 8000348:	2101      	movs	r1, #1
 800034a:	fbb2 fcfe 	udiv	ip, r2, lr
 800034e:	fb0e 221c 	mls	r2, lr, ip, r2
 8000352:	ea43 4302 	orr.w	r3, r3, r2, lsl #16
 8000356:	fb04 f20c 	mul.w	r2, r4, ip
 800035a:	429a      	cmp	r2, r3
 800035c:	d907      	bls.n	800036e <__udivmoddi4+0x11e>
 800035e:	18fb      	adds	r3, r7, r3
 8000360:	f10c 38ff 	add.w	r8, ip, #4294967295
 8000364:	d202      	bcs.n	800036c <__udivmoddi4+0x11c>
 8000366:	429a      	cmp	r2, r3
 8000368:	f200 80e0 	bhi.w	800052c <__udivmoddi4+0x2dc>
 800036c:	46c4      	mov	ip, r8
 800036e:	1a9b      	subs	r3, r3, r2
 8000370:	fbb3 f2fe 	udiv	r2, r3, lr
 8000374:	fb0e 3312 	mls	r3, lr, r2, r3
 8000378:	ea40 4303 	orr.w	r3, r0, r3, lsl #16
 800037c:	fb02 f404 	mul.w	r4, r2, r4
 8000380:	429c      	cmp	r4, r3
 8000382:	d907      	bls.n	8000394 <__udivmoddi4+0x144>
 8000384:	18fb      	adds	r3, r7, r3
 8000386:	f102 30ff 	add.w	r0, r2, #4294967295
 800038a:	d202      	bcs.n	8000392 <__udivmoddi4+0x142>
 800038c:	429c      	cmp	r4, r3
 800038e:	f200 80ca 	bhi.w	8000526 <__udivmoddi4+0x2d6>
 8000392:	4602      	mov	r2, r0
 8000394:	1b1b      	subs	r3, r3, r4
 8000396:	ea42 400c 	orr.w	r0, r2, ip, lsl #16
 800039a:	e7a5      	b.n	80002e8 <__udivmoddi4+0x98>
 800039c:	f1c1 0620 	rsb	r6, r1, #32
 80003a0:	408b      	lsls	r3, r1
 80003a2:	fa22 f706 	lsr.w	r7, r2, r6
 80003a6:	431f      	orrs	r7, r3
 80003a8:	fa0e f401 	lsl.w	r4, lr, r1
 80003ac:	fa20 f306 	lsr.w	r3, r0, r6
 80003b0:	fa2e fe06 	lsr.w	lr, lr, r6
 80003b4:	ea4f 4917 	mov.w	r9, r7, lsr #16
 80003b8:	4323      	orrs	r3, r4
 80003ba:	fa00 f801 	lsl.w	r8, r0, r1
 80003be:	fa1f fc87 	uxth.w	ip, r7
 80003c2:	fbbe f0f9 	udiv	r0, lr, r9
 80003c6:	0c1c      	lsrs	r4, r3, #16
 80003c8:	fb09 ee10 	mls	lr, r9, r0, lr
 80003cc:	ea44 440e 	orr.w	r4, r4, lr, lsl #16
 80003d0:	fb00 fe0c 	mul.w	lr, r0, ip
 80003d4:	45a6      	cmp	lr, r4
 80003d6:	fa02 f201 	lsl.w	r2, r2, r1
 80003da:	d909      	bls.n	80003f0 <__udivmoddi4+0x1a0>
 80003dc:	193c      	adds	r4, r7, r4
 80003de:	f100 3aff 	add.w	sl, r0, #4294967295
 80003e2:	f080 809c 	bcs.w	800051e <__udivmoddi4+0x2ce>
 80003e6:	45a6      	cmp	lr, r4
 80003e8:	f240 8099 	bls.w	800051e <__udivmoddi4+0x2ce>
 80003ec:	3802      	subs	r0, #2
 80003ee:	443c      	add	r4, r7
 80003f0:	eba4 040e 	sub.w	r4, r4, lr
 80003f4:	fa1f fe83 	uxth.w	lr, r3
 80003f8:	fbb4 f3f9 	udiv	r3, r4, r9
 80003fc:	fb09 4413 	mls	r4, r9, r3, r4
 8000400:	ea4e 4404 	orr.w	r4, lr, r4, lsl #16
 8000404:	fb03 fc0c 	mul.w	ip, r3, ip
 8000408:	45a4      	cmp	ip, r4
 800040a:	d908      	bls.n	800041e <__udivmoddi4+0x1ce>
 800040c:	193c      	adds	r4, r7, r4
 800040e:	f103 3eff 	add.w	lr, r3, #4294967295
 8000412:	f080 8082 	bcs.w	800051a <__udivmoddi4+0x2ca>
 8000416:	45a4      	cmp	ip, r4
 8000418:	d97f      	bls.n	800051a <__udivmoddi4+0x2ca>
 800041a:	3b02      	subs	r3, #2
 800041c:	443c      	add	r4, r7
 800041e:	ea43 4000 	orr.w	r0, r3, r0, lsl #16
 8000422:	eba4 040c 	sub.w	r4, r4, ip
 8000426:	fba0 ec02 	umull	lr, ip, r0, r2
 800042a:	4564      	cmp	r4, ip
 800042c:	4673      	mov	r3, lr
 800042e:	46e1      	mov	r9, ip
 8000430:	d362      	bcc.n	80004f8 <__udivmoddi4+0x2a8>
 8000432:	d05f      	beq.n	80004f4 <__udivmoddi4+0x2a4>
 8000434:	b15d      	cbz	r5, 800044e <__udivmoddi4+0x1fe>
 8000436:	ebb8 0203 	subs.w	r2, r8, r3
 800043a:	eb64 0409 	sbc.w	r4, r4, r9
 800043e:	fa04 f606 	lsl.w	r6, r4, r6
 8000442:	fa22 f301 	lsr.w	r3, r2, r1
 8000446:	431e      	orrs	r6, r3
 8000448:	40cc      	lsrs	r4, r1
 800044a:	e9c5 6400 	strd	r6, r4, [r5]
 800044e:	2100      	movs	r1, #0
 8000450:	e74f      	b.n	80002f2 <__udivmoddi4+0xa2>
 8000452:	fbb1 fcf2 	udiv	ip, r1, r2
 8000456:	0c01      	lsrs	r1, r0, #16
 8000458:	ea41 410e 	orr.w	r1, r1, lr, lsl #16
 800045c:	b280      	uxth	r0, r0
 800045e:	ea40 4201 	orr.w	r2, r0, r1, lsl #16
 8000462:	463b      	mov	r3, r7
 8000464:	4638      	mov	r0, r7
 8000466:	463c      	mov	r4, r7
 8000468:	46b8      	mov	r8, r7
 800046a:	46be      	mov	lr, r7
 800046c:	2620      	movs	r6, #32
 800046e:	fbb1 f1f7 	udiv	r1, r1, r7
 8000472:	eba2 0208 	sub.w	r2, r2, r8
 8000476:	ea41 410c 	orr.w	r1, r1, ip, lsl #16
 800047a:	e766      	b.n	800034a <__udivmoddi4+0xfa>
 800047c:	4601      	mov	r1, r0
 800047e:	e718      	b.n	80002b2 <__udivmoddi4+0x62>
 8000480:	4610      	mov	r0, r2
 8000482:	e72c      	b.n	80002de <__udivmoddi4+0x8e>
 8000484:	f1c6 0220 	rsb	r2, r6, #32
 8000488:	fa2e f302 	lsr.w	r3, lr, r2
 800048c:	40b7      	lsls	r7, r6
 800048e:	40b1      	lsls	r1, r6
 8000490:	fa20 f202 	lsr.w	r2, r0, r2
 8000494:	ea4f 4e17 	mov.w	lr, r7, lsr #16
 8000498:	430a      	orrs	r2, r1
 800049a:	fbb3 f8fe 	udiv	r8, r3, lr
 800049e:	b2bc      	uxth	r4, r7
 80004a0:	fb0e 3318 	mls	r3, lr, r8, r3
 80004a4:	0c11      	lsrs	r1, r2, #16
 80004a6:	ea41 4103 	orr.w	r1, r1, r3, lsl #16
 80004aa:	fb08 f904 	mul.w	r9, r8, r4
 80004ae:	40b0      	lsls	r0, r6
 80004b0:	4589      	cmp	r9, r1
 80004b2:	ea4f 4310 	mov.w	r3, r0, lsr #16
 80004b6:	b280      	uxth	r0, r0
 80004b8:	d93e      	bls.n	8000538 <__udivmoddi4+0x2e8>
 80004ba:	1879      	adds	r1, r7, r1
 80004bc:	f108 3cff 	add.w	ip, r8, #4294967295
 80004c0:	d201      	bcs.n	80004c6 <__udivmoddi4+0x276>
 80004c2:	4589      	cmp	r9, r1
 80004c4:	d81f      	bhi.n	8000506 <__udivmoddi4+0x2b6>
 80004c6:	eba1 0109 	sub.w	r1, r1, r9
 80004ca:	fbb1 f9fe 	udiv	r9, r1, lr
 80004ce:	fb09 f804 	mul.w	r8, r9, r4
 80004d2:	fb0e 1119 	mls	r1, lr, r9, r1
 80004d6:	b292      	uxth	r2, r2
 80004d8:	ea42 4201 	orr.w	r2, r2, r1, lsl #16
 80004dc:	4542      	cmp	r2, r8
 80004de:	d229      	bcs.n	8000534 <__udivmoddi4+0x2e4>
 80004e0:	18ba      	adds	r2, r7, r2
 80004e2:	f109 31ff 	add.w	r1, r9, #4294967295
 80004e6:	d2c4      	bcs.n	8000472 <__udivmoddi4+0x222>
 80004e8:	4542      	cmp	r2, r8
 80004ea:	d2c2      	bcs.n	8000472 <__udivmoddi4+0x222>
 80004ec:	f1a9 0102 	sub.w	r1, r9, #2
 80004f0:	443a      	add	r2, r7
 80004f2:	e7be      	b.n	8000472 <__udivmoddi4+0x222>
 80004f4:	45f0      	cmp	r8, lr
 80004f6:	d29d      	bcs.n	8000434 <__udivmoddi4+0x1e4>
 80004f8:	ebbe 0302 	subs.w	r3, lr, r2
 80004fc:	eb6c 0c07 	sbc.w	ip, ip, r7
 8000500:	3801      	subs	r0, #1
 8000502:	46e1      	mov	r9, ip
 8000504:	e796      	b.n	8000434 <__udivmoddi4+0x1e4>
 8000506:	eba7 0909 	sub.w	r9, r7, r9
 800050a:	4449      	add	r1, r9
 800050c:	f1a8 0c02 	sub.w	ip, r8, #2
 8000510:	fbb1 f9fe 	udiv	r9, r1, lr
 8000514:	fb09 f804 	mul.w	r8, r9, r4
 8000518:	e7db      	b.n	80004d2 <__udivmoddi4+0x282>
 800051a:	4673      	mov	r3, lr
 800051c:	e77f      	b.n	800041e <__udivmoddi4+0x1ce>
 800051e:	4650      	mov	r0, sl
 8000520:	e766      	b.n	80003f0 <__udivmoddi4+0x1a0>
 8000522:	4608      	mov	r0, r1
 8000524:	e6fd      	b.n	8000322 <__udivmoddi4+0xd2>
 8000526:	443b      	add	r3, r7
 8000528:	3a02      	subs	r2, #2
 800052a:	e733      	b.n	8000394 <__udivmoddi4+0x144>
 800052c:	f1ac 0c02 	sub.w	ip, ip, #2
 8000530:	443b      	add	r3, r7
 8000532:	e71c      	b.n	800036e <__udivmoddi4+0x11e>
 8000534:	4649      	mov	r1, r9
 8000536:	e79c      	b.n	8000472 <__udivmoddi4+0x222>
 8000538:	eba1 0109 	sub.w	r1, r1, r9
 800053c:	46c4      	mov	ip, r8
 800053e:	fbb1 f9fe 	udiv	r9, r1, lr
 8000542:	fb09 f804 	mul.w	r8, r9, r4
 8000546:	e7c4      	b.n	80004d2 <__udivmoddi4+0x282>

08000548 <__aeabi_idiv0>:
 8000548:	4770      	bx	lr
 800054a:	bf00      	nop

0800054c <LOC_Process>:
 */

#include "TwoDimSoundLoc.h"

uint8_t LOC_Process(const uint16_t *buf, int16_t *phi_tenth_deg, uint8_t *strength)
{
 800054c:	b580      	push	{r7, lr}
 800054e:	b08e      	sub	sp, #56	@ 0x38
 8000550:	af00      	add	r7, sp, #0
 8000552:	60f8      	str	r0, [r7, #12]
 8000554:	60b9      	str	r1, [r7, #8]
 8000556:	607a      	str	r2, [r7, #4]
    static uint8_t  state          = 0;  /* 0 = IDLE, 1 = ACTIVE (cooldown) */
    static uint8_t  silence_frames = 0;

    int32_t  n1 = -1, n2 = -1;
 8000558:	f04f 33ff 	mov.w	r3, #4294967295
 800055c:	637b      	str	r3, [r7, #52]	@ 0x34
 800055e:	f04f 33ff 	mov.w	r3, #4294967295
 8000562:	633b      	str	r3, [r7, #48]	@ 0x30
    uint16_t ch0, ch1;
    uint16_t amplitude = 0;
 8000564:	2300      	movs	r3, #0
 8000566:	85fb      	strh	r3, [r7, #46]	@ 0x2e

    /* ── Korak 1: threshold scan po cijelom half-bufferu ─────────────────── */
    for (int s = 0; s < HALF_SIZE; s++)
 8000568:	2300      	movs	r3, #0
 800056a:	62bb      	str	r3, [r7, #40]	@ 0x28
 800056c:	e037      	b.n	80005de <LOC_Process+0x92>
    {
        ch0 = buf[s * NUM_CH + 0];   /* mic1 — PA0  */
 800056e:	6abb      	ldr	r3, [r7, #40]	@ 0x28
 8000570:	00db      	lsls	r3, r3, #3
 8000572:	68fa      	ldr	r2, [r7, #12]
 8000574:	4413      	add	r3, r2
 8000576:	881b      	ldrh	r3, [r3, #0]
 8000578:	83fb      	strh	r3, [r7, #30]
        ch1 = buf[s * NUM_CH + 1];   /* mic2 — PB14 */
 800057a:	6abb      	ldr	r3, [r7, #40]	@ 0x28
 800057c:	00db      	lsls	r3, r3, #3
 800057e:	3302      	adds	r3, #2
 8000580:	68fa      	ldr	r2, [r7, #12]
 8000582:	4413      	add	r3, r2
 8000584:	881b      	ldrh	r3, [r3, #0]
 8000586:	83bb      	strh	r3, [r7, #28]

        if (n1 < 0 && (ch0 > THRESHOLD_HIGH || ch0 < THRESHOLD_LOW)) n1 = s;
 8000588:	6b7b      	ldr	r3, [r7, #52]	@ 0x34
 800058a:	2b00      	cmp	r3, #0
 800058c:	da0a      	bge.n	80005a4 <LOC_Process+0x58>
 800058e:	8bfb      	ldrh	r3, [r7, #30]
 8000590:	f5b3 6f61 	cmp.w	r3, #3600	@ 0xe10
 8000594:	d804      	bhi.n	80005a0 <LOC_Process+0x54>
 8000596:	8bfb      	ldrh	r3, [r7, #30]
 8000598:	f640 12c3 	movw	r2, #2499	@ 0x9c3
 800059c:	4293      	cmp	r3, r2
 800059e:	d801      	bhi.n	80005a4 <LOC_Process+0x58>
 80005a0:	6abb      	ldr	r3, [r7, #40]	@ 0x28
 80005a2:	637b      	str	r3, [r7, #52]	@ 0x34
        if (n2 < 0 && (ch1 > THRESHOLD_HIGH || ch1 < THRESHOLD_LOW)) n2 = s;
 80005a4:	6b3b      	ldr	r3, [r7, #48]	@ 0x30
 80005a6:	2b00      	cmp	r3, #0
 80005a8:	da0a      	bge.n	80005c0 <LOC_Process+0x74>
 80005aa:	8bbb      	ldrh	r3, [r7, #28]
 80005ac:	f5b3 6f61 	cmp.w	r3, #3600	@ 0xe10
 80005b0:	d804      	bhi.n	80005bc <LOC_Process+0x70>
 80005b2:	8bbb      	ldrh	r3, [r7, #28]
 80005b4:	f640 12c3 	movw	r2, #2499	@ 0x9c3
 80005b8:	4293      	cmp	r3, r2
 80005ba:	d801      	bhi.n	80005c0 <LOC_Process+0x74>
 80005bc:	6abb      	ldr	r3, [r7, #40]	@ 0x28
 80005be:	633b      	str	r3, [r7, #48]	@ 0x30
        if (ch0 > amplitude) amplitude = ch0;
 80005c0:	8bfa      	ldrh	r2, [r7, #30]
 80005c2:	8dfb      	ldrh	r3, [r7, #46]	@ 0x2e
 80005c4:	429a      	cmp	r2, r3
 80005c6:	d901      	bls.n	80005cc <LOC_Process+0x80>
 80005c8:	8bfb      	ldrh	r3, [r7, #30]
 80005ca:	85fb      	strh	r3, [r7, #46]	@ 0x2e
        if (n1 >= 0 && n2 >= 0) break;
 80005cc:	6b7b      	ldr	r3, [r7, #52]	@ 0x34
 80005ce:	2b00      	cmp	r3, #0
 80005d0:	db02      	blt.n	80005d8 <LOC_Process+0x8c>
 80005d2:	6b3b      	ldr	r3, [r7, #48]	@ 0x30
 80005d4:	2b00      	cmp	r3, #0
 80005d6:	da07      	bge.n	80005e8 <LOC_Process+0x9c>
    for (int s = 0; s < HALF_SIZE; s++)
 80005d8:	6abb      	ldr	r3, [r7, #40]	@ 0x28
 80005da:	3301      	adds	r3, #1
 80005dc:	62bb      	str	r3, [r7, #40]	@ 0x28
 80005de:	6abb      	ldr	r3, [r7, #40]	@ 0x28
 80005e0:	f5b3 7f00 	cmp.w	r3, #512	@ 0x200
 80005e4:	dbc3      	blt.n	800056e <LOC_Process+0x22>
 80005e6:	e000      	b.n	80005ea <LOC_Process+0x9e>
        if (n1 >= 0 && n2 >= 0) break;
 80005e8:	bf00      	nop
    }

    /* ── State machine — fiksni cooldown ────────────────────────────────── */
    if (state == 1)
 80005ea:	4b4e      	ldr	r3, [pc, #312]	@ (8000724 <LOC_Process+0x1d8>)
 80005ec:	781b      	ldrb	r3, [r3, #0]
 80005ee:	2b01      	cmp	r3, #1
 80005f0:	d111      	bne.n	8000616 <LOC_Process+0xca>
    {
        if (++silence_frames >= SILENCE_FRAMES)
 80005f2:	4b4d      	ldr	r3, [pc, #308]	@ (8000728 <LOC_Process+0x1dc>)
 80005f4:	781b      	ldrb	r3, [r3, #0]
 80005f6:	3301      	adds	r3, #1
 80005f8:	b2da      	uxtb	r2, r3
 80005fa:	4b4b      	ldr	r3, [pc, #300]	@ (8000728 <LOC_Process+0x1dc>)
 80005fc:	701a      	strb	r2, [r3, #0]
 80005fe:	4b4a      	ldr	r3, [pc, #296]	@ (8000728 <LOC_Process+0x1dc>)
 8000600:	781b      	ldrb	r3, [r3, #0]
 8000602:	2b07      	cmp	r3, #7
 8000604:	d905      	bls.n	8000612 <LOC_Process+0xc6>
        {
            state          = 0;
 8000606:	4b47      	ldr	r3, [pc, #284]	@ (8000724 <LOC_Process+0x1d8>)
 8000608:	2200      	movs	r2, #0
 800060a:	701a      	strb	r2, [r3, #0]
            silence_frames = 0;
 800060c:	4b46      	ldr	r3, [pc, #280]	@ (8000728 <LOC_Process+0x1dc>)
 800060e:	2200      	movs	r2, #0
 8000610:	701a      	strb	r2, [r3, #0]
        }
        return 0;
 8000612:	2300      	movs	r3, #0
 8000614:	e081      	b.n	800071a <LOC_Process+0x1ce>
    }

    /* ── IDLE — traži novi zvučni događaj ───────────────────────────────── */
    if (n1 < 0 || n2 < 0) return 0;
 8000616:	6b7b      	ldr	r3, [r7, #52]	@ 0x34
 8000618:	2b00      	cmp	r3, #0
 800061a:	db02      	blt.n	8000622 <LOC_Process+0xd6>
 800061c:	6b3b      	ldr	r3, [r7, #48]	@ 0x30
 800061e:	2b00      	cmp	r3, #0
 8000620:	da01      	bge.n	8000626 <LOC_Process+0xda>
 8000622:	2300      	movs	r3, #0
 8000624:	e079      	b.n	800071a <LOC_Process+0x1ce>

    /* ── Sanity check — fizikalni maksimum ──────────────────────────────── */
    int32_t delta_n = n1 - n2;
 8000626:	6b7a      	ldr	r2, [r7, #52]	@ 0x34
 8000628:	6b3b      	ldr	r3, [r7, #48]	@ 0x30
 800062a:	1ad3      	subs	r3, r2, r3
 800062c:	61bb      	str	r3, [r7, #24]
    if (delta_n > TDOA_MAX_SAMPLES || delta_n < -TDOA_MAX_SAMPLES) return 0;
 800062e:	69bb      	ldr	r3, [r7, #24]
 8000630:	2b26      	cmp	r3, #38	@ 0x26
 8000632:	dc03      	bgt.n	800063c <LOC_Process+0xf0>
 8000634:	69bb      	ldr	r3, [r7, #24]
 8000636:	f113 0f26 	cmn.w	r3, #38	@ 0x26
 800063a:	da01      	bge.n	8000640 <LOC_Process+0xf4>
 800063c:	2300      	movs	r3, #0
 800063e:	e06c      	b.n	800071a <LOC_Process+0x1ce>

    /* Prešli smo u ACTIVE */
    state          = 1;
 8000640:	4b38      	ldr	r3, [pc, #224]	@ (8000724 <LOC_Process+0x1d8>)
 8000642:	2201      	movs	r2, #1
 8000644:	701a      	strb	r2, [r3, #0]
    silence_frames = 0;
 8000646:	4b38      	ldr	r3, [pc, #224]	@ (8000728 <LOC_Process+0x1dc>)
 8000648:	2200      	movs	r2, #0
 800064a:	701a      	strb	r2, [r3, #0]

    /* ── TDOA u sekundama (s korekcijom ADC channel offseta) ────────────── */
    float tdoa = (float)delta_n * SAMPLE_PERIOD_S - CH_DELAY_S;
 800064c:	69bb      	ldr	r3, [r7, #24]
 800064e:	ee07 3a90 	vmov	s15, r3
 8000652:	eef8 7ae7 	vcvt.f32.s32	s15, s15
 8000656:	ed9f 7a35 	vldr	s14, [pc, #212]	@ 800072c <LOC_Process+0x1e0>
 800065a:	ee67 7a87 	vmul.f32	s15, s15, s14
 800065e:	ed9f 7a34 	vldr	s14, [pc, #208]	@ 8000730 <LOC_Process+0x1e4>
 8000662:	ee77 7ac7 	vsub.f32	s15, s15, s14
 8000666:	edc7 7a05 	vstr	s15, [r7, #20]

    /* ── Normalizirani omjer za arcsin, stegnut na [-1.0, 1.0] ──────────── */
    float ratio = tdoa * SPEED_OF_SOUND / MIC_DIST_M;
 800066a:	edd7 7a05 	vldr	s15, [r7, #20]
 800066e:	ed9f 7a31 	vldr	s14, [pc, #196]	@ 8000734 <LOC_Process+0x1e8>
 8000672:	ee27 7a87 	vmul.f32	s14, s15, s14
 8000676:	eddf 6a30 	vldr	s13, [pc, #192]	@ 8000738 <LOC_Process+0x1ec>
 800067a:	eec7 7a26 	vdiv.f32	s15, s14, s13
 800067e:	edc7 7a09 	vstr	s15, [r7, #36]	@ 0x24
    if (ratio >  1.0f) ratio =  1.0f;
 8000682:	edd7 7a09 	vldr	s15, [r7, #36]	@ 0x24
 8000686:	eeb7 7a00 	vmov.f32	s14, #112	@ 0x3f800000  1.0
 800068a:	eef4 7ac7 	vcmpe.f32	s15, s14
 800068e:	eef1 fa10 	vmrs	APSR_nzcv, fpscr
 8000692:	dd02      	ble.n	800069a <LOC_Process+0x14e>
 8000694:	f04f 537e 	mov.w	r3, #1065353216	@ 0x3f800000
 8000698:	627b      	str	r3, [r7, #36]	@ 0x24
    if (ratio < -1.0f) ratio = -1.0f;
 800069a:	edd7 7a09 	vldr	s15, [r7, #36]	@ 0x24
 800069e:	eebf 7a00 	vmov.f32	s14, #240	@ 0xbf800000 -1.0
 80006a2:	eef4 7ac7 	vcmpe.f32	s15, s14
 80006a6:	eef1 fa10 	vmrs	APSR_nzcv, fpscr
 80006aa:	d501      	bpl.n	80006b0 <LOC_Process+0x164>
 80006ac:	4b23      	ldr	r3, [pc, #140]	@ (800073c <LOC_Process+0x1f0>)
 80006ae:	627b      	str	r3, [r7, #36]	@ 0x24

    /* ── Kut u stupnjevima ───────────────────────────────────────────────── */
    float phi_deg = asinf(ratio) * (180.0f / 3.14159265f);
 80006b0:	ed97 0a09 	vldr	s0, [r7, #36]	@ 0x24
 80006b4:	f006 fc8e 	bl	8006fd4 <asinf>
 80006b8:	eef0 7a40 	vmov.f32	s15, s0
 80006bc:	ed9f 7a20 	vldr	s14, [pc, #128]	@ 8000740 <LOC_Process+0x1f4>
 80006c0:	ee67 7a87 	vmul.f32	s15, s15, s14
 80006c4:	edc7 7a04 	vstr	s15, [r7, #16]
    *phi_tenth_deg = (int16_t)(phi_deg * 10.0f);
 80006c8:	edd7 7a04 	vldr	s15, [r7, #16]
 80006cc:	eeb2 7a04 	vmov.f32	s14, #36	@ 0x41200000  10.0
 80006d0:	ee67 7a87 	vmul.f32	s15, s15, s14
 80006d4:	eefd 7ae7 	vcvt.s32.f32	s15, s15
 80006d8:	ee17 3a90 	vmov	r3, s15
 80006dc:	b21a      	sxth	r2, r3
 80006de:	68bb      	ldr	r3, [r7, #8]
 80006e0:	801a      	strh	r2, [r3, #0]

    /* ── Signal strength 0-100 ───────────────────────────────────────────── */
    int32_t str = ((int32_t)amplitude - THRESHOLD_HIGH) * 100 / (4095 - THRESHOLD_HIGH);
 80006e2:	8dfb      	ldrh	r3, [r7, #46]	@ 0x2e
 80006e4:	f5a3 6361 	sub.w	r3, r3, #3600	@ 0xe10
 80006e8:	2264      	movs	r2, #100	@ 0x64
 80006ea:	fb02 f303 	mul.w	r3, r2, r3
 80006ee:	4a15      	ldr	r2, [pc, #84]	@ (8000744 <LOC_Process+0x1f8>)
 80006f0:	fb82 1203 	smull	r1, r2, r2, r3
 80006f4:	1192      	asrs	r2, r2, #6
 80006f6:	17db      	asrs	r3, r3, #31
 80006f8:	1ad3      	subs	r3, r2, r3
 80006fa:	623b      	str	r3, [r7, #32]
    if (str < 0)   str = 0;
 80006fc:	6a3b      	ldr	r3, [r7, #32]
 80006fe:	2b00      	cmp	r3, #0
 8000700:	da01      	bge.n	8000706 <LOC_Process+0x1ba>
 8000702:	2300      	movs	r3, #0
 8000704:	623b      	str	r3, [r7, #32]
    if (str > 100) str = 100;
 8000706:	6a3b      	ldr	r3, [r7, #32]
 8000708:	2b64      	cmp	r3, #100	@ 0x64
 800070a:	dd01      	ble.n	8000710 <LOC_Process+0x1c4>
 800070c:	2364      	movs	r3, #100	@ 0x64
 800070e:	623b      	str	r3, [r7, #32]
    *strength = (uint8_t)str;
 8000710:	6a3b      	ldr	r3, [r7, #32]
 8000712:	b2da      	uxtb	r2, r3
 8000714:	687b      	ldr	r3, [r7, #4]
 8000716:	701a      	strb	r2, [r3, #0]

    return 1;
 8000718:	2301      	movs	r3, #1
 800071a:	4618      	mov	r0, r3
 800071c:	3738      	adds	r7, #56	@ 0x38
 800071e:	46bd      	mov	sp, r7
 8000720:	bd80      	pop	{r7, pc}
 8000722:	bf00      	nop
 8000724:	20000090 	.word	0x20000090
 8000728:	20000091 	.word	0x20000091
 800072c:	3783126f 	.word	0x3783126f
 8000730:	35719787 	.word	0x35719787
 8000734:	43ab8000 	.word	0x43ab8000
 8000738:	3e4ccccd 	.word	0x3e4ccccd
 800073c:	bf800000 	.word	0xbf800000
 8000740:	42652ee0 	.word	0x42652ee0
 8000744:	21195767 	.word	0x21195767

08000748 <__NVIC_GetPriorityGrouping>:
  \brief   Get Priority Grouping
  \details Reads the priority grouping field from the NVIC Interrupt Controller.
  \return                Priority grouping field (SCB->AIRCR [10:8] PRIGROUP field).
 */
__STATIC_INLINE uint32_t __NVIC_GetPriorityGrouping(void)
{
 8000748:	b480      	push	{r7}
 800074a:	af00      	add	r7, sp, #0
  return ((uint32_t)((SCB->AIRCR & SCB_AIRCR_PRIGROUP_Msk) >> SCB_AIRCR_PRIGROUP_Pos));
 800074c:	4b04      	ldr	r3, [pc, #16]	@ (8000760 <__NVIC_GetPriorityGrouping+0x18>)
 800074e:	68db      	ldr	r3, [r3, #12]
 8000750:	0a1b      	lsrs	r3, r3, #8
 8000752:	f003 0307 	and.w	r3, r3, #7
}
 8000756:	4618      	mov	r0, r3
 8000758:	46bd      	mov	sp, r7
 800075a:	f85d 7b04 	ldr.w	r7, [sp], #4
 800075e:	4770      	bx	lr
 8000760:	e000ed00 	.word	0xe000ed00

08000764 <__NVIC_EnableIRQ>:
  \details Enables a device specific interrupt in the NVIC interrupt controller.
  \param [in]      IRQn  Device specific interrupt number.
  \note    IRQn must not be negative.
 */
__STATIC_INLINE void __NVIC_EnableIRQ(IRQn_Type IRQn)
{
 8000764:	b480      	push	{r7}
 8000766:	b083      	sub	sp, #12
 8000768:	af00      	add	r7, sp, #0
 800076a:	4603      	mov	r3, r0
 800076c:	71fb      	strb	r3, [r7, #7]
  if ((int32_t)(IRQn) >= 0)
 800076e:	f997 3007 	ldrsb.w	r3, [r7, #7]
 8000772:	2b00      	cmp	r3, #0
 8000774:	db0b      	blt.n	800078e <__NVIC_EnableIRQ+0x2a>
  {
    __COMPILER_BARRIER();
    NVIC->ISER[(((uint32_t)IRQn) >> 5UL)] = (uint32_t)(1UL << (((uint32_t)IRQn) & 0x1FUL));
 8000776:	79fb      	ldrb	r3, [r7, #7]
 8000778:	f003 021f 	and.w	r2, r3, #31
 800077c:	4907      	ldr	r1, [pc, #28]	@ (800079c <__NVIC_EnableIRQ+0x38>)
 800077e:	f997 3007 	ldrsb.w	r3, [r7, #7]
 8000782:	095b      	lsrs	r3, r3, #5
 8000784:	2001      	movs	r0, #1
 8000786:	fa00 f202 	lsl.w	r2, r0, r2
 800078a:	f841 2023 	str.w	r2, [r1, r3, lsl #2]
    __COMPILER_BARRIER();
  }
}
 800078e:	bf00      	nop
 8000790:	370c      	adds	r7, #12
 8000792:	46bd      	mov	sp, r7
 8000794:	f85d 7b04 	ldr.w	r7, [sp], #4
 8000798:	4770      	bx	lr
 800079a:	bf00      	nop
 800079c:	e000e100 	.word	0xe000e100

080007a0 <__NVIC_SetPriority>:
  \param [in]      IRQn  Interrupt number.
  \param [in]  priority  Priority to set.
  \note    The priority cannot be set for every processor exception.
 */
__STATIC_INLINE void __NVIC_SetPriority(IRQn_Type IRQn, uint32_t priority)
{
 80007a0:	b480      	push	{r7}
 80007a2:	b083      	sub	sp, #12
 80007a4:	af00      	add	r7, sp, #0
 80007a6:	4603      	mov	r3, r0
 80007a8:	6039      	str	r1, [r7, #0]
 80007aa:	71fb      	strb	r3, [r7, #7]
  if ((int32_t)(IRQn) >= 0)
 80007ac:	f997 3007 	ldrsb.w	r3, [r7, #7]
 80007b0:	2b00      	cmp	r3, #0
 80007b2:	db0a      	blt.n	80007ca <__NVIC_SetPriority+0x2a>
  {
    NVIC->IP[((uint32_t)IRQn)]               = (uint8_t)((priority << (8U - __NVIC_PRIO_BITS)) & (uint32_t)0xFFUL);
 80007b4:	683b      	ldr	r3, [r7, #0]
 80007b6:	b2da      	uxtb	r2, r3
 80007b8:	490c      	ldr	r1, [pc, #48]	@ (80007ec <__NVIC_SetPriority+0x4c>)
 80007ba:	f997 3007 	ldrsb.w	r3, [r7, #7]
 80007be:	0112      	lsls	r2, r2, #4
 80007c0:	b2d2      	uxtb	r2, r2
 80007c2:	440b      	add	r3, r1
 80007c4:	f883 2300 	strb.w	r2, [r3, #768]	@ 0x300
  }
  else
  {
    SCB->SHP[(((uint32_t)IRQn) & 0xFUL)-4UL] = (uint8_t)((priority << (8U - __NVIC_PRIO_BITS)) & (uint32_t)0xFFUL);
  }
}
 80007c8:	e00a      	b.n	80007e0 <__NVIC_SetPriority+0x40>
    SCB->SHP[(((uint32_t)IRQn) & 0xFUL)-4UL] = (uint8_t)((priority << (8U - __NVIC_PRIO_BITS)) & (uint32_t)0xFFUL);
 80007ca:	683b      	ldr	r3, [r7, #0]
 80007cc:	b2da      	uxtb	r2, r3
 80007ce:	4908      	ldr	r1, [pc, #32]	@ (80007f0 <__NVIC_SetPriority+0x50>)
 80007d0:	79fb      	ldrb	r3, [r7, #7]
 80007d2:	f003 030f 	and.w	r3, r3, #15
 80007d6:	3b04      	subs	r3, #4
 80007d8:	0112      	lsls	r2, r2, #4
 80007da:	b2d2      	uxtb	r2, r2
 80007dc:	440b      	add	r3, r1
 80007de:	761a      	strb	r2, [r3, #24]
}
 80007e0:	bf00      	nop
 80007e2:	370c      	adds	r7, #12
 80007e4:	46bd      	mov	sp, r7
 80007e6:	f85d 7b04 	ldr.w	r7, [sp], #4
 80007ea:	4770      	bx	lr
 80007ec:	e000e100 	.word	0xe000e100
 80007f0:	e000ed00 	.word	0xe000ed00

080007f4 <NVIC_EncodePriority>:
  \param [in]   PreemptPriority  Preemptive priority value (starting from 0).
  \param [in]       SubPriority  Subpriority value (starting from 0).
  \return                        Encoded priority. Value can be used in the function \ref NVIC_SetPriority().
 */
__STATIC_INLINE uint32_t NVIC_EncodePriority (uint32_t PriorityGroup, uint32_t PreemptPriority, uint32_t SubPriority)
{
 80007f4:	b480      	push	{r7}
 80007f6:	b089      	sub	sp, #36	@ 0x24
 80007f8:	af00      	add	r7, sp, #0
 80007fa:	60f8      	str	r0, [r7, #12]
 80007fc:	60b9      	str	r1, [r7, #8]
 80007fe:	607a      	str	r2, [r7, #4]
  uint32_t PriorityGroupTmp = (PriorityGroup & (uint32_t)0x07UL);   /* only values 0..7 are used          */
 8000800:	68fb      	ldr	r3, [r7, #12]
 8000802:	f003 0307 	and.w	r3, r3, #7
 8000806:	61fb      	str	r3, [r7, #28]
  uint32_t PreemptPriorityBits;
  uint32_t SubPriorityBits;

  PreemptPriorityBits = ((7UL - PriorityGroupTmp) > (uint32_t)(__NVIC_PRIO_BITS)) ? (uint32_t)(__NVIC_PRIO_BITS) : (uint32_t)(7UL - PriorityGroupTmp);
 8000808:	69fb      	ldr	r3, [r7, #28]
 800080a:	f1c3 0307 	rsb	r3, r3, #7
 800080e:	2b04      	cmp	r3, #4
 8000810:	bf28      	it	cs
 8000812:	2304      	movcs	r3, #4
 8000814:	61bb      	str	r3, [r7, #24]
  SubPriorityBits     = ((PriorityGroupTmp + (uint32_t)(__NVIC_PRIO_BITS)) < (uint32_t)7UL) ? (uint32_t)0UL : (uint32_t)((PriorityGroupTmp - 7UL) + (uint32_t)(__NVIC_PRIO_BITS));
 8000816:	69fb      	ldr	r3, [r7, #28]
 8000818:	3304      	adds	r3, #4
 800081a:	2b06      	cmp	r3, #6
 800081c:	d902      	bls.n	8000824 <NVIC_EncodePriority+0x30>
 800081e:	69fb      	ldr	r3, [r7, #28]
 8000820:	3b03      	subs	r3, #3
 8000822:	e000      	b.n	8000826 <NVIC_EncodePriority+0x32>
 8000824:	2300      	movs	r3, #0
 8000826:	617b      	str	r3, [r7, #20]

  return (
           ((PreemptPriority & (uint32_t)((1UL << (PreemptPriorityBits)) - 1UL)) << SubPriorityBits) |
 8000828:	f04f 32ff 	mov.w	r2, #4294967295
 800082c:	69bb      	ldr	r3, [r7, #24]
 800082e:	fa02 f303 	lsl.w	r3, r2, r3
 8000832:	43da      	mvns	r2, r3
 8000834:	68bb      	ldr	r3, [r7, #8]
 8000836:	401a      	ands	r2, r3
 8000838:	697b      	ldr	r3, [r7, #20]
 800083a:	409a      	lsls	r2, r3
           ((SubPriority     & (uint32_t)((1UL << (SubPriorityBits    )) - 1UL)))
 800083c:	f04f 31ff 	mov.w	r1, #4294967295
 8000840:	697b      	ldr	r3, [r7, #20]
 8000842:	fa01 f303 	lsl.w	r3, r1, r3
 8000846:	43d9      	mvns	r1, r3
 8000848:	687b      	ldr	r3, [r7, #4]
 800084a:	400b      	ands	r3, r1
           ((PreemptPriority & (uint32_t)((1UL << (PreemptPriorityBits)) - 1UL)) << SubPriorityBits) |
 800084c:	4313      	orrs	r3, r2
         );
}
 800084e:	4618      	mov	r0, r3
 8000850:	3724      	adds	r7, #36	@ 0x24
 8000852:	46bd      	mov	sp, r7
 8000854:	f85d 7b04 	ldr.w	r7, [sp], #4
 8000858:	4770      	bx	lr
	...

0800085c <LL_ADC_DMA_GetRegAddr>:
  *         (1) Available on devices with several ADC instances.
  * @retval ADC register address
  */
#if defined(ADC_MULTIMODE_SUPPORT)
__STATIC_INLINE uint32_t LL_ADC_DMA_GetRegAddr(const ADC_TypeDef *ADCx, uint32_t Register)
{
 800085c:	b480      	push	{r7}
 800085e:	b085      	sub	sp, #20
 8000860:	af00      	add	r7, sp, #0
 8000862:	6078      	str	r0, [r7, #4]
 8000864:	6039      	str	r1, [r7, #0]
  uint32_t data_reg_addr;

  if (Register == LL_ADC_DMA_REG_REGULAR_DATA)
 8000866:	683b      	ldr	r3, [r7, #0]
 8000868:	2b00      	cmp	r3, #0
 800086a:	d103      	bne.n	8000874 <LL_ADC_DMA_GetRegAddr+0x18>
  {
    /* Retrieve address of register DR */
    data_reg_addr = (uint32_t) &(ADCx->DR);
 800086c:	687b      	ldr	r3, [r7, #4]
 800086e:	3340      	adds	r3, #64	@ 0x40
 8000870:	60fb      	str	r3, [r7, #12]
 8000872:	e00c      	b.n	800088e <LL_ADC_DMA_GetRegAddr+0x32>
  }
  else /* (Register == LL_ADC_DMA_REG_REGULAR_DATA_MULTI) */
  {
    /* Retrieve address of register CDR */
    data_reg_addr = (uint32_t) &((__LL_ADC_COMMON_INSTANCE(ADCx))->CDR);
 8000874:	687b      	ldr	r3, [r7, #4]
 8000876:	f1b3 4fa0 	cmp.w	r3, #1342177280	@ 0x50000000
 800087a:	d003      	beq.n	8000884 <LL_ADC_DMA_GetRegAddr+0x28>
 800087c:	687b      	ldr	r3, [r7, #4]
 800087e:	4a07      	ldr	r2, [pc, #28]	@ (800089c <LL_ADC_DMA_GetRegAddr+0x40>)
 8000880:	4293      	cmp	r3, r2
 8000882:	d101      	bne.n	8000888 <LL_ADC_DMA_GetRegAddr+0x2c>
 8000884:	4b06      	ldr	r3, [pc, #24]	@ (80008a0 <LL_ADC_DMA_GetRegAddr+0x44>)
 8000886:	e000      	b.n	800088a <LL_ADC_DMA_GetRegAddr+0x2e>
 8000888:	4b06      	ldr	r3, [pc, #24]	@ (80008a4 <LL_ADC_DMA_GetRegAddr+0x48>)
 800088a:	330c      	adds	r3, #12
 800088c:	60fb      	str	r3, [r7, #12]
  }

  return data_reg_addr;
 800088e:	68fb      	ldr	r3, [r7, #12]
}
 8000890:	4618      	mov	r0, r3
 8000892:	3714      	adds	r7, #20
 8000894:	46bd      	mov	sp, r7
 8000896:	f85d 7b04 	ldr.w	r7, [sp], #4
 800089a:	4770      	bx	lr
 800089c:	50000100 	.word	0x50000100
 80008a0:	50000300 	.word	0x50000300
 80008a4:	50000700 	.word	0x50000700

080008a8 <LL_ADC_SetGainCompensation>:
  *         0           Gain compensation will be disabled and value set to 0
  *         1 -> 16393  Gain compensation will be enabled with specified value
  * @retval None
  */
__STATIC_INLINE void LL_ADC_SetGainCompensation(ADC_TypeDef *ADCx, uint32_t GainCompensation)
{
 80008a8:	b480      	push	{r7}
 80008aa:	b083      	sub	sp, #12
 80008ac:	af00      	add	r7, sp, #0
 80008ae:	6078      	str	r0, [r7, #4]
 80008b0:	6039      	str	r1, [r7, #0]
  MODIFY_REG(ADCx->GCOMP, ADC_GCOMP_GCOMPCOEFF, GainCompensation);
 80008b2:	687b      	ldr	r3, [r7, #4]
 80008b4:	f8d3 30c0 	ldr.w	r3, [r3, #192]	@ 0xc0
 80008b8:	f423 537f 	bic.w	r3, r3, #16320	@ 0x3fc0
 80008bc:	f023 033f 	bic.w	r3, r3, #63	@ 0x3f
 80008c0:	683a      	ldr	r2, [r7, #0]
 80008c2:	431a      	orrs	r2, r3
 80008c4:	687b      	ldr	r3, [r7, #4]
 80008c6:	f8c3 20c0 	str.w	r2, [r3, #192]	@ 0xc0
  MODIFY_REG(ADCx->CFGR2, ADC_CFGR2_GCOMP, ((GainCompensation == 0UL) ? 0UL : 1UL) << ADC_CFGR2_GCOMP_Pos);
 80008ca:	687b      	ldr	r3, [r7, #4]
 80008cc:	691b      	ldr	r3, [r3, #16]
 80008ce:	f423 3380 	bic.w	r3, r3, #65536	@ 0x10000
 80008d2:	683a      	ldr	r2, [r7, #0]
 80008d4:	2a00      	cmp	r2, #0
 80008d6:	d002      	beq.n	80008de <LL_ADC_SetGainCompensation+0x36>
 80008d8:	f44f 3280 	mov.w	r2, #65536	@ 0x10000
 80008dc:	e000      	b.n	80008e0 <LL_ADC_SetGainCompensation+0x38>
 80008de:	2200      	movs	r2, #0
 80008e0:	431a      	orrs	r2, r3
 80008e2:	687b      	ldr	r3, [r7, #4]
 80008e4:	611a      	str	r2, [r3, #16]
}
 80008e6:	bf00      	nop
 80008e8:	370c      	adds	r7, #12
 80008ea:	46bd      	mov	sp, r7
 80008ec:	f85d 7b04 	ldr.w	r7, [sp], #4
 80008f0:	4770      	bx	lr

080008f2 <LL_ADC_REG_SetTriggerEdge>:
  *         @arg @ref LL_ADC_REG_TRIG_EXT_FALLING
  *         @arg @ref LL_ADC_REG_TRIG_EXT_RISINGFALLING
  * @retval None
  */
__STATIC_INLINE void LL_ADC_REG_SetTriggerEdge(ADC_TypeDef *ADCx, uint32_t ExternalTriggerEdge)
{
 80008f2:	b480      	push	{r7}
 80008f4:	b083      	sub	sp, #12
 80008f6:	af00      	add	r7, sp, #0
 80008f8:	6078      	str	r0, [r7, #4]
 80008fa:	6039      	str	r1, [r7, #0]
  MODIFY_REG(ADCx->CFGR, ADC_CFGR_EXTEN, ExternalTriggerEdge);
 80008fc:	687b      	ldr	r3, [r7, #4]
 80008fe:	68db      	ldr	r3, [r3, #12]
 8000900:	f423 6240 	bic.w	r2, r3, #3072	@ 0xc00
 8000904:	683b      	ldr	r3, [r7, #0]
 8000906:	431a      	orrs	r2, r3
 8000908:	687b      	ldr	r3, [r7, #4]
 800090a:	60da      	str	r2, [r3, #12]
}
 800090c:	bf00      	nop
 800090e:	370c      	adds	r7, #12
 8000910:	46bd      	mov	sp, r7
 8000912:	f85d 7b04 	ldr.w	r7, [sp], #4
 8000916:	4770      	bx	lr

08000918 <LL_ADC_REG_SetSequencerRanks>:
  *             Other channels are slow channels  allows: 6.5 (sampling) + 12.5 (conversion) = 19 ADC clock cycles
  *             (fADC) to convert in 12-bit resolution.\n
  * @retval None
  */
__STATIC_INLINE void LL_ADC_REG_SetSequencerRanks(ADC_TypeDef *ADCx, uint32_t Rank, uint32_t Channel)
{
 8000918:	b480      	push	{r7}
 800091a:	b087      	sub	sp, #28
 800091c:	af00      	add	r7, sp, #0
 800091e:	60f8      	str	r0, [r7, #12]
 8000920:	60b9      	str	r1, [r7, #8]
 8000922:	607a      	str	r2, [r7, #4]
  /* Set bits with content of parameter "Channel" with bits position          */
  /* in register and register position depending on parameter "Rank".         */
  /* Parameters "Rank" and "Channel" are used with masks because containing   */
  /* other bits reserved for other purpose.                                   */
  __IO uint32_t *preg = __ADC_PTR_REG_OFFSET(ADCx->SQR1,
 8000924:	68fb      	ldr	r3, [r7, #12]
 8000926:	3330      	adds	r3, #48	@ 0x30
 8000928:	461a      	mov	r2, r3
 800092a:	68bb      	ldr	r3, [r7, #8]
 800092c:	0a1b      	lsrs	r3, r3, #8
 800092e:	009b      	lsls	r3, r3, #2
 8000930:	f003 030c 	and.w	r3, r3, #12
 8000934:	4413      	add	r3, r2
 8000936:	617b      	str	r3, [r7, #20]
                                             ((Rank & ADC_REG_SQRX_REGOFFSET_MASK) >> ADC_SQRX_REGOFFSET_POS));

  MODIFY_REG(*preg,
 8000938:	697b      	ldr	r3, [r7, #20]
 800093a:	681a      	ldr	r2, [r3, #0]
 800093c:	68bb      	ldr	r3, [r7, #8]
 800093e:	f003 031f 	and.w	r3, r3, #31
 8000942:	211f      	movs	r1, #31
 8000944:	fa01 f303 	lsl.w	r3, r1, r3
 8000948:	43db      	mvns	r3, r3
 800094a:	401a      	ands	r2, r3
 800094c:	687b      	ldr	r3, [r7, #4]
 800094e:	0e9b      	lsrs	r3, r3, #26
 8000950:	f003 011f 	and.w	r1, r3, #31
 8000954:	68bb      	ldr	r3, [r7, #8]
 8000956:	f003 031f 	and.w	r3, r3, #31
 800095a:	fa01 f303 	lsl.w	r3, r1, r3
 800095e:	431a      	orrs	r2, r3
 8000960:	697b      	ldr	r3, [r7, #20]
 8000962:	601a      	str	r2, [r3, #0]
             ADC_CHANNEL_ID_NUMBER_MASK_POSBIT0 << (Rank & ADC_REG_RANK_ID_SQRX_MASK),
             ((Channel & ADC_CHANNEL_ID_NUMBER_MASK) >> ADC_CHANNEL_ID_NUMBER_BITOFFSET_POS)
             << (Rank & ADC_REG_RANK_ID_SQRX_MASK));
}
 8000964:	bf00      	nop
 8000966:	371c      	adds	r7, #28
 8000968:	46bd      	mov	sp, r7
 800096a:	f85d 7b04 	ldr.w	r7, [sp], #4
 800096e:	4770      	bx	lr

08000970 <LL_ADC_SetChannelSamplingTime>:
  *             can be replaced by 3.5 ADC clock cycles.
  *             Refer to function @ref LL_ADC_SetSamplingTimeCommonConfig().
  * @retval None
  */
__STATIC_INLINE void LL_ADC_SetChannelSamplingTime(ADC_TypeDef *ADCx, uint32_t Channel, uint32_t SamplingTime)
{
 8000970:	b480      	push	{r7}
 8000972:	b087      	sub	sp, #28
 8000974:	af00      	add	r7, sp, #0
 8000976:	60f8      	str	r0, [r7, #12]
 8000978:	60b9      	str	r1, [r7, #8]
 800097a:	607a      	str	r2, [r7, #4]
  /* Set bits with content of parameter "SamplingTime" with bits position     */
  /* in register and register position depending on parameter "Channel".      */
  /* Parameter "Channel" is used with masks because containing                */
  /* other bits reserved for other purpose.                                   */
  __IO uint32_t *preg = __ADC_PTR_REG_OFFSET(ADCx->SMPR1,
 800097c:	68fb      	ldr	r3, [r7, #12]
 800097e:	3314      	adds	r3, #20
 8000980:	461a      	mov	r2, r3
 8000982:	68bb      	ldr	r3, [r7, #8]
 8000984:	0e5b      	lsrs	r3, r3, #25
 8000986:	009b      	lsls	r3, r3, #2
 8000988:	f003 0304 	and.w	r3, r3, #4
 800098c:	4413      	add	r3, r2
 800098e:	617b      	str	r3, [r7, #20]
                                             ((Channel & ADC_CHANNEL_SMPRX_REGOFFSET_MASK) >> ADC_SMPRX_REGOFFSET_POS));

  MODIFY_REG(*preg,
 8000990:	697b      	ldr	r3, [r7, #20]
 8000992:	681a      	ldr	r2, [r3, #0]
 8000994:	68bb      	ldr	r3, [r7, #8]
 8000996:	0d1b      	lsrs	r3, r3, #20
 8000998:	f003 031f 	and.w	r3, r3, #31
 800099c:	2107      	movs	r1, #7
 800099e:	fa01 f303 	lsl.w	r3, r1, r3
 80009a2:	43db      	mvns	r3, r3
 80009a4:	401a      	ands	r2, r3
 80009a6:	68bb      	ldr	r3, [r7, #8]
 80009a8:	0d1b      	lsrs	r3, r3, #20
 80009aa:	f003 031f 	and.w	r3, r3, #31
 80009ae:	6879      	ldr	r1, [r7, #4]
 80009b0:	fa01 f303 	lsl.w	r3, r1, r3
 80009b4:	431a      	orrs	r2, r3
 80009b6:	697b      	ldr	r3, [r7, #20]
 80009b8:	601a      	str	r2, [r3, #0]
             ADC_SMPR1_SMP0 << ((Channel & ADC_CHANNEL_SMPx_BITOFFSET_MASK) >> ADC_CHANNEL_SMPx_BITOFFSET_POS),
             SamplingTime   << ((Channel & ADC_CHANNEL_SMPx_BITOFFSET_MASK) >> ADC_CHANNEL_SMPx_BITOFFSET_POS));
}
 80009ba:	bf00      	nop
 80009bc:	371c      	adds	r7, #28
 80009be:	46bd      	mov	sp, r7
 80009c0:	f85d 7b04 	ldr.w	r7, [sp], #4
 80009c4:	4770      	bx	lr
	...

080009c8 <LL_ADC_SetChannelSingleDiff>:
  *         @arg @ref LL_ADC_SINGLE_ENDED
  *         @arg @ref LL_ADC_DIFFERENTIAL_ENDED
  * @retval None
  */
__STATIC_INLINE void LL_ADC_SetChannelSingleDiff(ADC_TypeDef *ADCx, uint32_t Channel, uint32_t SingleDiff)
{
 80009c8:	b480      	push	{r7}
 80009ca:	b085      	sub	sp, #20
 80009cc:	af00      	add	r7, sp, #0
 80009ce:	60f8      	str	r0, [r7, #12]
 80009d0:	60b9      	str	r1, [r7, #8]
 80009d2:	607a      	str	r2, [r7, #4]
  /* Bits of channels in single or differential mode are set only for         */
  /* differential mode (for single mode, mask of bits allowed to be set is    */
  /* shifted out of range of bits of channels in single or differential mode. */
  MODIFY_REG(ADCx->DIFSEL,
 80009d4:	68fb      	ldr	r3, [r7, #12]
 80009d6:	f8d3 20b0 	ldr.w	r2, [r3, #176]	@ 0xb0
 80009da:	68bb      	ldr	r3, [r7, #8]
 80009dc:	f3c3 0312 	ubfx	r3, r3, #0, #19
 80009e0:	43db      	mvns	r3, r3
 80009e2:	401a      	ands	r2, r3
 80009e4:	687b      	ldr	r3, [r7, #4]
 80009e6:	f003 0318 	and.w	r3, r3, #24
 80009ea:	4908      	ldr	r1, [pc, #32]	@ (8000a0c <LL_ADC_SetChannelSingleDiff+0x44>)
 80009ec:	40d9      	lsrs	r1, r3
 80009ee:	68bb      	ldr	r3, [r7, #8]
 80009f0:	400b      	ands	r3, r1
 80009f2:	f3c3 0312 	ubfx	r3, r3, #0, #19
 80009f6:	431a      	orrs	r2, r3
 80009f8:	68fb      	ldr	r3, [r7, #12]
 80009fa:	f8c3 20b0 	str.w	r2, [r3, #176]	@ 0xb0
             Channel & ADC_SINGLEDIFF_CHANNEL_MASK,
             (Channel & ADC_SINGLEDIFF_CHANNEL_MASK)
             & (ADC_DIFSEL_DIFSEL >> (SingleDiff & ADC_SINGLEDIFF_CHANNEL_SHIFT_MASK)));
}
 80009fe:	bf00      	nop
 8000a00:	3714      	adds	r7, #20
 8000a02:	46bd      	mov	sp, r7
 8000a04:	f85d 7b04 	ldr.w	r7, [sp], #4
 8000a08:	4770      	bx	lr
 8000a0a:	bf00      	nop
 8000a0c:	0007ffff 	.word	0x0007ffff

08000a10 <LL_ADC_SetOverSamplingScope>:
  *         @arg @ref LL_ADC_OVS_GRP_INJECTED
  *         @arg @ref LL_ADC_OVS_GRP_INJ_REG_RESUMED
  * @retval None
  */
__STATIC_INLINE void LL_ADC_SetOverSamplingScope(ADC_TypeDef *ADCx, uint32_t OvsScope)
{
 8000a10:	b480      	push	{r7}
 8000a12:	b083      	sub	sp, #12
 8000a14:	af00      	add	r7, sp, #0
 8000a16:	6078      	str	r0, [r7, #4]
 8000a18:	6039      	str	r1, [r7, #0]
  MODIFY_REG(ADCx->CFGR2, ADC_CFGR2_ROVSE | ADC_CFGR2_JOVSE | ADC_CFGR2_ROVSM, OvsScope);
 8000a1a:	687b      	ldr	r3, [r7, #4]
 8000a1c:	691b      	ldr	r3, [r3, #16]
 8000a1e:	f423 6380 	bic.w	r3, r3, #1024	@ 0x400
 8000a22:	f023 0303 	bic.w	r3, r3, #3
 8000a26:	683a      	ldr	r2, [r7, #0]
 8000a28:	431a      	orrs	r2, r3
 8000a2a:	687b      	ldr	r3, [r7, #4]
 8000a2c:	611a      	str	r2, [r3, #16]
}
 8000a2e:	bf00      	nop
 8000a30:	370c      	adds	r7, #12
 8000a32:	46bd      	mov	sp, r7
 8000a34:	f85d 7b04 	ldr.w	r7, [sp], #4
 8000a38:	4770      	bx	lr

08000a3a <LL_ADC_DisableDeepPowerDown>:
  * @rmtoll CR       DEEPPWD        LL_ADC_DisableDeepPowerDown
  * @param  ADCx ADC instance
  * @retval None
  */
__STATIC_INLINE void LL_ADC_DisableDeepPowerDown(ADC_TypeDef *ADCx)
{
 8000a3a:	b480      	push	{r7}
 8000a3c:	b083      	sub	sp, #12
 8000a3e:	af00      	add	r7, sp, #0
 8000a40:	6078      	str	r0, [r7, #4]
  /* Note: Write register with some additional bits forced to state reset     */
  /*       instead of modifying only the selected bit for this function,      */
  /*       to not interfere with bits with HW property "rs".                  */
  CLEAR_BIT(ADCx->CR, (ADC_CR_DEEPPWD | ADC_CR_BITS_PROPERTY_RS));
 8000a42:	687b      	ldr	r3, [r7, #4]
 8000a44:	689b      	ldr	r3, [r3, #8]
 8000a46:	f023 4320 	bic.w	r3, r3, #2684354560	@ 0xa0000000
 8000a4a:	f023 033f 	bic.w	r3, r3, #63	@ 0x3f
 8000a4e:	687a      	ldr	r2, [r7, #4]
 8000a50:	6093      	str	r3, [r2, #8]
}
 8000a52:	bf00      	nop
 8000a54:	370c      	adds	r7, #12
 8000a56:	46bd      	mov	sp, r7
 8000a58:	f85d 7b04 	ldr.w	r7, [sp], #4
 8000a5c:	4770      	bx	lr

08000a5e <LL_ADC_EnableInternalRegulator>:
  * @rmtoll CR       ADVREGEN       LL_ADC_EnableInternalRegulator
  * @param  ADCx ADC instance
  * @retval None
  */
__STATIC_INLINE void LL_ADC_EnableInternalRegulator(ADC_TypeDef *ADCx)
{
 8000a5e:	b480      	push	{r7}
 8000a60:	b083      	sub	sp, #12
 8000a62:	af00      	add	r7, sp, #0
 8000a64:	6078      	str	r0, [r7, #4]
  /* Note: Write register with some additional bits forced to state reset     */
  /*       instead of modifying only the selected bit for this function,      */
  /*       to not interfere with bits with HW property "rs".                  */
  MODIFY_REG(ADCx->CR,
 8000a66:	687b      	ldr	r3, [r7, #4]
 8000a68:	689b      	ldr	r3, [r3, #8]
 8000a6a:	f023 4310 	bic.w	r3, r3, #2415919104	@ 0x90000000
 8000a6e:	f023 033f 	bic.w	r3, r3, #63	@ 0x3f
 8000a72:	f043 5280 	orr.w	r2, r3, #268435456	@ 0x10000000
 8000a76:	687b      	ldr	r3, [r7, #4]
 8000a78:	609a      	str	r2, [r3, #8]
             ADC_CR_BITS_PROPERTY_RS,
             ADC_CR_ADVREGEN);
}
 8000a7a:	bf00      	nop
 8000a7c:	370c      	adds	r7, #12
 8000a7e:	46bd      	mov	sp, r7
 8000a80:	f85d 7b04 	ldr.w	r7, [sp], #4
 8000a84:	4770      	bx	lr

08000a86 <LL_ADC_Enable>:
  * @rmtoll CR       ADEN           LL_ADC_Enable
  * @param  ADCx ADC instance
  * @retval None
  */
__STATIC_INLINE void LL_ADC_Enable(ADC_TypeDef *ADCx)
{
 8000a86:	b480      	push	{r7}
 8000a88:	b083      	sub	sp, #12
 8000a8a:	af00      	add	r7, sp, #0
 8000a8c:	6078      	str	r0, [r7, #4]
  /* Note: Write register with some additional bits forced to state reset     */
  /*       instead of modifying only the selected bit for this function,      */
  /*       to not interfere with bits with HW property "rs".                  */
  MODIFY_REG(ADCx->CR,
 8000a8e:	687b      	ldr	r3, [r7, #4]
 8000a90:	689b      	ldr	r3, [r3, #8]
 8000a92:	f023 4300 	bic.w	r3, r3, #2147483648	@ 0x80000000
 8000a96:	f023 033f 	bic.w	r3, r3, #63	@ 0x3f
 8000a9a:	f043 0201 	orr.w	r2, r3, #1
 8000a9e:	687b      	ldr	r3, [r7, #4]
 8000aa0:	609a      	str	r2, [r3, #8]
             ADC_CR_BITS_PROPERTY_RS,
             ADC_CR_ADEN);
}
 8000aa2:	bf00      	nop
 8000aa4:	370c      	adds	r7, #12
 8000aa6:	46bd      	mov	sp, r7
 8000aa8:	f85d 7b04 	ldr.w	r7, [sp], #4
 8000aac:	4770      	bx	lr

08000aae <LL_ADC_StartCalibration>:
  *         @arg @ref LL_ADC_SINGLE_ENDED
  *         @arg @ref LL_ADC_DIFFERENTIAL_ENDED
  * @retval None
  */
__STATIC_INLINE void LL_ADC_StartCalibration(ADC_TypeDef *ADCx, uint32_t SingleDiff)
{
 8000aae:	b480      	push	{r7}
 8000ab0:	b083      	sub	sp, #12
 8000ab2:	af00      	add	r7, sp, #0
 8000ab4:	6078      	str	r0, [r7, #4]
 8000ab6:	6039      	str	r1, [r7, #0]
  /* Note: Write register with some additional bits forced to state reset     */
  /*       instead of modifying only the selected bit for this function,      */
  /*       to not interfere with bits with HW property "rs".                  */
  MODIFY_REG(ADCx->CR,
 8000ab8:	687b      	ldr	r3, [r7, #4]
 8000aba:	689b      	ldr	r3, [r3, #8]
 8000abc:	f023 4340 	bic.w	r3, r3, #3221225472	@ 0xc0000000
 8000ac0:	f023 033f 	bic.w	r3, r3, #63	@ 0x3f
 8000ac4:	683a      	ldr	r2, [r7, #0]
 8000ac6:	f002 4280 	and.w	r2, r2, #1073741824	@ 0x40000000
 8000aca:	4313      	orrs	r3, r2
 8000acc:	f043 4200 	orr.w	r2, r3, #2147483648	@ 0x80000000
 8000ad0:	687b      	ldr	r3, [r7, #4]
 8000ad2:	609a      	str	r2, [r3, #8]
             ADC_CR_ADCALDIF | ADC_CR_BITS_PROPERTY_RS,
             ADC_CR_ADCAL | (SingleDiff & ADC_SINGLEDIFF_CALIB_START_MASK));
}
 8000ad4:	bf00      	nop
 8000ad6:	370c      	adds	r7, #12
 8000ad8:	46bd      	mov	sp, r7
 8000ada:	f85d 7b04 	ldr.w	r7, [sp], #4
 8000ade:	4770      	bx	lr

08000ae0 <LL_ADC_IsCalibrationOnGoing>:
  * @rmtoll CR       ADCAL          LL_ADC_IsCalibrationOnGoing
  * @param  ADCx ADC instance
  * @retval 0: calibration complete, 1: calibration in progress.
  */
__STATIC_INLINE uint32_t LL_ADC_IsCalibrationOnGoing(const ADC_TypeDef *ADCx)
{
 8000ae0:	b480      	push	{r7}
 8000ae2:	b083      	sub	sp, #12
 8000ae4:	af00      	add	r7, sp, #0
 8000ae6:	6078      	str	r0, [r7, #4]
  return ((READ_BIT(ADCx->CR, ADC_CR_ADCAL) == (ADC_CR_ADCAL)) ? 1UL : 0UL);
 8000ae8:	687b      	ldr	r3, [r7, #4]
 8000aea:	689b      	ldr	r3, [r3, #8]
 8000aec:	f003 4300 	and.w	r3, r3, #2147483648	@ 0x80000000
 8000af0:	f1b3 4f00 	cmp.w	r3, #2147483648	@ 0x80000000
 8000af4:	d101      	bne.n	8000afa <LL_ADC_IsCalibrationOnGoing+0x1a>
 8000af6:	2301      	movs	r3, #1
 8000af8:	e000      	b.n	8000afc <LL_ADC_IsCalibrationOnGoing+0x1c>
 8000afa:	2300      	movs	r3, #0
}
 8000afc:	4618      	mov	r0, r3
 8000afe:	370c      	adds	r7, #12
 8000b00:	46bd      	mov	sp, r7
 8000b02:	f85d 7b04 	ldr.w	r7, [sp], #4
 8000b06:	4770      	bx	lr

08000b08 <LL_ADC_REG_StartConversion>:
  * @rmtoll CR       ADSTART        LL_ADC_REG_StartConversion
  * @param  ADCx ADC instance
  * @retval None
  */
__STATIC_INLINE void LL_ADC_REG_StartConversion(ADC_TypeDef *ADCx)
{
 8000b08:	b480      	push	{r7}
 8000b0a:	b083      	sub	sp, #12
 8000b0c:	af00      	add	r7, sp, #0
 8000b0e:	6078      	str	r0, [r7, #4]
  /* Note: Write register with some additional bits forced to state reset     */
  /*       instead of modifying only the selected bit for this function,      */
  /*       to not interfere with bits with HW property "rs".                  */
  MODIFY_REG(ADCx->CR,
 8000b10:	687b      	ldr	r3, [r7, #4]
 8000b12:	689b      	ldr	r3, [r3, #8]
 8000b14:	f023 4300 	bic.w	r3, r3, #2147483648	@ 0x80000000
 8000b18:	f023 033f 	bic.w	r3, r3, #63	@ 0x3f
 8000b1c:	f043 0204 	orr.w	r2, r3, #4
 8000b20:	687b      	ldr	r3, [r7, #4]
 8000b22:	609a      	str	r2, [r3, #8]
             ADC_CR_BITS_PROPERTY_RS,
             ADC_CR_ADSTART);
}
 8000b24:	bf00      	nop
 8000b26:	370c      	adds	r7, #12
 8000b28:	46bd      	mov	sp, r7
 8000b2a:	f85d 7b04 	ldr.w	r7, [sp], #4
 8000b2e:	4770      	bx	lr

08000b30 <LL_ADC_IsActiveFlag_ADRDY>:
  * @rmtoll ISR      ADRDY          LL_ADC_IsActiveFlag_ADRDY
  * @param  ADCx ADC instance
  * @retval State of bit (1 or 0).
  */
__STATIC_INLINE uint32_t LL_ADC_IsActiveFlag_ADRDY(const ADC_TypeDef *ADCx)
{
 8000b30:	b480      	push	{r7}
 8000b32:	b083      	sub	sp, #12
 8000b34:	af00      	add	r7, sp, #0
 8000b36:	6078      	str	r0, [r7, #4]
  return ((READ_BIT(ADCx->ISR, LL_ADC_FLAG_ADRDY) == (LL_ADC_FLAG_ADRDY)) ? 1UL : 0UL);
 8000b38:	687b      	ldr	r3, [r7, #4]
 8000b3a:	681b      	ldr	r3, [r3, #0]
 8000b3c:	f003 0301 	and.w	r3, r3, #1
 8000b40:	2b01      	cmp	r3, #1
 8000b42:	d101      	bne.n	8000b48 <LL_ADC_IsActiveFlag_ADRDY+0x18>
 8000b44:	2301      	movs	r3, #1
 8000b46:	e000      	b.n	8000b4a <LL_ADC_IsActiveFlag_ADRDY+0x1a>
 8000b48:	2300      	movs	r3, #0
}
 8000b4a:	4618      	mov	r0, r3
 8000b4c:	370c      	adds	r7, #12
 8000b4e:	46bd      	mov	sp, r7
 8000b50:	f85d 7b04 	ldr.w	r7, [sp], #4
 8000b54:	4770      	bx	lr
	...

08000b58 <LL_DMA_EnableChannel>:
  *         @arg @ref LL_DMA_CHANNEL_8 (*)
  *         (*) Not on all G4 devices
  * @retval None
  */
__STATIC_INLINE void LL_DMA_EnableChannel(DMA_TypeDef *DMAx, uint32_t Channel)
{
 8000b58:	b480      	push	{r7}
 8000b5a:	b085      	sub	sp, #20
 8000b5c:	af00      	add	r7, sp, #0
 8000b5e:	6078      	str	r0, [r7, #4]
 8000b60:	6039      	str	r1, [r7, #0]
  uint32_t dma_base_addr = (uint32_t)DMAx;
 8000b62:	687b      	ldr	r3, [r7, #4]
 8000b64:	60fb      	str	r3, [r7, #12]
  SET_BIT(((DMA_Channel_TypeDef *)((uint32_t)(dma_base_addr + CHANNEL_OFFSET_TAB[Channel])))->CCR, DMA_CCR_EN);
 8000b66:	4a0c      	ldr	r2, [pc, #48]	@ (8000b98 <LL_DMA_EnableChannel+0x40>)
 8000b68:	683b      	ldr	r3, [r7, #0]
 8000b6a:	4413      	add	r3, r2
 8000b6c:	781b      	ldrb	r3, [r3, #0]
 8000b6e:	461a      	mov	r2, r3
 8000b70:	68fb      	ldr	r3, [r7, #12]
 8000b72:	4413      	add	r3, r2
 8000b74:	681b      	ldr	r3, [r3, #0]
 8000b76:	4908      	ldr	r1, [pc, #32]	@ (8000b98 <LL_DMA_EnableChannel+0x40>)
 8000b78:	683a      	ldr	r2, [r7, #0]
 8000b7a:	440a      	add	r2, r1
 8000b7c:	7812      	ldrb	r2, [r2, #0]
 8000b7e:	4611      	mov	r1, r2
 8000b80:	68fa      	ldr	r2, [r7, #12]
 8000b82:	440a      	add	r2, r1
 8000b84:	f043 0301 	orr.w	r3, r3, #1
 8000b88:	6013      	str	r3, [r2, #0]
}
 8000b8a:	bf00      	nop
 8000b8c:	3714      	adds	r7, #20
 8000b8e:	46bd      	mov	sp, r7
 8000b90:	f85d 7b04 	ldr.w	r7, [sp], #4
 8000b94:	4770      	bx	lr
 8000b96:	bf00      	nop
 8000b98:	08007280 	.word	0x08007280

08000b9c <LL_DMA_SetDataTransferDirection>:
  *         @arg @ref LL_DMA_DIRECTION_MEMORY_TO_PERIPH
  *         @arg @ref LL_DMA_DIRECTION_MEMORY_TO_MEMORY
  * @retval None
  */
__STATIC_INLINE void LL_DMA_SetDataTransferDirection(DMA_TypeDef *DMAx, uint32_t Channel, uint32_t Direction)
{
 8000b9c:	b480      	push	{r7}
 8000b9e:	b087      	sub	sp, #28
 8000ba0:	af00      	add	r7, sp, #0
 8000ba2:	60f8      	str	r0, [r7, #12]
 8000ba4:	60b9      	str	r1, [r7, #8]
 8000ba6:	607a      	str	r2, [r7, #4]
  uint32_t dma_base_addr = (uint32_t)DMAx;
 8000ba8:	68fb      	ldr	r3, [r7, #12]
 8000baa:	617b      	str	r3, [r7, #20]
  MODIFY_REG(((DMA_Channel_TypeDef *)((uint32_t)(dma_base_addr + CHANNEL_OFFSET_TAB[Channel])))->CCR,
 8000bac:	4a0e      	ldr	r2, [pc, #56]	@ (8000be8 <LL_DMA_SetDataTransferDirection+0x4c>)
 8000bae:	68bb      	ldr	r3, [r7, #8]
 8000bb0:	4413      	add	r3, r2
 8000bb2:	781b      	ldrb	r3, [r3, #0]
 8000bb4:	461a      	mov	r2, r3
 8000bb6:	697b      	ldr	r3, [r7, #20]
 8000bb8:	4413      	add	r3, r2
 8000bba:	681b      	ldr	r3, [r3, #0]
 8000bbc:	f423 4380 	bic.w	r3, r3, #16384	@ 0x4000
 8000bc0:	f023 0310 	bic.w	r3, r3, #16
 8000bc4:	4908      	ldr	r1, [pc, #32]	@ (8000be8 <LL_DMA_SetDataTransferDirection+0x4c>)
 8000bc6:	68ba      	ldr	r2, [r7, #8]
 8000bc8:	440a      	add	r2, r1
 8000bca:	7812      	ldrb	r2, [r2, #0]
 8000bcc:	4611      	mov	r1, r2
 8000bce:	697a      	ldr	r2, [r7, #20]
 8000bd0:	440a      	add	r2, r1
 8000bd2:	4611      	mov	r1, r2
 8000bd4:	687a      	ldr	r2, [r7, #4]
 8000bd6:	4313      	orrs	r3, r2
 8000bd8:	600b      	str	r3, [r1, #0]
             DMA_CCR_DIR | DMA_CCR_MEM2MEM, Direction);
}
 8000bda:	bf00      	nop
 8000bdc:	371c      	adds	r7, #28
 8000bde:	46bd      	mov	sp, r7
 8000be0:	f85d 7b04 	ldr.w	r7, [sp], #4
 8000be4:	4770      	bx	lr
 8000be6:	bf00      	nop
 8000be8:	08007280 	.word	0x08007280

08000bec <LL_DMA_SetMode>:
  *         @arg @ref LL_DMA_MODE_NORMAL
  *         @arg @ref LL_DMA_MODE_CIRCULAR
  * @retval None
  */
__STATIC_INLINE void LL_DMA_SetMode(DMA_TypeDef *DMAx, uint32_t Channel, uint32_t Mode)
{
 8000bec:	b480      	push	{r7}
 8000bee:	b087      	sub	sp, #28
 8000bf0:	af00      	add	r7, sp, #0
 8000bf2:	60f8      	str	r0, [r7, #12]
 8000bf4:	60b9      	str	r1, [r7, #8]
 8000bf6:	607a      	str	r2, [r7, #4]
  uint32_t dma_base_addr = (uint32_t)DMAx;
 8000bf8:	68fb      	ldr	r3, [r7, #12]
 8000bfa:	617b      	str	r3, [r7, #20]
  MODIFY_REG(((DMA_Channel_TypeDef *)((uint32_t)(dma_base_addr + CHANNEL_OFFSET_TAB[Channel])))->CCR, DMA_CCR_CIRC,
 8000bfc:	4a0d      	ldr	r2, [pc, #52]	@ (8000c34 <LL_DMA_SetMode+0x48>)
 8000bfe:	68bb      	ldr	r3, [r7, #8]
 8000c00:	4413      	add	r3, r2
 8000c02:	781b      	ldrb	r3, [r3, #0]
 8000c04:	461a      	mov	r2, r3
 8000c06:	697b      	ldr	r3, [r7, #20]
 8000c08:	4413      	add	r3, r2
 8000c0a:	681b      	ldr	r3, [r3, #0]
 8000c0c:	f023 0220 	bic.w	r2, r3, #32
 8000c10:	4908      	ldr	r1, [pc, #32]	@ (8000c34 <LL_DMA_SetMode+0x48>)
 8000c12:	68bb      	ldr	r3, [r7, #8]
 8000c14:	440b      	add	r3, r1
 8000c16:	781b      	ldrb	r3, [r3, #0]
 8000c18:	4619      	mov	r1, r3
 8000c1a:	697b      	ldr	r3, [r7, #20]
 8000c1c:	440b      	add	r3, r1
 8000c1e:	4619      	mov	r1, r3
 8000c20:	687b      	ldr	r3, [r7, #4]
 8000c22:	4313      	orrs	r3, r2
 8000c24:	600b      	str	r3, [r1, #0]
             Mode);
}
 8000c26:	bf00      	nop
 8000c28:	371c      	adds	r7, #28
 8000c2a:	46bd      	mov	sp, r7
 8000c2c:	f85d 7b04 	ldr.w	r7, [sp], #4
 8000c30:	4770      	bx	lr
 8000c32:	bf00      	nop
 8000c34:	08007280 	.word	0x08007280

08000c38 <LL_DMA_SetPeriphIncMode>:
  *         @arg @ref LL_DMA_PERIPH_INCREMENT
  *         @arg @ref LL_DMA_PERIPH_NOINCREMENT
  * @retval None
  */
__STATIC_INLINE void LL_DMA_SetPeriphIncMode(DMA_TypeDef *DMAx, uint32_t Channel, uint32_t PeriphOrM2MSrcIncMode)
{
 8000c38:	b480      	push	{r7}
 8000c3a:	b087      	sub	sp, #28
 8000c3c:	af00      	add	r7, sp, #0
 8000c3e:	60f8      	str	r0, [r7, #12]
 8000c40:	60b9      	str	r1, [r7, #8]
 8000c42:	607a      	str	r2, [r7, #4]
  uint32_t dma_base_addr = (uint32_t)DMAx;
 8000c44:	68fb      	ldr	r3, [r7, #12]
 8000c46:	617b      	str	r3, [r7, #20]
  MODIFY_REG(((DMA_Channel_TypeDef *)((uint32_t)(dma_base_addr + CHANNEL_OFFSET_TAB[Channel])))->CCR, DMA_CCR_PINC,
 8000c48:	4a0d      	ldr	r2, [pc, #52]	@ (8000c80 <LL_DMA_SetPeriphIncMode+0x48>)
 8000c4a:	68bb      	ldr	r3, [r7, #8]
 8000c4c:	4413      	add	r3, r2
 8000c4e:	781b      	ldrb	r3, [r3, #0]
 8000c50:	461a      	mov	r2, r3
 8000c52:	697b      	ldr	r3, [r7, #20]
 8000c54:	4413      	add	r3, r2
 8000c56:	681b      	ldr	r3, [r3, #0]
 8000c58:	f023 0240 	bic.w	r2, r3, #64	@ 0x40
 8000c5c:	4908      	ldr	r1, [pc, #32]	@ (8000c80 <LL_DMA_SetPeriphIncMode+0x48>)
 8000c5e:	68bb      	ldr	r3, [r7, #8]
 8000c60:	440b      	add	r3, r1
 8000c62:	781b      	ldrb	r3, [r3, #0]
 8000c64:	4619      	mov	r1, r3
 8000c66:	697b      	ldr	r3, [r7, #20]
 8000c68:	440b      	add	r3, r1
 8000c6a:	4619      	mov	r1, r3
 8000c6c:	687b      	ldr	r3, [r7, #4]
 8000c6e:	4313      	orrs	r3, r2
 8000c70:	600b      	str	r3, [r1, #0]
             PeriphOrM2MSrcIncMode);
}
 8000c72:	bf00      	nop
 8000c74:	371c      	adds	r7, #28
 8000c76:	46bd      	mov	sp, r7
 8000c78:	f85d 7b04 	ldr.w	r7, [sp], #4
 8000c7c:	4770      	bx	lr
 8000c7e:	bf00      	nop
 8000c80:	08007280 	.word	0x08007280

08000c84 <LL_DMA_SetMemoryIncMode>:
  *         @arg @ref LL_DMA_MEMORY_INCREMENT
  *         @arg @ref LL_DMA_MEMORY_NOINCREMENT
  * @retval None
  */
__STATIC_INLINE void LL_DMA_SetMemoryIncMode(DMA_TypeDef *DMAx, uint32_t Channel, uint32_t MemoryOrM2MDstIncMode)
{
 8000c84:	b480      	push	{r7}
 8000c86:	b087      	sub	sp, #28
 8000c88:	af00      	add	r7, sp, #0
 8000c8a:	60f8      	str	r0, [r7, #12]
 8000c8c:	60b9      	str	r1, [r7, #8]
 8000c8e:	607a      	str	r2, [r7, #4]
  uint32_t dma_base_addr = (uint32_t)DMAx;
 8000c90:	68fb      	ldr	r3, [r7, #12]
 8000c92:	617b      	str	r3, [r7, #20]
  MODIFY_REG(((DMA_Channel_TypeDef *)((uint32_t)(dma_base_addr + CHANNEL_OFFSET_TAB[Channel])))->CCR, DMA_CCR_MINC,
 8000c94:	4a0d      	ldr	r2, [pc, #52]	@ (8000ccc <LL_DMA_SetMemoryIncMode+0x48>)
 8000c96:	68bb      	ldr	r3, [r7, #8]
 8000c98:	4413      	add	r3, r2
 8000c9a:	781b      	ldrb	r3, [r3, #0]
 8000c9c:	461a      	mov	r2, r3
 8000c9e:	697b      	ldr	r3, [r7, #20]
 8000ca0:	4413      	add	r3, r2
 8000ca2:	681b      	ldr	r3, [r3, #0]
 8000ca4:	f023 0280 	bic.w	r2, r3, #128	@ 0x80
 8000ca8:	4908      	ldr	r1, [pc, #32]	@ (8000ccc <LL_DMA_SetMemoryIncMode+0x48>)
 8000caa:	68bb      	ldr	r3, [r7, #8]
 8000cac:	440b      	add	r3, r1
 8000cae:	781b      	ldrb	r3, [r3, #0]
 8000cb0:	4619      	mov	r1, r3
 8000cb2:	697b      	ldr	r3, [r7, #20]
 8000cb4:	440b      	add	r3, r1
 8000cb6:	4619      	mov	r1, r3
 8000cb8:	687b      	ldr	r3, [r7, #4]
 8000cba:	4313      	orrs	r3, r2
 8000cbc:	600b      	str	r3, [r1, #0]
             MemoryOrM2MDstIncMode);
}
 8000cbe:	bf00      	nop
 8000cc0:	371c      	adds	r7, #28
 8000cc2:	46bd      	mov	sp, r7
 8000cc4:	f85d 7b04 	ldr.w	r7, [sp], #4
 8000cc8:	4770      	bx	lr
 8000cca:	bf00      	nop
 8000ccc:	08007280 	.word	0x08007280

08000cd0 <LL_DMA_SetPeriphSize>:
  *         @arg @ref LL_DMA_PDATAALIGN_HALFWORD
  *         @arg @ref LL_DMA_PDATAALIGN_WORD
  * @retval None
  */
__STATIC_INLINE void LL_DMA_SetPeriphSize(DMA_TypeDef *DMAx, uint32_t Channel, uint32_t PeriphOrM2MSrcDataSize)
{
 8000cd0:	b480      	push	{r7}
 8000cd2:	b087      	sub	sp, #28
 8000cd4:	af00      	add	r7, sp, #0
 8000cd6:	60f8      	str	r0, [r7, #12]
 8000cd8:	60b9      	str	r1, [r7, #8]
 8000cda:	607a      	str	r2, [r7, #4]
  uint32_t dma_base_addr = (uint32_t)DMAx;
 8000cdc:	68fb      	ldr	r3, [r7, #12]
 8000cde:	617b      	str	r3, [r7, #20]
  MODIFY_REG(((DMA_Channel_TypeDef *)((uint32_t)(dma_base_addr + CHANNEL_OFFSET_TAB[Channel])))->CCR, DMA_CCR_PSIZE,
 8000ce0:	4a0d      	ldr	r2, [pc, #52]	@ (8000d18 <LL_DMA_SetPeriphSize+0x48>)
 8000ce2:	68bb      	ldr	r3, [r7, #8]
 8000ce4:	4413      	add	r3, r2
 8000ce6:	781b      	ldrb	r3, [r3, #0]
 8000ce8:	461a      	mov	r2, r3
 8000cea:	697b      	ldr	r3, [r7, #20]
 8000cec:	4413      	add	r3, r2
 8000cee:	681b      	ldr	r3, [r3, #0]
 8000cf0:	f423 7240 	bic.w	r2, r3, #768	@ 0x300
 8000cf4:	4908      	ldr	r1, [pc, #32]	@ (8000d18 <LL_DMA_SetPeriphSize+0x48>)
 8000cf6:	68bb      	ldr	r3, [r7, #8]
 8000cf8:	440b      	add	r3, r1
 8000cfa:	781b      	ldrb	r3, [r3, #0]
 8000cfc:	4619      	mov	r1, r3
 8000cfe:	697b      	ldr	r3, [r7, #20]
 8000d00:	440b      	add	r3, r1
 8000d02:	4619      	mov	r1, r3
 8000d04:	687b      	ldr	r3, [r7, #4]
 8000d06:	4313      	orrs	r3, r2
 8000d08:	600b      	str	r3, [r1, #0]
             PeriphOrM2MSrcDataSize);
}
 8000d0a:	bf00      	nop
 8000d0c:	371c      	adds	r7, #28
 8000d0e:	46bd      	mov	sp, r7
 8000d10:	f85d 7b04 	ldr.w	r7, [sp], #4
 8000d14:	4770      	bx	lr
 8000d16:	bf00      	nop
 8000d18:	08007280 	.word	0x08007280

08000d1c <LL_DMA_SetMemorySize>:
  *         @arg @ref LL_DMA_MDATAALIGN_HALFWORD
  *         @arg @ref LL_DMA_MDATAALIGN_WORD
  * @retval None
  */
__STATIC_INLINE void LL_DMA_SetMemorySize(DMA_TypeDef *DMAx, uint32_t Channel, uint32_t MemoryOrM2MDstDataSize)
{
 8000d1c:	b480      	push	{r7}
 8000d1e:	b087      	sub	sp, #28
 8000d20:	af00      	add	r7, sp, #0
 8000d22:	60f8      	str	r0, [r7, #12]
 8000d24:	60b9      	str	r1, [r7, #8]
 8000d26:	607a      	str	r2, [r7, #4]
  uint32_t dma_base_addr = (uint32_t)DMAx;
 8000d28:	68fb      	ldr	r3, [r7, #12]
 8000d2a:	617b      	str	r3, [r7, #20]
  MODIFY_REG(((DMA_Channel_TypeDef *)((uint32_t)(dma_base_addr + CHANNEL_OFFSET_TAB[Channel])))->CCR, DMA_CCR_MSIZE,
 8000d2c:	4a0d      	ldr	r2, [pc, #52]	@ (8000d64 <LL_DMA_SetMemorySize+0x48>)
 8000d2e:	68bb      	ldr	r3, [r7, #8]
 8000d30:	4413      	add	r3, r2
 8000d32:	781b      	ldrb	r3, [r3, #0]
 8000d34:	461a      	mov	r2, r3
 8000d36:	697b      	ldr	r3, [r7, #20]
 8000d38:	4413      	add	r3, r2
 8000d3a:	681b      	ldr	r3, [r3, #0]
 8000d3c:	f423 6240 	bic.w	r2, r3, #3072	@ 0xc00
 8000d40:	4908      	ldr	r1, [pc, #32]	@ (8000d64 <LL_DMA_SetMemorySize+0x48>)
 8000d42:	68bb      	ldr	r3, [r7, #8]
 8000d44:	440b      	add	r3, r1
 8000d46:	781b      	ldrb	r3, [r3, #0]
 8000d48:	4619      	mov	r1, r3
 8000d4a:	697b      	ldr	r3, [r7, #20]
 8000d4c:	440b      	add	r3, r1
 8000d4e:	4619      	mov	r1, r3
 8000d50:	687b      	ldr	r3, [r7, #4]
 8000d52:	4313      	orrs	r3, r2
 8000d54:	600b      	str	r3, [r1, #0]
             MemoryOrM2MDstDataSize);
}
 8000d56:	bf00      	nop
 8000d58:	371c      	adds	r7, #28
 8000d5a:	46bd      	mov	sp, r7
 8000d5c:	f85d 7b04 	ldr.w	r7, [sp], #4
 8000d60:	4770      	bx	lr
 8000d62:	bf00      	nop
 8000d64:	08007280 	.word	0x08007280

08000d68 <LL_DMA_SetChannelPriorityLevel>:
  *         @arg @ref LL_DMA_PRIORITY_HIGH
  *         @arg @ref LL_DMA_PRIORITY_VERYHIGH
  * @retval None
  */
__STATIC_INLINE void LL_DMA_SetChannelPriorityLevel(DMA_TypeDef *DMAx, uint32_t Channel, uint32_t Priority)
{
 8000d68:	b480      	push	{r7}
 8000d6a:	b087      	sub	sp, #28
 8000d6c:	af00      	add	r7, sp, #0
 8000d6e:	60f8      	str	r0, [r7, #12]
 8000d70:	60b9      	str	r1, [r7, #8]
 8000d72:	607a      	str	r2, [r7, #4]
  uint32_t dma_base_addr = (uint32_t)DMAx;
 8000d74:	68fb      	ldr	r3, [r7, #12]
 8000d76:	617b      	str	r3, [r7, #20]
  MODIFY_REG(((DMA_Channel_TypeDef *)((uint32_t)(dma_base_addr + CHANNEL_OFFSET_TAB[Channel])))->CCR, DMA_CCR_PL,
 8000d78:	4a0d      	ldr	r2, [pc, #52]	@ (8000db0 <LL_DMA_SetChannelPriorityLevel+0x48>)
 8000d7a:	68bb      	ldr	r3, [r7, #8]
 8000d7c:	4413      	add	r3, r2
 8000d7e:	781b      	ldrb	r3, [r3, #0]
 8000d80:	461a      	mov	r2, r3
 8000d82:	697b      	ldr	r3, [r7, #20]
 8000d84:	4413      	add	r3, r2
 8000d86:	681b      	ldr	r3, [r3, #0]
 8000d88:	f423 5240 	bic.w	r2, r3, #12288	@ 0x3000
 8000d8c:	4908      	ldr	r1, [pc, #32]	@ (8000db0 <LL_DMA_SetChannelPriorityLevel+0x48>)
 8000d8e:	68bb      	ldr	r3, [r7, #8]
 8000d90:	440b      	add	r3, r1
 8000d92:	781b      	ldrb	r3, [r3, #0]
 8000d94:	4619      	mov	r1, r3
 8000d96:	697b      	ldr	r3, [r7, #20]
 8000d98:	440b      	add	r3, r1
 8000d9a:	4619      	mov	r1, r3
 8000d9c:	687b      	ldr	r3, [r7, #4]
 8000d9e:	4313      	orrs	r3, r2
 8000da0:	600b      	str	r3, [r1, #0]
             Priority);
}
 8000da2:	bf00      	nop
 8000da4:	371c      	adds	r7, #28
 8000da6:	46bd      	mov	sp, r7
 8000da8:	f85d 7b04 	ldr.w	r7, [sp], #4
 8000dac:	4770      	bx	lr
 8000dae:	bf00      	nop
 8000db0:	08007280 	.word	0x08007280

08000db4 <LL_DMA_SetDataLength>:
  *         (*) Not on all G4 devices
  * @param  NbData Between Min_Data = 0 and Max_Data = 0x0000FFFF
  * @retval None
  */
__STATIC_INLINE void LL_DMA_SetDataLength(DMA_TypeDef *DMAx, uint32_t Channel, uint32_t NbData)
{
 8000db4:	b480      	push	{r7}
 8000db6:	b087      	sub	sp, #28
 8000db8:	af00      	add	r7, sp, #0
 8000dba:	60f8      	str	r0, [r7, #12]
 8000dbc:	60b9      	str	r1, [r7, #8]
 8000dbe:	607a      	str	r2, [r7, #4]
  uint32_t dma_base_addr = (uint32_t)DMAx;
 8000dc0:	68fb      	ldr	r3, [r7, #12]
 8000dc2:	617b      	str	r3, [r7, #20]
  MODIFY_REG(((DMA_Channel_TypeDef *)((uint32_t)(dma_base_addr + CHANNEL_OFFSET_TAB[Channel])))->CNDTR,
 8000dc4:	4a0d      	ldr	r2, [pc, #52]	@ (8000dfc <LL_DMA_SetDataLength+0x48>)
 8000dc6:	68bb      	ldr	r3, [r7, #8]
 8000dc8:	4413      	add	r3, r2
 8000dca:	781b      	ldrb	r3, [r3, #0]
 8000dcc:	461a      	mov	r2, r3
 8000dce:	697b      	ldr	r3, [r7, #20]
 8000dd0:	4413      	add	r3, r2
 8000dd2:	685b      	ldr	r3, [r3, #4]
 8000dd4:	0c1b      	lsrs	r3, r3, #16
 8000dd6:	041b      	lsls	r3, r3, #16
 8000dd8:	4908      	ldr	r1, [pc, #32]	@ (8000dfc <LL_DMA_SetDataLength+0x48>)
 8000dda:	68ba      	ldr	r2, [r7, #8]
 8000ddc:	440a      	add	r2, r1
 8000dde:	7812      	ldrb	r2, [r2, #0]
 8000de0:	4611      	mov	r1, r2
 8000de2:	697a      	ldr	r2, [r7, #20]
 8000de4:	440a      	add	r2, r1
 8000de6:	4611      	mov	r1, r2
 8000de8:	687a      	ldr	r2, [r7, #4]
 8000dea:	4313      	orrs	r3, r2
 8000dec:	604b      	str	r3, [r1, #4]
             DMA_CNDTR_NDT, NbData);
}
 8000dee:	bf00      	nop
 8000df0:	371c      	adds	r7, #28
 8000df2:	46bd      	mov	sp, r7
 8000df4:	f85d 7b04 	ldr.w	r7, [sp], #4
 8000df8:	4770      	bx	lr
 8000dfa:	bf00      	nop
 8000dfc:	08007280 	.word	0x08007280

08000e00 <LL_DMA_SetMemoryAddress>:
  *         (*) Not on all G4 devices
  * @param  MemoryAddress Between Min_Data = 0 and Max_Data = 0xFFFFFFFF
  * @retval None
  */
__STATIC_INLINE void LL_DMA_SetMemoryAddress(DMA_TypeDef *DMAx, uint32_t Channel, uint32_t MemoryAddress)
{
 8000e00:	b480      	push	{r7}
 8000e02:	b087      	sub	sp, #28
 8000e04:	af00      	add	r7, sp, #0
 8000e06:	60f8      	str	r0, [r7, #12]
 8000e08:	60b9      	str	r1, [r7, #8]
 8000e0a:	607a      	str	r2, [r7, #4]
  uint32_t dma_base_addr = (uint32_t)DMAx;
 8000e0c:	68fb      	ldr	r3, [r7, #12]
 8000e0e:	617b      	str	r3, [r7, #20]
  WRITE_REG(((DMA_Channel_TypeDef *)((uint32_t)(dma_base_addr + CHANNEL_OFFSET_TAB[Channel])))->CMAR, MemoryAddress);
 8000e10:	4a07      	ldr	r2, [pc, #28]	@ (8000e30 <LL_DMA_SetMemoryAddress+0x30>)
 8000e12:	68bb      	ldr	r3, [r7, #8]
 8000e14:	4413      	add	r3, r2
 8000e16:	781b      	ldrb	r3, [r3, #0]
 8000e18:	461a      	mov	r2, r3
 8000e1a:	697b      	ldr	r3, [r7, #20]
 8000e1c:	4413      	add	r3, r2
 8000e1e:	461a      	mov	r2, r3
 8000e20:	687b      	ldr	r3, [r7, #4]
 8000e22:	60d3      	str	r3, [r2, #12]
}
 8000e24:	bf00      	nop
 8000e26:	371c      	adds	r7, #28
 8000e28:	46bd      	mov	sp, r7
 8000e2a:	f85d 7b04 	ldr.w	r7, [sp], #4
 8000e2e:	4770      	bx	lr
 8000e30:	08007280 	.word	0x08007280

08000e34 <LL_DMA_SetPeriphAddress>:
  *         (*) Not on all G4 devices
  * @param  PeriphAddress Between Min_Data = 0 and Max_Data = 0xFFFFFFFF
  * @retval None
  */
__STATIC_INLINE void LL_DMA_SetPeriphAddress(DMA_TypeDef *DMAx, uint32_t Channel, uint32_t PeriphAddress)
{
 8000e34:	b480      	push	{r7}
 8000e36:	b087      	sub	sp, #28
 8000e38:	af00      	add	r7, sp, #0
 8000e3a:	60f8      	str	r0, [r7, #12]
 8000e3c:	60b9      	str	r1, [r7, #8]
 8000e3e:	607a      	str	r2, [r7, #4]
  uint32_t dma_base_addr = (uint32_t)DMAx;
 8000e40:	68fb      	ldr	r3, [r7, #12]
 8000e42:	617b      	str	r3, [r7, #20]
  WRITE_REG(((DMA_Channel_TypeDef *)((uint32_t)(dma_base_addr + CHANNEL_OFFSET_TAB[Channel])))->CPAR, PeriphAddress);
 8000e44:	4a07      	ldr	r2, [pc, #28]	@ (8000e64 <LL_DMA_SetPeriphAddress+0x30>)
 8000e46:	68bb      	ldr	r3, [r7, #8]
 8000e48:	4413      	add	r3, r2
 8000e4a:	781b      	ldrb	r3, [r3, #0]
 8000e4c:	461a      	mov	r2, r3
 8000e4e:	697b      	ldr	r3, [r7, #20]
 8000e50:	4413      	add	r3, r2
 8000e52:	461a      	mov	r2, r3
 8000e54:	687b      	ldr	r3, [r7, #4]
 8000e56:	6093      	str	r3, [r2, #8]
}
 8000e58:	bf00      	nop
 8000e5a:	371c      	adds	r7, #28
 8000e5c:	46bd      	mov	sp, r7
 8000e5e:	f85d 7b04 	ldr.w	r7, [sp], #4
 8000e62:	4770      	bx	lr
 8000e64:	08007280 	.word	0x08007280

08000e68 <LL_DMA_SetPeriphRequest>:
  *         @arg @ref LL_DMAMUX_REQ_UCPD1_TX
  *         (*) Not on all G4 devices
  * @retval None
  */
__STATIC_INLINE void LL_DMA_SetPeriphRequest(DMA_TypeDef *DMAx, uint32_t Channel, uint32_t PeriphRequest)
{
 8000e68:	b480      	push	{r7}
 8000e6a:	b087      	sub	sp, #28
 8000e6c:	af00      	add	r7, sp, #0
 8000e6e:	60f8      	str	r0, [r7, #12]
 8000e70:	60b9      	str	r1, [r7, #8]
 8000e72:	607a      	str	r2, [r7, #4]
  uint32_t dmamux_ccr_offset = ((((uint32_t)DMAx ^ (uint32_t)DMA1) >> 10U) * 8U);
 8000e74:	68fb      	ldr	r3, [r7, #12]
 8000e76:	0a9b      	lsrs	r3, r3, #10
 8000e78:	f483 1380 	eor.w	r3, r3, #1048576	@ 0x100000
 8000e7c:	f083 0380 	eor.w	r3, r3, #128	@ 0x80
 8000e80:	00db      	lsls	r3, r3, #3
 8000e82:	617b      	str	r3, [r7, #20]
  MODIFY_REG((DMAMUX1_Channel0 + Channel + dmamux_ccr_offset)->CCR, DMAMUX_CxCR_DMAREQ_ID, PeriphRequest);
 8000e84:	68ba      	ldr	r2, [r7, #8]
 8000e86:	697b      	ldr	r3, [r7, #20]
 8000e88:	4413      	add	r3, r2
 8000e8a:	009b      	lsls	r3, r3, #2
 8000e8c:	f103 4380 	add.w	r3, r3, #1073741824	@ 0x40000000
 8000e90:	f503 3302 	add.w	r3, r3, #133120	@ 0x20800
 8000e94:	681b      	ldr	r3, [r3, #0]
 8000e96:	f023 017f 	bic.w	r1, r3, #127	@ 0x7f
 8000e9a:	68ba      	ldr	r2, [r7, #8]
 8000e9c:	697b      	ldr	r3, [r7, #20]
 8000e9e:	4413      	add	r3, r2
 8000ea0:	009b      	lsls	r3, r3, #2
 8000ea2:	f103 4380 	add.w	r3, r3, #1073741824	@ 0x40000000
 8000ea6:	f503 3302 	add.w	r3, r3, #133120	@ 0x20800
 8000eaa:	687a      	ldr	r2, [r7, #4]
 8000eac:	430a      	orrs	r2, r1
 8000eae:	601a      	str	r2, [r3, #0]
}
 8000eb0:	bf00      	nop
 8000eb2:	371c      	adds	r7, #28
 8000eb4:	46bd      	mov	sp, r7
 8000eb6:	f85d 7b04 	ldr.w	r7, [sp], #4
 8000eba:	4770      	bx	lr

08000ebc <LL_DMA_EnableIT_TC>:
  *         @arg @ref LL_DMA_CHANNEL_8 (*)
  *         (*) Not on all G4 devices
  * @retval None
  */
__STATIC_INLINE void LL_DMA_EnableIT_TC(DMA_TypeDef *DMAx, uint32_t Channel)
{
 8000ebc:	b480      	push	{r7}
 8000ebe:	b085      	sub	sp, #20
 8000ec0:	af00      	add	r7, sp, #0
 8000ec2:	6078      	str	r0, [r7, #4]
 8000ec4:	6039      	str	r1, [r7, #0]
  uint32_t dma_base_addr = (uint32_t)DMAx;
 8000ec6:	687b      	ldr	r3, [r7, #4]
 8000ec8:	60fb      	str	r3, [r7, #12]
  SET_BIT(((DMA_Channel_TypeDef *)((uint32_t)(dma_base_addr + CHANNEL_OFFSET_TAB[Channel])))->CCR, DMA_CCR_TCIE);
 8000eca:	4a0c      	ldr	r2, [pc, #48]	@ (8000efc <LL_DMA_EnableIT_TC+0x40>)
 8000ecc:	683b      	ldr	r3, [r7, #0]
 8000ece:	4413      	add	r3, r2
 8000ed0:	781b      	ldrb	r3, [r3, #0]
 8000ed2:	461a      	mov	r2, r3
 8000ed4:	68fb      	ldr	r3, [r7, #12]
 8000ed6:	4413      	add	r3, r2
 8000ed8:	681b      	ldr	r3, [r3, #0]
 8000eda:	4908      	ldr	r1, [pc, #32]	@ (8000efc <LL_DMA_EnableIT_TC+0x40>)
 8000edc:	683a      	ldr	r2, [r7, #0]
 8000ede:	440a      	add	r2, r1
 8000ee0:	7812      	ldrb	r2, [r2, #0]
 8000ee2:	4611      	mov	r1, r2
 8000ee4:	68fa      	ldr	r2, [r7, #12]
 8000ee6:	440a      	add	r2, r1
 8000ee8:	f043 0302 	orr.w	r3, r3, #2
 8000eec:	6013      	str	r3, [r2, #0]
}
 8000eee:	bf00      	nop
 8000ef0:	3714      	adds	r7, #20
 8000ef2:	46bd      	mov	sp, r7
 8000ef4:	f85d 7b04 	ldr.w	r7, [sp], #4
 8000ef8:	4770      	bx	lr
 8000efa:	bf00      	nop
 8000efc:	08007280 	.word	0x08007280

08000f00 <LL_DMA_EnableIT_HT>:
  *         @arg @ref LL_DMA_CHANNEL_8 (*)
  *         (*) Not on all G4 devices
  * @retval None
  */
__STATIC_INLINE void LL_DMA_EnableIT_HT(DMA_TypeDef *DMAx, uint32_t Channel)
{
 8000f00:	b480      	push	{r7}
 8000f02:	b085      	sub	sp, #20
 8000f04:	af00      	add	r7, sp, #0
 8000f06:	6078      	str	r0, [r7, #4]
 8000f08:	6039      	str	r1, [r7, #0]
  uint32_t dma_base_addr = (uint32_t)DMAx;
 8000f0a:	687b      	ldr	r3, [r7, #4]
 8000f0c:	60fb      	str	r3, [r7, #12]
  SET_BIT(((DMA_Channel_TypeDef *)((uint32_t)(dma_base_addr + CHANNEL_OFFSET_TAB[Channel])))->CCR, DMA_CCR_HTIE);
 8000f0e:	4a0c      	ldr	r2, [pc, #48]	@ (8000f40 <LL_DMA_EnableIT_HT+0x40>)
 8000f10:	683b      	ldr	r3, [r7, #0]
 8000f12:	4413      	add	r3, r2
 8000f14:	781b      	ldrb	r3, [r3, #0]
 8000f16:	461a      	mov	r2, r3
 8000f18:	68fb      	ldr	r3, [r7, #12]
 8000f1a:	4413      	add	r3, r2
 8000f1c:	681b      	ldr	r3, [r3, #0]
 8000f1e:	4908      	ldr	r1, [pc, #32]	@ (8000f40 <LL_DMA_EnableIT_HT+0x40>)
 8000f20:	683a      	ldr	r2, [r7, #0]
 8000f22:	440a      	add	r2, r1
 8000f24:	7812      	ldrb	r2, [r2, #0]
 8000f26:	4611      	mov	r1, r2
 8000f28:	68fa      	ldr	r2, [r7, #12]
 8000f2a:	440a      	add	r2, r1
 8000f2c:	f043 0304 	orr.w	r3, r3, #4
 8000f30:	6013      	str	r3, [r2, #0]
}
 8000f32:	bf00      	nop
 8000f34:	3714      	adds	r7, #20
 8000f36:	46bd      	mov	sp, r7
 8000f38:	f85d 7b04 	ldr.w	r7, [sp], #4
 8000f3c:	4770      	bx	lr
 8000f3e:	bf00      	nop
 8000f40:	08007280 	.word	0x08007280

08000f44 <LL_RCC_HSI_Enable>:
  * @brief  Enable HSI oscillator
  * @rmtoll CR           HSION         LL_RCC_HSI_Enable
  * @retval None
  */
__STATIC_INLINE void LL_RCC_HSI_Enable(void)
{
 8000f44:	b480      	push	{r7}
 8000f46:	af00      	add	r7, sp, #0
  SET_BIT(RCC->CR, RCC_CR_HSION);
 8000f48:	4b05      	ldr	r3, [pc, #20]	@ (8000f60 <LL_RCC_HSI_Enable+0x1c>)
 8000f4a:	681b      	ldr	r3, [r3, #0]
 8000f4c:	4a04      	ldr	r2, [pc, #16]	@ (8000f60 <LL_RCC_HSI_Enable+0x1c>)
 8000f4e:	f443 7380 	orr.w	r3, r3, #256	@ 0x100
 8000f52:	6013      	str	r3, [r2, #0]
}
 8000f54:	bf00      	nop
 8000f56:	46bd      	mov	sp, r7
 8000f58:	f85d 7b04 	ldr.w	r7, [sp], #4
 8000f5c:	4770      	bx	lr
 8000f5e:	bf00      	nop
 8000f60:	40021000 	.word	0x40021000

08000f64 <LL_RCC_HSI_IsReady>:
  * @brief  Check if HSI clock is ready
  * @rmtoll CR           HSIRDY        LL_RCC_HSI_IsReady
  * @retval State of bit (1 or 0).
  */
__STATIC_INLINE uint32_t LL_RCC_HSI_IsReady(void)
{
 8000f64:	b480      	push	{r7}
 8000f66:	af00      	add	r7, sp, #0
  return ((READ_BIT(RCC->CR, RCC_CR_HSIRDY) == (RCC_CR_HSIRDY)) ? 1UL : 0UL);
 8000f68:	4b07      	ldr	r3, [pc, #28]	@ (8000f88 <LL_RCC_HSI_IsReady+0x24>)
 8000f6a:	681b      	ldr	r3, [r3, #0]
 8000f6c:	f403 6380 	and.w	r3, r3, #1024	@ 0x400
 8000f70:	f5b3 6f80 	cmp.w	r3, #1024	@ 0x400
 8000f74:	d101      	bne.n	8000f7a <LL_RCC_HSI_IsReady+0x16>
 8000f76:	2301      	movs	r3, #1
 8000f78:	e000      	b.n	8000f7c <LL_RCC_HSI_IsReady+0x18>
 8000f7a:	2300      	movs	r3, #0
}
 8000f7c:	4618      	mov	r0, r3
 8000f7e:	46bd      	mov	sp, r7
 8000f80:	f85d 7b04 	ldr.w	r7, [sp], #4
 8000f84:	4770      	bx	lr
 8000f86:	bf00      	nop
 8000f88:	40021000 	.word	0x40021000

08000f8c <LL_RCC_HSI_SetCalibTrimming>:
  * @rmtoll ICSCR        HSITRIM       LL_RCC_HSI_SetCalibTrimming
  * @param  Value Between Min_Data = 0 and Max_Data = 127
  * @retval None
  */
__STATIC_INLINE void LL_RCC_HSI_SetCalibTrimming(uint32_t Value)
{
 8000f8c:	b480      	push	{r7}
 8000f8e:	b083      	sub	sp, #12
 8000f90:	af00      	add	r7, sp, #0
 8000f92:	6078      	str	r0, [r7, #4]
  MODIFY_REG(RCC->ICSCR, RCC_ICSCR_HSITRIM, Value << RCC_ICSCR_HSITRIM_Pos);
 8000f94:	4b07      	ldr	r3, [pc, #28]	@ (8000fb4 <LL_RCC_HSI_SetCalibTrimming+0x28>)
 8000f96:	685b      	ldr	r3, [r3, #4]
 8000f98:	f023 42fe 	bic.w	r2, r3, #2130706432	@ 0x7f000000
 8000f9c:	687b      	ldr	r3, [r7, #4]
 8000f9e:	061b      	lsls	r3, r3, #24
 8000fa0:	4904      	ldr	r1, [pc, #16]	@ (8000fb4 <LL_RCC_HSI_SetCalibTrimming+0x28>)
 8000fa2:	4313      	orrs	r3, r2
 8000fa4:	604b      	str	r3, [r1, #4]
}
 8000fa6:	bf00      	nop
 8000fa8:	370c      	adds	r7, #12
 8000faa:	46bd      	mov	sp, r7
 8000fac:	f85d 7b04 	ldr.w	r7, [sp], #4
 8000fb0:	4770      	bx	lr
 8000fb2:	bf00      	nop
 8000fb4:	40021000 	.word	0x40021000

08000fb8 <LL_RCC_SetSysClkSource>:
  *         @arg @ref LL_RCC_SYS_CLKSOURCE_HSE
  *         @arg @ref LL_RCC_SYS_CLKSOURCE_PLL
  * @retval None
  */
__STATIC_INLINE void LL_RCC_SetSysClkSource(uint32_t Source)
{
 8000fb8:	b480      	push	{r7}
 8000fba:	b083      	sub	sp, #12
 8000fbc:	af00      	add	r7, sp, #0
 8000fbe:	6078      	str	r0, [r7, #4]
  MODIFY_REG(RCC->CFGR, RCC_CFGR_SW, Source);
 8000fc0:	4b06      	ldr	r3, [pc, #24]	@ (8000fdc <LL_RCC_SetSysClkSource+0x24>)
 8000fc2:	689b      	ldr	r3, [r3, #8]
 8000fc4:	f023 0203 	bic.w	r2, r3, #3
 8000fc8:	4904      	ldr	r1, [pc, #16]	@ (8000fdc <LL_RCC_SetSysClkSource+0x24>)
 8000fca:	687b      	ldr	r3, [r7, #4]
 8000fcc:	4313      	orrs	r3, r2
 8000fce:	608b      	str	r3, [r1, #8]
}
 8000fd0:	bf00      	nop
 8000fd2:	370c      	adds	r7, #12
 8000fd4:	46bd      	mov	sp, r7
 8000fd6:	f85d 7b04 	ldr.w	r7, [sp], #4
 8000fda:	4770      	bx	lr
 8000fdc:	40021000 	.word	0x40021000

08000fe0 <LL_RCC_GetSysClkSource>:
  *         @arg @ref LL_RCC_SYS_CLKSOURCE_STATUS_HSI
  *         @arg @ref LL_RCC_SYS_CLKSOURCE_STATUS_HSE
  *         @arg @ref LL_RCC_SYS_CLKSOURCE_STATUS_PLL
  */
__STATIC_INLINE uint32_t LL_RCC_GetSysClkSource(void)
{
 8000fe0:	b480      	push	{r7}
 8000fe2:	af00      	add	r7, sp, #0
  return (uint32_t)(READ_BIT(RCC->CFGR, RCC_CFGR_SWS));
 8000fe4:	4b04      	ldr	r3, [pc, #16]	@ (8000ff8 <LL_RCC_GetSysClkSource+0x18>)
 8000fe6:	689b      	ldr	r3, [r3, #8]
 8000fe8:	f003 030c 	and.w	r3, r3, #12
}
 8000fec:	4618      	mov	r0, r3
 8000fee:	46bd      	mov	sp, r7
 8000ff0:	f85d 7b04 	ldr.w	r7, [sp], #4
 8000ff4:	4770      	bx	lr
 8000ff6:	bf00      	nop
 8000ff8:	40021000 	.word	0x40021000

08000ffc <LL_RCC_SetAHBPrescaler>:
  *         @arg @ref LL_RCC_SYSCLK_DIV_256
  *         @arg @ref LL_RCC_SYSCLK_DIV_512
  * @retval None
  */
__STATIC_INLINE void LL_RCC_SetAHBPrescaler(uint32_t Prescaler)
{
 8000ffc:	b480      	push	{r7}
 8000ffe:	b083      	sub	sp, #12
 8001000:	af00      	add	r7, sp, #0
 8001002:	6078      	str	r0, [r7, #4]
  MODIFY_REG(RCC->CFGR, RCC_CFGR_HPRE, Prescaler);
 8001004:	4b06      	ldr	r3, [pc, #24]	@ (8001020 <LL_RCC_SetAHBPrescaler+0x24>)
 8001006:	689b      	ldr	r3, [r3, #8]
 8001008:	f023 02f0 	bic.w	r2, r3, #240	@ 0xf0
 800100c:	4904      	ldr	r1, [pc, #16]	@ (8001020 <LL_RCC_SetAHBPrescaler+0x24>)
 800100e:	687b      	ldr	r3, [r7, #4]
 8001010:	4313      	orrs	r3, r2
 8001012:	608b      	str	r3, [r1, #8]
}
 8001014:	bf00      	nop
 8001016:	370c      	adds	r7, #12
 8001018:	46bd      	mov	sp, r7
 800101a:	f85d 7b04 	ldr.w	r7, [sp], #4
 800101e:	4770      	bx	lr
 8001020:	40021000 	.word	0x40021000

08001024 <LL_RCC_SetAPB1Prescaler>:
  *         @arg @ref LL_RCC_APB1_DIV_8
  *         @arg @ref LL_RCC_APB1_DIV_16
  * @retval None
  */
__STATIC_INLINE void LL_RCC_SetAPB1Prescaler(uint32_t Prescaler)
{
 8001024:	b480      	push	{r7}
 8001026:	b083      	sub	sp, #12
 8001028:	af00      	add	r7, sp, #0
 800102a:	6078      	str	r0, [r7, #4]
  MODIFY_REG(RCC->CFGR, RCC_CFGR_PPRE1, Prescaler);
 800102c:	4b06      	ldr	r3, [pc, #24]	@ (8001048 <LL_RCC_SetAPB1Prescaler+0x24>)
 800102e:	689b      	ldr	r3, [r3, #8]
 8001030:	f423 62e0 	bic.w	r2, r3, #1792	@ 0x700
 8001034:	4904      	ldr	r1, [pc, #16]	@ (8001048 <LL_RCC_SetAPB1Prescaler+0x24>)
 8001036:	687b      	ldr	r3, [r7, #4]
 8001038:	4313      	orrs	r3, r2
 800103a:	608b      	str	r3, [r1, #8]
}
 800103c:	bf00      	nop
 800103e:	370c      	adds	r7, #12
 8001040:	46bd      	mov	sp, r7
 8001042:	f85d 7b04 	ldr.w	r7, [sp], #4
 8001046:	4770      	bx	lr
 8001048:	40021000 	.word	0x40021000

0800104c <LL_RCC_SetAPB2Prescaler>:
  *         @arg @ref LL_RCC_APB2_DIV_8
  *         @arg @ref LL_RCC_APB2_DIV_16
  * @retval None
  */
__STATIC_INLINE void LL_RCC_SetAPB2Prescaler(uint32_t Prescaler)
{
 800104c:	b480      	push	{r7}
 800104e:	b083      	sub	sp, #12
 8001050:	af00      	add	r7, sp, #0
 8001052:	6078      	str	r0, [r7, #4]
  MODIFY_REG(RCC->CFGR, RCC_CFGR_PPRE2, Prescaler);
 8001054:	4b06      	ldr	r3, [pc, #24]	@ (8001070 <LL_RCC_SetAPB2Prescaler+0x24>)
 8001056:	689b      	ldr	r3, [r3, #8]
 8001058:	f423 5260 	bic.w	r2, r3, #14336	@ 0x3800
 800105c:	4904      	ldr	r1, [pc, #16]	@ (8001070 <LL_RCC_SetAPB2Prescaler+0x24>)
 800105e:	687b      	ldr	r3, [r7, #4]
 8001060:	4313      	orrs	r3, r2
 8001062:	608b      	str	r3, [r1, #8]
}
 8001064:	bf00      	nop
 8001066:	370c      	adds	r7, #12
 8001068:	46bd      	mov	sp, r7
 800106a:	f85d 7b04 	ldr.w	r7, [sp], #4
 800106e:	4770      	bx	lr
 8001070:	40021000 	.word	0x40021000

08001074 <LL_RCC_SetUARTClockSource>:
  *
  *         (*) value not defined in all devices.
  * @retval None
  */
__STATIC_INLINE void LL_RCC_SetUARTClockSource(uint32_t UARTxSource)
{
 8001074:	b480      	push	{r7}
 8001076:	b083      	sub	sp, #12
 8001078:	af00      	add	r7, sp, #0
 800107a:	6078      	str	r0, [r7, #4]
  MODIFY_REG(RCC->CCIPR, (UARTxSource >> 16U), (UARTxSource & 0x0000FFFFU));
 800107c:	4b09      	ldr	r3, [pc, #36]	@ (80010a4 <LL_RCC_SetUARTClockSource+0x30>)
 800107e:	f8d3 2088 	ldr.w	r2, [r3, #136]	@ 0x88
 8001082:	687b      	ldr	r3, [r7, #4]
 8001084:	0c1b      	lsrs	r3, r3, #16
 8001086:	43db      	mvns	r3, r3
 8001088:	401a      	ands	r2, r3
 800108a:	687b      	ldr	r3, [r7, #4]
 800108c:	b29b      	uxth	r3, r3
 800108e:	4905      	ldr	r1, [pc, #20]	@ (80010a4 <LL_RCC_SetUARTClockSource+0x30>)
 8001090:	4313      	orrs	r3, r2
 8001092:	f8c1 3088 	str.w	r3, [r1, #136]	@ 0x88
}
 8001096:	bf00      	nop
 8001098:	370c      	adds	r7, #12
 800109a:	46bd      	mov	sp, r7
 800109c:	f85d 7b04 	ldr.w	r7, [sp], #4
 80010a0:	4770      	bx	lr
 80010a2:	bf00      	nop
 80010a4:	40021000 	.word	0x40021000

080010a8 <LL_RCC_SetADCClockSource>:
  *
  *         (*) value not defined in all devices.
  * @retval None
  */
__STATIC_INLINE void LL_RCC_SetADCClockSource(uint32_t ADCxSource)
{
 80010a8:	b480      	push	{r7}
 80010aa:	b083      	sub	sp, #12
 80010ac:	af00      	add	r7, sp, #0
 80010ae:	6078      	str	r0, [r7, #4]
  MODIFY_REG(RCC->CCIPR, 3U << ((ADCxSource & 0x001F0000U) >> 16U), ((ADCxSource & 0x000000FFU) << ((ADCxSource & 0x001F0000U) >> 16U)));
 80010b0:	4b0e      	ldr	r3, [pc, #56]	@ (80010ec <LL_RCC_SetADCClockSource+0x44>)
 80010b2:	f8d3 2088 	ldr.w	r2, [r3, #136]	@ 0x88
 80010b6:	687b      	ldr	r3, [r7, #4]
 80010b8:	0c1b      	lsrs	r3, r3, #16
 80010ba:	f003 031f 	and.w	r3, r3, #31
 80010be:	2103      	movs	r1, #3
 80010c0:	fa01 f303 	lsl.w	r3, r1, r3
 80010c4:	43db      	mvns	r3, r3
 80010c6:	401a      	ands	r2, r3
 80010c8:	687b      	ldr	r3, [r7, #4]
 80010ca:	b2d9      	uxtb	r1, r3
 80010cc:	687b      	ldr	r3, [r7, #4]
 80010ce:	0c1b      	lsrs	r3, r3, #16
 80010d0:	f003 031f 	and.w	r3, r3, #31
 80010d4:	fa01 f303 	lsl.w	r3, r1, r3
 80010d8:	4904      	ldr	r1, [pc, #16]	@ (80010ec <LL_RCC_SetADCClockSource+0x44>)
 80010da:	4313      	orrs	r3, r2
 80010dc:	f8c1 3088 	str.w	r3, [r1, #136]	@ 0x88
}
 80010e0:	bf00      	nop
 80010e2:	370c      	adds	r7, #12
 80010e4:	46bd      	mov	sp, r7
 80010e6:	f85d 7b04 	ldr.w	r7, [sp], #4
 80010ea:	4770      	bx	lr
 80010ec:	40021000 	.word	0x40021000

080010f0 <LL_RCC_PLL_Enable>:
  * @brief  Enable PLL
  * @rmtoll CR           PLLON         LL_RCC_PLL_Enable
  * @retval None
  */
__STATIC_INLINE void LL_RCC_PLL_Enable(void)
{
 80010f0:	b480      	push	{r7}
 80010f2:	af00      	add	r7, sp, #0
  SET_BIT(RCC->CR, RCC_CR_PLLON);
 80010f4:	4b05      	ldr	r3, [pc, #20]	@ (800110c <LL_RCC_PLL_Enable+0x1c>)
 80010f6:	681b      	ldr	r3, [r3, #0]
 80010f8:	4a04      	ldr	r2, [pc, #16]	@ (800110c <LL_RCC_PLL_Enable+0x1c>)
 80010fa:	f043 7380 	orr.w	r3, r3, #16777216	@ 0x1000000
 80010fe:	6013      	str	r3, [r2, #0]
}
 8001100:	bf00      	nop
 8001102:	46bd      	mov	sp, r7
 8001104:	f85d 7b04 	ldr.w	r7, [sp], #4
 8001108:	4770      	bx	lr
 800110a:	bf00      	nop
 800110c:	40021000 	.word	0x40021000

08001110 <LL_RCC_PLL_IsReady>:
  * @brief  Check if PLL Ready
  * @rmtoll CR           PLLRDY        LL_RCC_PLL_IsReady
  * @retval State of bit (1 or 0).
  */
__STATIC_INLINE uint32_t LL_RCC_PLL_IsReady(void)
{
 8001110:	b480      	push	{r7}
 8001112:	af00      	add	r7, sp, #0
  return ((READ_BIT(RCC->CR, RCC_CR_PLLRDY) == (RCC_CR_PLLRDY)) ? 1UL : 0UL);
 8001114:	4b07      	ldr	r3, [pc, #28]	@ (8001134 <LL_RCC_PLL_IsReady+0x24>)
 8001116:	681b      	ldr	r3, [r3, #0]
 8001118:	f003 7300 	and.w	r3, r3, #33554432	@ 0x2000000
 800111c:	f1b3 7f00 	cmp.w	r3, #33554432	@ 0x2000000
 8001120:	d101      	bne.n	8001126 <LL_RCC_PLL_IsReady+0x16>
 8001122:	2301      	movs	r3, #1
 8001124:	e000      	b.n	8001128 <LL_RCC_PLL_IsReady+0x18>
 8001126:	2300      	movs	r3, #0
}
 8001128:	4618      	mov	r0, r3
 800112a:	46bd      	mov	sp, r7
 800112c:	f85d 7b04 	ldr.w	r7, [sp], #4
 8001130:	4770      	bx	lr
 8001132:	bf00      	nop
 8001134:	40021000 	.word	0x40021000

08001138 <LL_RCC_PLL_ConfigDomain_SYS>:
  *         @arg @ref LL_RCC_PLLR_DIV_6
  *         @arg @ref LL_RCC_PLLR_DIV_8
  * @retval None
  */
__STATIC_INLINE void LL_RCC_PLL_ConfigDomain_SYS(uint32_t Source, uint32_t PLLM, uint32_t PLLN, uint32_t PLLR)
{
 8001138:	b480      	push	{r7}
 800113a:	b085      	sub	sp, #20
 800113c:	af00      	add	r7, sp, #0
 800113e:	60f8      	str	r0, [r7, #12]
 8001140:	60b9      	str	r1, [r7, #8]
 8001142:	607a      	str	r2, [r7, #4]
 8001144:	603b      	str	r3, [r7, #0]
  MODIFY_REG(RCC->PLLCFGR, RCC_PLLCFGR_PLLSRC | RCC_PLLCFGR_PLLM | RCC_PLLCFGR_PLLN | RCC_PLLCFGR_PLLR,
 8001146:	4b0a      	ldr	r3, [pc, #40]	@ (8001170 <LL_RCC_PLL_ConfigDomain_SYS+0x38>)
 8001148:	68da      	ldr	r2, [r3, #12]
 800114a:	4b0a      	ldr	r3, [pc, #40]	@ (8001174 <LL_RCC_PLL_ConfigDomain_SYS+0x3c>)
 800114c:	4013      	ands	r3, r2
 800114e:	68f9      	ldr	r1, [r7, #12]
 8001150:	68ba      	ldr	r2, [r7, #8]
 8001152:	4311      	orrs	r1, r2
 8001154:	687a      	ldr	r2, [r7, #4]
 8001156:	0212      	lsls	r2, r2, #8
 8001158:	4311      	orrs	r1, r2
 800115a:	683a      	ldr	r2, [r7, #0]
 800115c:	430a      	orrs	r2, r1
 800115e:	4904      	ldr	r1, [pc, #16]	@ (8001170 <LL_RCC_PLL_ConfigDomain_SYS+0x38>)
 8001160:	4313      	orrs	r3, r2
 8001162:	60cb      	str	r3, [r1, #12]
             Source | PLLM | (PLLN << RCC_PLLCFGR_PLLN_Pos) | PLLR);
}
 8001164:	bf00      	nop
 8001166:	3714      	adds	r7, #20
 8001168:	46bd      	mov	sp, r7
 800116a:	f85d 7b04 	ldr.w	r7, [sp], #4
 800116e:	4770      	bx	lr
 8001170:	40021000 	.word	0x40021000
 8001174:	f9ff800c 	.word	0xf9ff800c

08001178 <LL_RCC_PLL_EnableDomain_SYS>:
  * @brief  Enable PLL output mapped on SYSCLK domain
  * @rmtoll PLLCFGR      PLLREN        LL_RCC_PLL_EnableDomain_SYS
  * @retval None
  */
__STATIC_INLINE void LL_RCC_PLL_EnableDomain_SYS(void)
{
 8001178:	b480      	push	{r7}
 800117a:	af00      	add	r7, sp, #0
  SET_BIT(RCC->PLLCFGR, RCC_PLLCFGR_PLLREN);
 800117c:	4b05      	ldr	r3, [pc, #20]	@ (8001194 <LL_RCC_PLL_EnableDomain_SYS+0x1c>)
 800117e:	68db      	ldr	r3, [r3, #12]
 8001180:	4a04      	ldr	r2, [pc, #16]	@ (8001194 <LL_RCC_PLL_EnableDomain_SYS+0x1c>)
 8001182:	f043 7380 	orr.w	r3, r3, #16777216	@ 0x1000000
 8001186:	60d3      	str	r3, [r2, #12]
}
 8001188:	bf00      	nop
 800118a:	46bd      	mov	sp, r7
 800118c:	f85d 7b04 	ldr.w	r7, [sp], #4
 8001190:	4770      	bx	lr
 8001192:	bf00      	nop
 8001194:	40021000 	.word	0x40021000

08001198 <LL_AHB1_GRP1_EnableClock>:
  *         @arg @ref LL_AHB1_GRP1_PERIPH_FLASH
  *         @arg @ref LL_AHB1_GRP1_PERIPH_CRC
  * @retval None
  */
__STATIC_INLINE void LL_AHB1_GRP1_EnableClock(uint32_t Periphs)
{
 8001198:	b480      	push	{r7}
 800119a:	b085      	sub	sp, #20
 800119c:	af00      	add	r7, sp, #0
 800119e:	6078      	str	r0, [r7, #4]
  __IO uint32_t tmpreg;
  SET_BIT(RCC->AHB1ENR, Periphs);
 80011a0:	4b08      	ldr	r3, [pc, #32]	@ (80011c4 <LL_AHB1_GRP1_EnableClock+0x2c>)
 80011a2:	6c9a      	ldr	r2, [r3, #72]	@ 0x48
 80011a4:	4907      	ldr	r1, [pc, #28]	@ (80011c4 <LL_AHB1_GRP1_EnableClock+0x2c>)
 80011a6:	687b      	ldr	r3, [r7, #4]
 80011a8:	4313      	orrs	r3, r2
 80011aa:	648b      	str	r3, [r1, #72]	@ 0x48
  /* Delay after an RCC peripheral clock enabling */
  tmpreg = READ_BIT(RCC->AHB1ENR, Periphs);
 80011ac:	4b05      	ldr	r3, [pc, #20]	@ (80011c4 <LL_AHB1_GRP1_EnableClock+0x2c>)
 80011ae:	6c9a      	ldr	r2, [r3, #72]	@ 0x48
 80011b0:	687b      	ldr	r3, [r7, #4]
 80011b2:	4013      	ands	r3, r2
 80011b4:	60fb      	str	r3, [r7, #12]
  (void)tmpreg;
 80011b6:	68fb      	ldr	r3, [r7, #12]
}
 80011b8:	bf00      	nop
 80011ba:	3714      	adds	r7, #20
 80011bc:	46bd      	mov	sp, r7
 80011be:	f85d 7b04 	ldr.w	r7, [sp], #4
 80011c2:	4770      	bx	lr
 80011c4:	40021000 	.word	0x40021000

080011c8 <LL_AHB2_GRP1_EnableClock>:
  *
  *         (*) value not defined in all devices.
  * @retval None
  */
__STATIC_INLINE void LL_AHB2_GRP1_EnableClock(uint32_t Periphs)
{
 80011c8:	b480      	push	{r7}
 80011ca:	b085      	sub	sp, #20
 80011cc:	af00      	add	r7, sp, #0
 80011ce:	6078      	str	r0, [r7, #4]
  __IO uint32_t tmpreg;
  SET_BIT(RCC->AHB2ENR, Periphs);
 80011d0:	4b08      	ldr	r3, [pc, #32]	@ (80011f4 <LL_AHB2_GRP1_EnableClock+0x2c>)
 80011d2:	6cda      	ldr	r2, [r3, #76]	@ 0x4c
 80011d4:	4907      	ldr	r1, [pc, #28]	@ (80011f4 <LL_AHB2_GRP1_EnableClock+0x2c>)
 80011d6:	687b      	ldr	r3, [r7, #4]
 80011d8:	4313      	orrs	r3, r2
 80011da:	64cb      	str	r3, [r1, #76]	@ 0x4c
  /* Delay after an RCC peripheral clock enabling */
  tmpreg = READ_BIT(RCC->AHB2ENR, Periphs);
 80011dc:	4b05      	ldr	r3, [pc, #20]	@ (80011f4 <LL_AHB2_GRP1_EnableClock+0x2c>)
 80011de:	6cda      	ldr	r2, [r3, #76]	@ 0x4c
 80011e0:	687b      	ldr	r3, [r7, #4]
 80011e2:	4013      	ands	r3, r2
 80011e4:	60fb      	str	r3, [r7, #12]
  (void)tmpreg;
 80011e6:	68fb      	ldr	r3, [r7, #12]
}
 80011e8:	bf00      	nop
 80011ea:	3714      	adds	r7, #20
 80011ec:	46bd      	mov	sp, r7
 80011ee:	f85d 7b04 	ldr.w	r7, [sp], #4
 80011f2:	4770      	bx	lr
 80011f4:	40021000 	.word	0x40021000

080011f8 <LL_APB1_GRP1_EnableClock>:
  *
  *         (*) value not defined in all devices.
  * @retval None
  */
__STATIC_INLINE void LL_APB1_GRP1_EnableClock(uint32_t Periphs)
{
 80011f8:	b480      	push	{r7}
 80011fa:	b085      	sub	sp, #20
 80011fc:	af00      	add	r7, sp, #0
 80011fe:	6078      	str	r0, [r7, #4]
  __IO uint32_t tmpreg;
  SET_BIT(RCC->APB1ENR1, Periphs);
 8001200:	4b08      	ldr	r3, [pc, #32]	@ (8001224 <LL_APB1_GRP1_EnableClock+0x2c>)
 8001202:	6d9a      	ldr	r2, [r3, #88]	@ 0x58
 8001204:	4907      	ldr	r1, [pc, #28]	@ (8001224 <LL_APB1_GRP1_EnableClock+0x2c>)
 8001206:	687b      	ldr	r3, [r7, #4]
 8001208:	4313      	orrs	r3, r2
 800120a:	658b      	str	r3, [r1, #88]	@ 0x58
  /* Delay after an RCC peripheral clock enabling */
  tmpreg = READ_BIT(RCC->APB1ENR1, Periphs);
 800120c:	4b05      	ldr	r3, [pc, #20]	@ (8001224 <LL_APB1_GRP1_EnableClock+0x2c>)
 800120e:	6d9a      	ldr	r2, [r3, #88]	@ 0x58
 8001210:	687b      	ldr	r3, [r7, #4]
 8001212:	4013      	ands	r3, r2
 8001214:	60fb      	str	r3, [r7, #12]
  (void)tmpreg;
 8001216:	68fb      	ldr	r3, [r7, #12]
}
 8001218:	bf00      	nop
 800121a:	3714      	adds	r7, #20
 800121c:	46bd      	mov	sp, r7
 800121e:	f85d 7b04 	ldr.w	r7, [sp], #4
 8001222:	4770      	bx	lr
 8001224:	40021000 	.word	0x40021000

08001228 <LL_APB2_GRP1_EnableClock>:
  *
  *         (*) value not defined in all devices.
  * @retval None
  */
__STATIC_INLINE void LL_APB2_GRP1_EnableClock(uint32_t Periphs)
{
 8001228:	b480      	push	{r7}
 800122a:	b085      	sub	sp, #20
 800122c:	af00      	add	r7, sp, #0
 800122e:	6078      	str	r0, [r7, #4]
  __IO uint32_t tmpreg;
  SET_BIT(RCC->APB2ENR, Periphs);
 8001230:	4b08      	ldr	r3, [pc, #32]	@ (8001254 <LL_APB2_GRP1_EnableClock+0x2c>)
 8001232:	6e1a      	ldr	r2, [r3, #96]	@ 0x60
 8001234:	4907      	ldr	r1, [pc, #28]	@ (8001254 <LL_APB2_GRP1_EnableClock+0x2c>)
 8001236:	687b      	ldr	r3, [r7, #4]
 8001238:	4313      	orrs	r3, r2
 800123a:	660b      	str	r3, [r1, #96]	@ 0x60
  /* Delay after an RCC peripheral clock enabling */
  tmpreg = READ_BIT(RCC->APB2ENR, Periphs);
 800123c:	4b05      	ldr	r3, [pc, #20]	@ (8001254 <LL_APB2_GRP1_EnableClock+0x2c>)
 800123e:	6e1a      	ldr	r2, [r3, #96]	@ 0x60
 8001240:	687b      	ldr	r3, [r7, #4]
 8001242:	4013      	ands	r3, r2
 8001244:	60fb      	str	r3, [r7, #12]
  (void)tmpreg;
 8001246:	68fb      	ldr	r3, [r7, #12]
}
 8001248:	bf00      	nop
 800124a:	3714      	adds	r7, #20
 800124c:	46bd      	mov	sp, r7
 800124e:	f85d 7b04 	ldr.w	r7, [sp], #4
 8001252:	4770      	bx	lr
 8001254:	40021000 	.word	0x40021000

08001258 <LL_FLASH_SetLatency>:
  *
  *         (*) value not defined in all devices.
  * @retval None
  */
__STATIC_INLINE void LL_FLASH_SetLatency(uint32_t Latency)
{
 8001258:	b480      	push	{r7}
 800125a:	b083      	sub	sp, #12
 800125c:	af00      	add	r7, sp, #0
 800125e:	6078      	str	r0, [r7, #4]
  MODIFY_REG(FLASH->ACR, FLASH_ACR_LATENCY, Latency);
 8001260:	4b06      	ldr	r3, [pc, #24]	@ (800127c <LL_FLASH_SetLatency+0x24>)
 8001262:	681b      	ldr	r3, [r3, #0]
 8001264:	f023 020f 	bic.w	r2, r3, #15
 8001268:	4904      	ldr	r1, [pc, #16]	@ (800127c <LL_FLASH_SetLatency+0x24>)
 800126a:	687b      	ldr	r3, [r7, #4]
 800126c:	4313      	orrs	r3, r2
 800126e:	600b      	str	r3, [r1, #0]
}
 8001270:	bf00      	nop
 8001272:	370c      	adds	r7, #12
 8001274:	46bd      	mov	sp, r7
 8001276:	f85d 7b04 	ldr.w	r7, [sp], #4
 800127a:	4770      	bx	lr
 800127c:	40022000 	.word	0x40022000

08001280 <LL_FLASH_GetLatency>:
  *         @arg @ref LL_FLASH_LATENCY_15 (*)
  *
  *         (*) value not defined in all devices.
  */
__STATIC_INLINE uint32_t LL_FLASH_GetLatency(void)
{
 8001280:	b480      	push	{r7}
 8001282:	af00      	add	r7, sp, #0
  return (uint32_t)(READ_BIT(FLASH->ACR, FLASH_ACR_LATENCY));
 8001284:	4b04      	ldr	r3, [pc, #16]	@ (8001298 <LL_FLASH_GetLatency+0x18>)
 8001286:	681b      	ldr	r3, [r3, #0]
 8001288:	f003 030f 	and.w	r3, r3, #15
}
 800128c:	4618      	mov	r0, r3
 800128e:	46bd      	mov	sp, r7
 8001290:	f85d 7b04 	ldr.w	r7, [sp], #4
 8001294:	4770      	bx	lr
 8001296:	bf00      	nop
 8001298:	40022000 	.word	0x40022000

0800129c <LL_PWR_EnableRange1BoostMode>:
  * @brief  Enable main regulator voltage range 1 boost mode
  * @rmtoll CR5          R1MODE        LL_PWR_EnableRange1BoostMode
  * @retval None
  */
__STATIC_INLINE void LL_PWR_EnableRange1BoostMode(void)
{
 800129c:	b480      	push	{r7}
 800129e:	af00      	add	r7, sp, #0
  CLEAR_BIT(PWR->CR5, PWR_CR5_R1MODE);
 80012a0:	4b06      	ldr	r3, [pc, #24]	@ (80012bc <LL_PWR_EnableRange1BoostMode+0x20>)
 80012a2:	f8d3 3080 	ldr.w	r3, [r3, #128]	@ 0x80
 80012a6:	4a05      	ldr	r2, [pc, #20]	@ (80012bc <LL_PWR_EnableRange1BoostMode+0x20>)
 80012a8:	f423 7380 	bic.w	r3, r3, #256	@ 0x100
 80012ac:	f8c2 3080 	str.w	r3, [r2, #128]	@ 0x80
}
 80012b0:	bf00      	nop
 80012b2:	46bd      	mov	sp, r7
 80012b4:	f85d 7b04 	ldr.w	r7, [sp], #4
 80012b8:	4770      	bx	lr
 80012ba:	bf00      	nop
 80012bc:	40007000 	.word	0x40007000

080012c0 <LL_TIM_EnableCounter>:
  * @rmtoll CR1          CEN           LL_TIM_EnableCounter
  * @param  TIMx Timer instance
  * @retval None
  */
__STATIC_INLINE void LL_TIM_EnableCounter(TIM_TypeDef *TIMx)
{
 80012c0:	b480      	push	{r7}
 80012c2:	b083      	sub	sp, #12
 80012c4:	af00      	add	r7, sp, #0
 80012c6:	6078      	str	r0, [r7, #4]
  SET_BIT(TIMx->CR1, TIM_CR1_CEN);
 80012c8:	687b      	ldr	r3, [r7, #4]
 80012ca:	681b      	ldr	r3, [r3, #0]
 80012cc:	f043 0201 	orr.w	r2, r3, #1
 80012d0:	687b      	ldr	r3, [r7, #4]
 80012d2:	601a      	str	r2, [r3, #0]
}
 80012d4:	bf00      	nop
 80012d6:	370c      	adds	r7, #12
 80012d8:	46bd      	mov	sp, r7
 80012da:	f85d 7b04 	ldr.w	r7, [sp], #4
 80012de:	4770      	bx	lr

080012e0 <LL_TIM_DisableARRPreload>:
  * @rmtoll CR1          ARPE          LL_TIM_DisableARRPreload
  * @param  TIMx Timer instance
  * @retval None
  */
__STATIC_INLINE void LL_TIM_DisableARRPreload(TIM_TypeDef *TIMx)
{
 80012e0:	b480      	push	{r7}
 80012e2:	b083      	sub	sp, #12
 80012e4:	af00      	add	r7, sp, #0
 80012e6:	6078      	str	r0, [r7, #4]
  CLEAR_BIT(TIMx->CR1, TIM_CR1_ARPE);
 80012e8:	687b      	ldr	r3, [r7, #4]
 80012ea:	681b      	ldr	r3, [r3, #0]
 80012ec:	f023 0280 	bic.w	r2, r3, #128	@ 0x80
 80012f0:	687b      	ldr	r3, [r7, #4]
 80012f2:	601a      	str	r2, [r3, #0]
}
 80012f4:	bf00      	nop
 80012f6:	370c      	adds	r7, #12
 80012f8:	46bd      	mov	sp, r7
 80012fa:	f85d 7b04 	ldr.w	r7, [sp], #4
 80012fe:	4770      	bx	lr

08001300 <LL_TIM_SetClockSource>:
  *         @arg @ref LL_TIM_CLOCKSOURCE_EXT_MODE1
  *         @arg @ref LL_TIM_CLOCKSOURCE_EXT_MODE2
  * @retval None
  */
__STATIC_INLINE void LL_TIM_SetClockSource(TIM_TypeDef *TIMx, uint32_t ClockSource)
{
 8001300:	b480      	push	{r7}
 8001302:	b083      	sub	sp, #12
 8001304:	af00      	add	r7, sp, #0
 8001306:	6078      	str	r0, [r7, #4]
 8001308:	6039      	str	r1, [r7, #0]
  MODIFY_REG(TIMx->SMCR, TIM_SMCR_SMS | TIM_SMCR_ECE, ClockSource);
 800130a:	687b      	ldr	r3, [r7, #4]
 800130c:	689b      	ldr	r3, [r3, #8]
 800130e:	f423 33a0 	bic.w	r3, r3, #81920	@ 0x14000
 8001312:	f023 0307 	bic.w	r3, r3, #7
 8001316:	683a      	ldr	r2, [r7, #0]
 8001318:	431a      	orrs	r2, r3
 800131a:	687b      	ldr	r3, [r7, #4]
 800131c:	609a      	str	r2, [r3, #8]
}
 800131e:	bf00      	nop
 8001320:	370c      	adds	r7, #12
 8001322:	46bd      	mov	sp, r7
 8001324:	f85d 7b04 	ldr.w	r7, [sp], #4
 8001328:	4770      	bx	lr

0800132a <LL_TIM_SetTriggerOutput>:
  *         @arg @ref LL_TIM_TRGO_OC4REF
  *         @arg @ref LL_TIM_TRGO_ENCODERCLK
  * @retval None
  */
__STATIC_INLINE void LL_TIM_SetTriggerOutput(TIM_TypeDef *TIMx, uint32_t TimerSynchronization)
{
 800132a:	b480      	push	{r7}
 800132c:	b083      	sub	sp, #12
 800132e:	af00      	add	r7, sp, #0
 8001330:	6078      	str	r0, [r7, #4]
 8001332:	6039      	str	r1, [r7, #0]
  MODIFY_REG(TIMx->CR2, TIM_CR2_MMS, TimerSynchronization);
 8001334:	687b      	ldr	r3, [r7, #4]
 8001336:	685b      	ldr	r3, [r3, #4]
 8001338:	f023 7300 	bic.w	r3, r3, #33554432	@ 0x2000000
 800133c:	f023 0370 	bic.w	r3, r3, #112	@ 0x70
 8001340:	683a      	ldr	r2, [r7, #0]
 8001342:	431a      	orrs	r2, r3
 8001344:	687b      	ldr	r3, [r7, #4]
 8001346:	605a      	str	r2, [r3, #4]
}
 8001348:	bf00      	nop
 800134a:	370c      	adds	r7, #12
 800134c:	46bd      	mov	sp, r7
 800134e:	f85d 7b04 	ldr.w	r7, [sp], #4
 8001352:	4770      	bx	lr

08001354 <LL_TIM_SetTriggerOutput2>:
  *         @arg @ref LL_TIM_TRGO2_OC5_RISING_OC6_RISING
  *         @arg @ref LL_TIM_TRGO2_OC5_RISING_OC6_FALLING
  * @retval None
  */
__STATIC_INLINE void LL_TIM_SetTriggerOutput2(TIM_TypeDef *TIMx, uint32_t ADCSynchronization)
{
 8001354:	b480      	push	{r7}
 8001356:	b083      	sub	sp, #12
 8001358:	af00      	add	r7, sp, #0
 800135a:	6078      	str	r0, [r7, #4]
 800135c:	6039      	str	r1, [r7, #0]
  MODIFY_REG(TIMx->CR2, TIM_CR2_MMS2, ADCSynchronization);
 800135e:	687b      	ldr	r3, [r7, #4]
 8001360:	685b      	ldr	r3, [r3, #4]
 8001362:	f423 0270 	bic.w	r2, r3, #15728640	@ 0xf00000
 8001366:	683b      	ldr	r3, [r7, #0]
 8001368:	431a      	orrs	r2, r3
 800136a:	687b      	ldr	r3, [r7, #4]
 800136c:	605a      	str	r2, [r3, #4]
}
 800136e:	bf00      	nop
 8001370:	370c      	adds	r7, #12
 8001372:	46bd      	mov	sp, r7
 8001374:	f85d 7b04 	ldr.w	r7, [sp], #4
 8001378:	4770      	bx	lr

0800137a <LL_TIM_DisableMasterSlaveMode>:
  * @rmtoll SMCR         MSM           LL_TIM_DisableMasterSlaveMode
  * @param  TIMx Timer instance
  * @retval None
  */
__STATIC_INLINE void LL_TIM_DisableMasterSlaveMode(TIM_TypeDef *TIMx)
{
 800137a:	b480      	push	{r7}
 800137c:	b083      	sub	sp, #12
 800137e:	af00      	add	r7, sp, #0
 8001380:	6078      	str	r0, [r7, #4]
  CLEAR_BIT(TIMx->SMCR, TIM_SMCR_MSM);
 8001382:	687b      	ldr	r3, [r7, #4]
 8001384:	689b      	ldr	r3, [r3, #8]
 8001386:	f023 0280 	bic.w	r2, r3, #128	@ 0x80
 800138a:	687b      	ldr	r3, [r7, #4]
 800138c:	609a      	str	r2, [r3, #8]
}
 800138e:	bf00      	nop
 8001390:	370c      	adds	r7, #12
 8001392:	46bd      	mov	sp, r7
 8001394:	f85d 7b04 	ldr.w	r7, [sp], #4
 8001398:	4770      	bx	lr

0800139a <LL_USART_Enable>:
  * @rmtoll CR1          UE            LL_USART_Enable
  * @param  USARTx USART Instance
  * @retval None
  */
__STATIC_INLINE void LL_USART_Enable(USART_TypeDef *USARTx)
{
 800139a:	b480      	push	{r7}
 800139c:	b083      	sub	sp, #12
 800139e:	af00      	add	r7, sp, #0
 80013a0:	6078      	str	r0, [r7, #4]
  SET_BIT(USARTx->CR1, USART_CR1_UE);
 80013a2:	687b      	ldr	r3, [r7, #4]
 80013a4:	681b      	ldr	r3, [r3, #0]
 80013a6:	f043 0201 	orr.w	r2, r3, #1
 80013aa:	687b      	ldr	r3, [r7, #4]
 80013ac:	601a      	str	r2, [r3, #0]
}
 80013ae:	bf00      	nop
 80013b0:	370c      	adds	r7, #12
 80013b2:	46bd      	mov	sp, r7
 80013b4:	f85d 7b04 	ldr.w	r7, [sp], #4
 80013b8:	4770      	bx	lr

080013ba <LL_USART_DisableFIFO>:
  * @rmtoll CR1          FIFOEN        LL_USART_DisableFIFO
  * @param  USARTx USART Instance
  * @retval None
  */
__STATIC_INLINE void LL_USART_DisableFIFO(USART_TypeDef *USARTx)
{
 80013ba:	b480      	push	{r7}
 80013bc:	b083      	sub	sp, #12
 80013be:	af00      	add	r7, sp, #0
 80013c0:	6078      	str	r0, [r7, #4]
  CLEAR_BIT(USARTx->CR1, USART_CR1_FIFOEN);
 80013c2:	687b      	ldr	r3, [r7, #4]
 80013c4:	681b      	ldr	r3, [r3, #0]
 80013c6:	f023 5200 	bic.w	r2, r3, #536870912	@ 0x20000000
 80013ca:	687b      	ldr	r3, [r7, #4]
 80013cc:	601a      	str	r2, [r3, #0]
}
 80013ce:	bf00      	nop
 80013d0:	370c      	adds	r7, #12
 80013d2:	46bd      	mov	sp, r7
 80013d4:	f85d 7b04 	ldr.w	r7, [sp], #4
 80013d8:	4770      	bx	lr

080013da <LL_USART_SetTXFIFOThreshold>:
  *         @arg @ref LL_USART_FIFOTHRESHOLD_7_8
  *         @arg @ref LL_USART_FIFOTHRESHOLD_8_8
  * @retval None
  */
__STATIC_INLINE void LL_USART_SetTXFIFOThreshold(USART_TypeDef *USARTx, uint32_t Threshold)
{
 80013da:	b480      	push	{r7}
 80013dc:	b089      	sub	sp, #36	@ 0x24
 80013de:	af00      	add	r7, sp, #0
 80013e0:	6078      	str	r0, [r7, #4]
 80013e2:	6039      	str	r1, [r7, #0]
  ATOMIC_MODIFY_REG(USARTx->CR3, USART_CR3_TXFTCFG, Threshold << USART_CR3_TXFTCFG_Pos);
 80013e4:	687b      	ldr	r3, [r7, #4]
 80013e6:	3308      	adds	r3, #8
 80013e8:	60fb      	str	r3, [r7, #12]
 */
__STATIC_FORCEINLINE uint32_t __LDREXW(volatile uint32_t *addr)
{
    uint32_t result;

   __ASM volatile ("ldrex %0, %1" : "=r" (result) : "Q" (*addr) );
 80013ea:	68fb      	ldr	r3, [r7, #12]
 80013ec:	e853 3f00 	ldrex	r3, [r3]
 80013f0:	60bb      	str	r3, [r7, #8]
   return(result);
 80013f2:	68bb      	ldr	r3, [r7, #8]
 80013f4:	f023 4260 	bic.w	r2, r3, #3758096384	@ 0xe0000000
 80013f8:	683b      	ldr	r3, [r7, #0]
 80013fa:	075b      	lsls	r3, r3, #29
 80013fc:	4313      	orrs	r3, r2
 80013fe:	61fb      	str	r3, [r7, #28]
 8001400:	687b      	ldr	r3, [r7, #4]
 8001402:	3308      	adds	r3, #8
 8001404:	69fa      	ldr	r2, [r7, #28]
 8001406:	61ba      	str	r2, [r7, #24]
 8001408:	617b      	str	r3, [r7, #20]
 */
__STATIC_FORCEINLINE uint32_t __STREXW(uint32_t value, volatile uint32_t *addr)
{
   uint32_t result;

   __ASM volatile ("strex %0, %2, %1" : "=&r" (result), "=Q" (*addr) : "r" (value) );
 800140a:	6979      	ldr	r1, [r7, #20]
 800140c:	69ba      	ldr	r2, [r7, #24]
 800140e:	e841 2300 	strex	r3, r2, [r1]
 8001412:	613b      	str	r3, [r7, #16]
   return(result);
 8001414:	693b      	ldr	r3, [r7, #16]
 8001416:	2b00      	cmp	r3, #0
 8001418:	d1e4      	bne.n	80013e4 <LL_USART_SetTXFIFOThreshold+0xa>
}
 800141a:	bf00      	nop
 800141c:	bf00      	nop
 800141e:	3724      	adds	r7, #36	@ 0x24
 8001420:	46bd      	mov	sp, r7
 8001422:	f85d 7b04 	ldr.w	r7, [sp], #4
 8001426:	4770      	bx	lr

08001428 <LL_USART_SetRXFIFOThreshold>:
  *         @arg @ref LL_USART_FIFOTHRESHOLD_7_8
  *         @arg @ref LL_USART_FIFOTHRESHOLD_8_8
  * @retval None
  */
__STATIC_INLINE void LL_USART_SetRXFIFOThreshold(USART_TypeDef *USARTx, uint32_t Threshold)
{
 8001428:	b480      	push	{r7}
 800142a:	b089      	sub	sp, #36	@ 0x24
 800142c:	af00      	add	r7, sp, #0
 800142e:	6078      	str	r0, [r7, #4]
 8001430:	6039      	str	r1, [r7, #0]
  ATOMIC_MODIFY_REG(USARTx->CR3, USART_CR3_RXFTCFG, Threshold << USART_CR3_RXFTCFG_Pos);
 8001432:	687b      	ldr	r3, [r7, #4]
 8001434:	3308      	adds	r3, #8
 8001436:	60fb      	str	r3, [r7, #12]
   __ASM volatile ("ldrex %0, %1" : "=r" (result) : "Q" (*addr) );
 8001438:	68fb      	ldr	r3, [r7, #12]
 800143a:	e853 3f00 	ldrex	r3, [r3]
 800143e:	60bb      	str	r3, [r7, #8]
   return(result);
 8001440:	68bb      	ldr	r3, [r7, #8]
 8001442:	f023 6260 	bic.w	r2, r3, #234881024	@ 0xe000000
 8001446:	683b      	ldr	r3, [r7, #0]
 8001448:	065b      	lsls	r3, r3, #25
 800144a:	4313      	orrs	r3, r2
 800144c:	61fb      	str	r3, [r7, #28]
 800144e:	687b      	ldr	r3, [r7, #4]
 8001450:	3308      	adds	r3, #8
 8001452:	69fa      	ldr	r2, [r7, #28]
 8001454:	61ba      	str	r2, [r7, #24]
 8001456:	617b      	str	r3, [r7, #20]
   __ASM volatile ("strex %0, %2, %1" : "=&r" (result), "=Q" (*addr) : "r" (value) );
 8001458:	6979      	ldr	r1, [r7, #20]
 800145a:	69ba      	ldr	r2, [r7, #24]
 800145c:	e841 2300 	strex	r3, r2, [r1]
 8001460:	613b      	str	r3, [r7, #16]
   return(result);
 8001462:	693b      	ldr	r3, [r7, #16]
 8001464:	2b00      	cmp	r3, #0
 8001466:	d1e4      	bne.n	8001432 <LL_USART_SetRXFIFOThreshold+0xa>
}
 8001468:	bf00      	nop
 800146a:	bf00      	nop
 800146c:	3724      	adds	r7, #36	@ 0x24
 800146e:	46bd      	mov	sp, r7
 8001470:	f85d 7b04 	ldr.w	r7, [sp], #4
 8001474:	4770      	bx	lr

08001476 <LL_USART_ConfigAsyncMode>:
  *         CR3          HDSEL         LL_USART_ConfigAsyncMode
  * @param  USARTx USART Instance
  * @retval None
  */
__STATIC_INLINE void LL_USART_ConfigAsyncMode(USART_TypeDef *USARTx)
{
 8001476:	b480      	push	{r7}
 8001478:	b083      	sub	sp, #12
 800147a:	af00      	add	r7, sp, #0
 800147c:	6078      	str	r0, [r7, #4]
  /* In Asynchronous mode, the following bits must be kept cleared:
  - LINEN, CLKEN bits in the USART_CR2 register,
  - SCEN, IREN and HDSEL bits in the USART_CR3 register.
  */
  CLEAR_BIT(USARTx->CR2, (USART_CR2_LINEN | USART_CR2_CLKEN));
 800147e:	687b      	ldr	r3, [r7, #4]
 8001480:	685b      	ldr	r3, [r3, #4]
 8001482:	f423 4290 	bic.w	r2, r3, #18432	@ 0x4800
 8001486:	687b      	ldr	r3, [r7, #4]
 8001488:	605a      	str	r2, [r3, #4]
  CLEAR_BIT(USARTx->CR3, (USART_CR3_SCEN | USART_CR3_IREN | USART_CR3_HDSEL));
 800148a:	687b      	ldr	r3, [r7, #4]
 800148c:	689b      	ldr	r3, [r3, #8]
 800148e:	f023 022a 	bic.w	r2, r3, #42	@ 0x2a
 8001492:	687b      	ldr	r3, [r7, #4]
 8001494:	609a      	str	r2, [r3, #8]
}
 8001496:	bf00      	nop
 8001498:	370c      	adds	r7, #12
 800149a:	46bd      	mov	sp, r7
 800149c:	f85d 7b04 	ldr.w	r7, [sp], #4
 80014a0:	4770      	bx	lr

080014a2 <LL_USART_IsActiveFlag_TC>:
  * @rmtoll ISR          TC            LL_USART_IsActiveFlag_TC
  * @param  USARTx USART Instance
  * @retval State of bit (1 or 0).
  */
__STATIC_INLINE uint32_t LL_USART_IsActiveFlag_TC(const USART_TypeDef *USARTx)
{
 80014a2:	b480      	push	{r7}
 80014a4:	b083      	sub	sp, #12
 80014a6:	af00      	add	r7, sp, #0
 80014a8:	6078      	str	r0, [r7, #4]
  return ((READ_BIT(USARTx->ISR, USART_ISR_TC) == (USART_ISR_TC)) ? 1UL : 0UL);
 80014aa:	687b      	ldr	r3, [r7, #4]
 80014ac:	69db      	ldr	r3, [r3, #28]
 80014ae:	f003 0340 	and.w	r3, r3, #64	@ 0x40
 80014b2:	2b40      	cmp	r3, #64	@ 0x40
 80014b4:	d101      	bne.n	80014ba <LL_USART_IsActiveFlag_TC+0x18>
 80014b6:	2301      	movs	r3, #1
 80014b8:	e000      	b.n	80014bc <LL_USART_IsActiveFlag_TC+0x1a>
 80014ba:	2300      	movs	r3, #0
}
 80014bc:	4618      	mov	r0, r3
 80014be:	370c      	adds	r7, #12
 80014c0:	46bd      	mov	sp, r7
 80014c2:	f85d 7b04 	ldr.w	r7, [sp], #4
 80014c6:	4770      	bx	lr

080014c8 <LL_USART_IsActiveFlag_TXE_TXFNF>:
  * @rmtoll ISR          TXE_TXFNF     LL_USART_IsActiveFlag_TXE_TXFNF
  * @param  USARTx USART Instance
  * @retval State of bit (1 or 0).
  */
__STATIC_INLINE uint32_t LL_USART_IsActiveFlag_TXE_TXFNF(const USART_TypeDef *USARTx)
{
 80014c8:	b480      	push	{r7}
 80014ca:	b083      	sub	sp, #12
 80014cc:	af00      	add	r7, sp, #0
 80014ce:	6078      	str	r0, [r7, #4]
  return ((READ_BIT(USARTx->ISR, USART_ISR_TXE_TXFNF) == (USART_ISR_TXE_TXFNF)) ? 1UL : 0UL);
 80014d0:	687b      	ldr	r3, [r7, #4]
 80014d2:	69db      	ldr	r3, [r3, #28]
 80014d4:	f003 0380 	and.w	r3, r3, #128	@ 0x80
 80014d8:	2b80      	cmp	r3, #128	@ 0x80
 80014da:	d101      	bne.n	80014e0 <LL_USART_IsActiveFlag_TXE_TXFNF+0x18>
 80014dc:	2301      	movs	r3, #1
 80014de:	e000      	b.n	80014e2 <LL_USART_IsActiveFlag_TXE_TXFNF+0x1a>
 80014e0:	2300      	movs	r3, #0
}
 80014e2:	4618      	mov	r0, r3
 80014e4:	370c      	adds	r7, #12
 80014e6:	46bd      	mov	sp, r7
 80014e8:	f85d 7b04 	ldr.w	r7, [sp], #4
 80014ec:	4770      	bx	lr

080014ee <LL_USART_IsActiveFlag_TEACK>:
  * @rmtoll ISR          TEACK         LL_USART_IsActiveFlag_TEACK
  * @param  USARTx USART Instance
  * @retval State of bit (1 or 0).
  */
__STATIC_INLINE uint32_t LL_USART_IsActiveFlag_TEACK(const USART_TypeDef *USARTx)
{
 80014ee:	b480      	push	{r7}
 80014f0:	b083      	sub	sp, #12
 80014f2:	af00      	add	r7, sp, #0
 80014f4:	6078      	str	r0, [r7, #4]
  return ((READ_BIT(USARTx->ISR, USART_ISR_TEACK) == (USART_ISR_TEACK)) ? 1UL : 0UL);
 80014f6:	687b      	ldr	r3, [r7, #4]
 80014f8:	69db      	ldr	r3, [r3, #28]
 80014fa:	f403 1300 	and.w	r3, r3, #2097152	@ 0x200000
 80014fe:	f5b3 1f00 	cmp.w	r3, #2097152	@ 0x200000
 8001502:	d101      	bne.n	8001508 <LL_USART_IsActiveFlag_TEACK+0x1a>
 8001504:	2301      	movs	r3, #1
 8001506:	e000      	b.n	800150a <LL_USART_IsActiveFlag_TEACK+0x1c>
 8001508:	2300      	movs	r3, #0
}
 800150a:	4618      	mov	r0, r3
 800150c:	370c      	adds	r7, #12
 800150e:	46bd      	mov	sp, r7
 8001510:	f85d 7b04 	ldr.w	r7, [sp], #4
 8001514:	4770      	bx	lr

08001516 <LL_USART_IsActiveFlag_REACK>:
  * @rmtoll ISR          REACK         LL_USART_IsActiveFlag_REACK
  * @param  USARTx USART Instance
  * @retval State of bit (1 or 0).
  */
__STATIC_INLINE uint32_t LL_USART_IsActiveFlag_REACK(const USART_TypeDef *USARTx)
{
 8001516:	b480      	push	{r7}
 8001518:	b083      	sub	sp, #12
 800151a:	af00      	add	r7, sp, #0
 800151c:	6078      	str	r0, [r7, #4]
  return ((READ_BIT(USARTx->ISR, USART_ISR_REACK) == (USART_ISR_REACK)) ? 1UL : 0UL);
 800151e:	687b      	ldr	r3, [r7, #4]
 8001520:	69db      	ldr	r3, [r3, #28]
 8001522:	f403 0380 	and.w	r3, r3, #4194304	@ 0x400000
 8001526:	f5b3 0f80 	cmp.w	r3, #4194304	@ 0x400000
 800152a:	d101      	bne.n	8001530 <LL_USART_IsActiveFlag_REACK+0x1a>
 800152c:	2301      	movs	r3, #1
 800152e:	e000      	b.n	8001532 <LL_USART_IsActiveFlag_REACK+0x1c>
 8001530:	2300      	movs	r3, #0
}
 8001532:	4618      	mov	r0, r3
 8001534:	370c      	adds	r7, #12
 8001536:	46bd      	mov	sp, r7
 8001538:	f85d 7b04 	ldr.w	r7, [sp], #4
 800153c:	4770      	bx	lr

0800153e <LL_USART_TransmitData8>:
  * @param  USARTx USART Instance
  * @param  Value between Min_Data=0x00 and Max_Data=0xFF
  * @retval None
  */
__STATIC_INLINE void LL_USART_TransmitData8(USART_TypeDef *USARTx, uint8_t Value)
{
 800153e:	b480      	push	{r7}
 8001540:	b083      	sub	sp, #12
 8001542:	af00      	add	r7, sp, #0
 8001544:	6078      	str	r0, [r7, #4]
 8001546:	460b      	mov	r3, r1
 8001548:	70fb      	strb	r3, [r7, #3]
  USARTx->TDR = Value;
 800154a:	78fa      	ldrb	r2, [r7, #3]
 800154c:	687b      	ldr	r3, [r7, #4]
 800154e:	629a      	str	r2, [r3, #40]	@ 0x28
}
 8001550:	bf00      	nop
 8001552:	370c      	adds	r7, #12
 8001554:	46bd      	mov	sp, r7
 8001556:	f85d 7b04 	ldr.w	r7, [sp], #4
 800155a:	4770      	bx	lr

0800155c <UART_SendByte>:
/* USER CODE END PFP */

/* USER CODE BEGIN 0 */

static inline void UART_SendByte(uint8_t byte)
{
 800155c:	b580      	push	{r7, lr}
 800155e:	b082      	sub	sp, #8
 8001560:	af00      	add	r7, sp, #0
 8001562:	4603      	mov	r3, r0
 8001564:	71fb      	strb	r3, [r7, #7]
    while (!LL_USART_IsActiveFlag_TXE(UART4));
 8001566:	bf00      	nop
 8001568:	4807      	ldr	r0, [pc, #28]	@ (8001588 <UART_SendByte+0x2c>)
 800156a:	f7ff ffad 	bl	80014c8 <LL_USART_IsActiveFlag_TXE_TXFNF>
 800156e:	4603      	mov	r3, r0
 8001570:	2b00      	cmp	r3, #0
 8001572:	d0f9      	beq.n	8001568 <UART_SendByte+0xc>
    LL_USART_TransmitData8(UART4, byte);
 8001574:	79fb      	ldrb	r3, [r7, #7]
 8001576:	4619      	mov	r1, r3
 8001578:	4803      	ldr	r0, [pc, #12]	@ (8001588 <UART_SendByte+0x2c>)
 800157a:	f7ff ffe0 	bl	800153e <LL_USART_TransmitData8>
}
 800157e:	bf00      	nop
 8001580:	3708      	adds	r7, #8
 8001582:	46bd      	mov	sp, r7
 8001584:	bd80      	pop	{r7, pc}
 8001586:	bf00      	nop
 8001588:	40004c00 	.word	0x40004c00

0800158c <UART_SendAnglePacket>:
/**
 * @brief Šalje angle paket (tip 0x02).
 *   Format (8 B): [0xAA][0xBB][0x02][PHI_H][PHI_L][STR][0xCC][0xDD]
 */
static void UART_SendAnglePacket(int16_t phi_tenth_deg, uint8_t strength)
{
 800158c:	b580      	push	{r7, lr}
 800158e:	b082      	sub	sp, #8
 8001590:	af00      	add	r7, sp, #0
 8001592:	4603      	mov	r3, r0
 8001594:	460a      	mov	r2, r1
 8001596:	80fb      	strh	r3, [r7, #6]
 8001598:	4613      	mov	r3, r2
 800159a:	717b      	strb	r3, [r7, #5]
    UART_SendByte(0xAA);
 800159c:	20aa      	movs	r0, #170	@ 0xaa
 800159e:	f7ff ffdd 	bl	800155c <UART_SendByte>
    UART_SendByte(0xBB);
 80015a2:	20bb      	movs	r0, #187	@ 0xbb
 80015a4:	f7ff ffda 	bl	800155c <UART_SendByte>
    UART_SendByte(0x02);
 80015a8:	2002      	movs	r0, #2
 80015aa:	f7ff ffd7 	bl	800155c <UART_SendByte>
    UART_SendByte((uint8_t)(phi_tenth_deg >> 8));
 80015ae:	f9b7 3006 	ldrsh.w	r3, [r7, #6]
 80015b2:	121b      	asrs	r3, r3, #8
 80015b4:	b21b      	sxth	r3, r3
 80015b6:	b2db      	uxtb	r3, r3
 80015b8:	4618      	mov	r0, r3
 80015ba:	f7ff ffcf 	bl	800155c <UART_SendByte>
    UART_SendByte((uint8_t)(phi_tenth_deg & 0xFF));
 80015be:	88fb      	ldrh	r3, [r7, #6]
 80015c0:	b2db      	uxtb	r3, r3
 80015c2:	4618      	mov	r0, r3
 80015c4:	f7ff ffca 	bl	800155c <UART_SendByte>
    UART_SendByte(strength);
 80015c8:	797b      	ldrb	r3, [r7, #5]
 80015ca:	4618      	mov	r0, r3
 80015cc:	f7ff ffc6 	bl	800155c <UART_SendByte>
    UART_SendByte(0xCC);
 80015d0:	20cc      	movs	r0, #204	@ 0xcc
 80015d2:	f7ff ffc3 	bl	800155c <UART_SendByte>
    UART_SendByte(0xDD);
 80015d6:	20dd      	movs	r0, #221	@ 0xdd
 80015d8:	f7ff ffc0 	bl	800155c <UART_SendByte>
    while (!LL_USART_IsActiveFlag_TC(UART4));
 80015dc:	bf00      	nop
 80015de:	4805      	ldr	r0, [pc, #20]	@ (80015f4 <UART_SendAnglePacket+0x68>)
 80015e0:	f7ff ff5f 	bl	80014a2 <LL_USART_IsActiveFlag_TC>
 80015e4:	4603      	mov	r3, r0
 80015e6:	2b00      	cmp	r3, #0
 80015e8:	d0f9      	beq.n	80015de <UART_SendAnglePacket+0x52>
}
 80015ea:	bf00      	nop
 80015ec:	bf00      	nop
 80015ee:	3708      	adds	r7, #8
 80015f0:	46bd      	mov	sp, r7
 80015f2:	bd80      	pop	{r7, pc}
 80015f4:	40004c00 	.word	0x40004c00

080015f8 <main>:

/* USER CODE END 0 */

int main(void)
{
 80015f8:	b5b0      	push	{r4, r5, r7, lr}
 80015fa:	b08c      	sub	sp, #48	@ 0x30
 80015fc:	af00      	add	r7, sp, #0
  HAL_Init();
 80015fe:	f000 fe93 	bl	8002328 <HAL_Init>
  SystemClock_Config();
 8001602:	f000 f8b5 	bl	8001770 <SystemClock_Config>

  MX_GPIO_Init();
 8001606:	f000 fb1f 	bl	8001c48 <MX_GPIO_Init>
  MX_DMA_Init();
 800160a:	f000 fb03 	bl	8001c14 <MX_DMA_Init>
  MX_ADC1_Init();
 800160e:	f000 f907 	bl	8001820 <MX_ADC1_Init>
  MX_UART4_Init();
 8001612:	f000 fa89 	bl	8001b28 <MX_UART4_Init>
  MX_TIM8_Init();
 8001616:	f000 fa51 	bl	8001abc <MX_TIM8_Init>

  /* USER CODE BEGIN 2 */

  /* Kalibracija ADC-a */
  LL_ADC_StartCalibration(ADC1, LL_ADC_SINGLE_ENDED);
 800161a:	217f      	movs	r1, #127	@ 0x7f
 800161c:	f04f 40a0 	mov.w	r0, #1342177280	@ 0x50000000
 8001620:	f7ff fa45 	bl	8000aae <LL_ADC_StartCalibration>
  while (LL_ADC_IsCalibrationOnGoing(ADC1) != 0);
 8001624:	bf00      	nop
 8001626:	f04f 40a0 	mov.w	r0, #1342177280	@ 0x50000000
 800162a:	f7ff fa59 	bl	8000ae0 <LL_ADC_IsCalibrationOnGoing>
 800162e:	4603      	mov	r3, r0
 8001630:	2b00      	cmp	r3, #0
 8001632:	d1f8      	bne.n	8001626 <main+0x2e>

  /* Power up ADC */
  LL_ADC_Enable(ADC1);
 8001634:	f04f 40a0 	mov.w	r0, #1342177280	@ 0x50000000
 8001638:	f7ff fa25 	bl	8000a86 <LL_ADC_Enable>
  while (LL_ADC_IsActiveFlag_ADRDY(ADC1) == 0);
 800163c:	bf00      	nop
 800163e:	f04f 40a0 	mov.w	r0, #1342177280	@ 0x50000000
 8001642:	f7ff fa75 	bl	8000b30 <LL_ADC_IsActiveFlag_ADRDY>
 8001646:	4603      	mov	r3, r0
 8001648:	2b00      	cmp	r3, #0
 800164a:	d0f8      	beq.n	800163e <main+0x46>

  /* DMA konfiguracija — adrese i duljina */
  LL_DMA_SetMemoryAddress(DMA1, LL_DMA_CHANNEL_1, (uint32_t)adc_buffer);
 800164c:	4b3e      	ldr	r3, [pc, #248]	@ (8001748 <main+0x150>)
 800164e:	461a      	mov	r2, r3
 8001650:	2100      	movs	r1, #0
 8001652:	483e      	ldr	r0, [pc, #248]	@ (800174c <main+0x154>)
 8001654:	f7ff fbd4 	bl	8000e00 <LL_DMA_SetMemoryAddress>
  LL_DMA_SetPeriphAddress(DMA1, LL_DMA_CHANNEL_1,
 8001658:	2100      	movs	r1, #0
 800165a:	f04f 40a0 	mov.w	r0, #1342177280	@ 0x50000000
 800165e:	f7ff f8fd 	bl	800085c <LL_ADC_DMA_GetRegAddr>
 8001662:	4603      	mov	r3, r0
 8001664:	461a      	mov	r2, r3
 8001666:	2100      	movs	r1, #0
 8001668:	4838      	ldr	r0, [pc, #224]	@ (800174c <main+0x154>)
 800166a:	f7ff fbe3 	bl	8000e34 <LL_DMA_SetPeriphAddress>
      LL_ADC_DMA_GetRegAddr(ADC1, LL_ADC_DMA_REG_REGULAR_DATA));
  LL_DMA_SetDataLength(DMA1, LL_DMA_CHANNEL_1, FULL_BUFFER);
 800166e:	f44f 5280 	mov.w	r2, #4096	@ 0x1000
 8001672:	2100      	movs	r1, #0
 8001674:	4835      	ldr	r0, [pc, #212]	@ (800174c <main+0x154>)
 8001676:	f7ff fb9d 	bl	8000db4 <LL_DMA_SetDataLength>

  /* Half-transfer i transfer-complete interrupti */
  LL_DMA_EnableIT_HT(DMA1, LL_DMA_CHANNEL_1);
 800167a:	2100      	movs	r1, #0
 800167c:	4833      	ldr	r0, [pc, #204]	@ (800174c <main+0x154>)
 800167e:	f7ff fc3f 	bl	8000f00 <LL_DMA_EnableIT_HT>
  LL_DMA_EnableIT_TC(DMA1, LL_DMA_CHANNEL_1);
 8001682:	2100      	movs	r1, #0
 8001684:	4831      	ldr	r0, [pc, #196]	@ (800174c <main+0x154>)
 8001686:	f7ff fc19 	bl	8000ebc <LL_DMA_EnableIT_TC>

  LL_DMA_EnableChannel(DMA1, LL_DMA_CHANNEL_1);
 800168a:	2100      	movs	r1, #0
 800168c:	482f      	ldr	r0, [pc, #188]	@ (800174c <main+0x154>)
 800168e:	f7ff fa63 	bl	8000b58 <LL_DMA_EnableChannel>
  LL_ADC_REG_StartConversion(ADC1);
 8001692:	f04f 40a0 	mov.w	r0, #1342177280	@ 0x50000000
 8001696:	f7ff fa37 	bl	8000b08 <LL_ADC_REG_StartConversion>
  LL_TIM_EnableCounter(TIM8);
 800169a:	482d      	ldr	r0, [pc, #180]	@ (8001750 <main+0x158>)
 800169c:	f7ff fe10 	bl	80012c0 <LL_TIM_EnableCounter>
  /* ── RTOS objekti ─────────────────────────────────────────────────────── */

  /* Queue: ISR → processTask (DMA half-buffer indeks: 0 ili 1)
   * Dubina 8 — processTask obrađuje za <1 ms, pa nikad neće biti
   * više od 1-2 poruke, ali 8 daje veliku marginu. */
  osMessageQDef(queueDmaEvent, 8, uint32_t);
 80016a0:	4a2c      	ldr	r2, [pc, #176]	@ (8001754 <main+0x15c>)
 80016a2:	f107 0328 	add.w	r3, r7, #40	@ 0x28
 80016a6:	e892 0003 	ldmia.w	r2, {r0, r1}
 80016aa:	e883 0003 	stmia.w	r3, {r0, r1}
  queueDmaEventHandle = osMessageCreate(osMessageQ(queueDmaEvent), NULL);
 80016ae:	f107 0328 	add.w	r3, r7, #40	@ 0x28
 80016b2:	2100      	movs	r1, #0
 80016b4:	4618      	mov	r0, r3
 80016b6:	f003 fa93 	bl	8004be0 <osMessageCreate>
 80016ba:	4603      	mov	r3, r0
 80016bc:	4a26      	ldr	r2, [pc, #152]	@ (8001758 <main+0x160>)
 80016be:	6013      	str	r3, [r2, #0]
#if SEND_AUDIO_FRAMES
  osMessageQDef(queueUartMsg, 2, uint32_t);
  queueUartMsgHandle = osMessageCreate(osMessageQ(queueUartMsg), NULL);
#endif

  osThreadDef(defaultTask, StartDefaultTask, osPriorityIdle, 0, 128);
 80016c0:	4b26      	ldr	r3, [pc, #152]	@ (800175c <main+0x164>)
 80016c2:	f107 0414 	add.w	r4, r7, #20
 80016c6:	461d      	mov	r5, r3
 80016c8:	cd0f      	ldmia	r5!, {r0, r1, r2, r3}
 80016ca:	c40f      	stmia	r4!, {r0, r1, r2, r3}
 80016cc:	682b      	ldr	r3, [r5, #0]
 80016ce:	6023      	str	r3, [r4, #0]
  defaultTaskHandle = osThreadCreate(osThread(defaultTask), NULL);
 80016d0:	f107 0314 	add.w	r3, r7, #20
 80016d4:	2100      	movs	r1, #0
 80016d6:	4618      	mov	r0, r3
 80016d8:	f003 fa47 	bl	8004b6a <osThreadCreate>
 80016dc:	4603      	mov	r3, r0
 80016de:	4a20      	ldr	r2, [pc, #128]	@ (8001760 <main+0x168>)
 80016e0:	6013      	str	r3, [r2, #0]

  osThreadDef(processTask, StartProcessTask, osPriorityAboveNormal, 0, 512);
 80016e2:	4b20      	ldr	r3, [pc, #128]	@ (8001764 <main+0x16c>)
 80016e4:	463c      	mov	r4, r7
 80016e6:	461d      	mov	r5, r3
 80016e8:	cd0f      	ldmia	r5!, {r0, r1, r2, r3}
 80016ea:	c40f      	stmia	r4!, {r0, r1, r2, r3}
 80016ec:	682b      	ldr	r3, [r5, #0]
 80016ee:	6023      	str	r3, [r4, #0]
  processTaskHandle = osThreadCreate(osThread(processTask), NULL);
 80016f0:	463b      	mov	r3, r7
 80016f2:	2100      	movs	r1, #0
 80016f4:	4618      	mov	r0, r3
 80016f6:	f003 fa38 	bl	8004b6a <osThreadCreate>
 80016fa:	4603      	mov	r3, r0
 80016fc:	4a1a      	ldr	r2, [pc, #104]	@ (8001768 <main+0x170>)
 80016fe:	6013      	str	r3, [r2, #0]
  osThreadDef(uartTask, StartUartTask, osPriorityNormal, 0, 256);
  uartTaskHandle = osThreadCreate(osThread(uartTask), NULL);
#endif

  /* LED i COM */
  BSP_LED_Init(LED_GREEN);
 8001700:	2000      	movs	r0, #0
 8001702:	f000 fcab 	bl	800205c <BSP_LED_Init>
  BSP_PB_Init(BUTTON_USER, BUTTON_MODE_EXTI);
 8001706:	2101      	movs	r1, #1
 8001708:	2000      	movs	r0, #0
 800170a:	f000 fcdd 	bl	80020c8 <BSP_PB_Init>

  BspCOMInit.BaudRate   = 115200;
 800170e:	4b17      	ldr	r3, [pc, #92]	@ (800176c <main+0x174>)
 8001710:	f44f 32e1 	mov.w	r2, #115200	@ 0x1c200
 8001714:	601a      	str	r2, [r3, #0]
  BspCOMInit.WordLength = COM_WORDLENGTH_8B;
 8001716:	4b15      	ldr	r3, [pc, #84]	@ (800176c <main+0x174>)
 8001718:	2200      	movs	r2, #0
 800171a:	605a      	str	r2, [r3, #4]
  BspCOMInit.StopBits   = COM_STOPBITS_1;
 800171c:	4b13      	ldr	r3, [pc, #76]	@ (800176c <main+0x174>)
 800171e:	2200      	movs	r2, #0
 8001720:	811a      	strh	r2, [r3, #8]
  BspCOMInit.Parity     = COM_PARITY_NONE;
 8001722:	4b12      	ldr	r3, [pc, #72]	@ (800176c <main+0x174>)
 8001724:	2200      	movs	r2, #0
 8001726:	815a      	strh	r2, [r3, #10]
  BspCOMInit.HwFlowCtl  = COM_HWCONTROL_NONE;
 8001728:	4b10      	ldr	r3, [pc, #64]	@ (800176c <main+0x174>)
 800172a:	2200      	movs	r2, #0
 800172c:	819a      	strh	r2, [r3, #12]
  if (BSP_COM_Init(COM1, &BspCOMInit) != BSP_ERROR_NONE)
 800172e:	490f      	ldr	r1, [pc, #60]	@ (800176c <main+0x174>)
 8001730:	2000      	movs	r0, #0
 8001732:	f000 fd43 	bl	80021bc <BSP_COM_Init>
 8001736:	4603      	mov	r3, r0
 8001738:	2b00      	cmp	r3, #0
 800173a:	d001      	beq.n	8001740 <main+0x148>
  {
    Error_Handler();
 800173c:	f000 faec 	bl	8001d18 <Error_Handler>
  }

  osKernelStart();
 8001740:	f003 fa0c 	bl	8004b5c <osKernelStart>

  while (1) { }
 8001744:	bf00      	nop
 8001746:	e7fd      	b.n	8001744 <main+0x14c>
 8001748:	200000b0 	.word	0x200000b0
 800174c:	40020000 	.word	0x40020000
 8001750:	40013400 	.word	0x40013400
 8001754:	08007230 	.word	0x08007230
 8001758:	200000ac 	.word	0x200000ac
 800175c:	08007244 	.word	0x08007244
 8001760:	200000a4 	.word	0x200000a4
 8001764:	08007264 	.word	0x08007264
 8001768:	200000a8 	.word	0x200000a8
 800176c:	20000094 	.word	0x20000094

08001770 <SystemClock_Config>:
/* ═══════════════════════════════════════════════════════════════════════════
 * SystemClock_Config — 170 MHz iz HSI (16 MHz) preko PLL
 * PLL: M=/4, N=×85, R=/2 → 16/4 × 85 / 2 = 170 MHz
 * ═══════════════════════════════════════════════════════════════════════════ */
void SystemClock_Config(void)
{
 8001770:	b580      	push	{r7, lr}
 8001772:	b082      	sub	sp, #8
 8001774:	af00      	add	r7, sp, #0
  LL_FLASH_SetLatency(LL_FLASH_LATENCY_4);
 8001776:	2004      	movs	r0, #4
 8001778:	f7ff fd6e 	bl	8001258 <LL_FLASH_SetLatency>
  while(LL_FLASH_GetLatency() != LL_FLASH_LATENCY_4) {}
 800177c:	bf00      	nop
 800177e:	f7ff fd7f 	bl	8001280 <LL_FLASH_GetLatency>
 8001782:	4603      	mov	r3, r0
 8001784:	2b04      	cmp	r3, #4
 8001786:	d1fa      	bne.n	800177e <SystemClock_Config+0xe>

  LL_PWR_EnableRange1BoostMode();
 8001788:	f7ff fd88 	bl	800129c <LL_PWR_EnableRange1BoostMode>
  LL_RCC_HSI_Enable();
 800178c:	f7ff fbda 	bl	8000f44 <LL_RCC_HSI_Enable>
  while(LL_RCC_HSI_IsReady() != 1) {}
 8001790:	bf00      	nop
 8001792:	f7ff fbe7 	bl	8000f64 <LL_RCC_HSI_IsReady>
 8001796:	4603      	mov	r3, r0
 8001798:	2b01      	cmp	r3, #1
 800179a:	d1fa      	bne.n	8001792 <SystemClock_Config+0x22>

  LL_RCC_HSI_SetCalibTrimming(64);
 800179c:	2040      	movs	r0, #64	@ 0x40
 800179e:	f7ff fbf5 	bl	8000f8c <LL_RCC_HSI_SetCalibTrimming>
  LL_RCC_PLL_ConfigDomain_SYS(LL_RCC_PLLSOURCE_HSI, LL_RCC_PLLM_DIV_4,
 80017a2:	2300      	movs	r3, #0
 80017a4:	2255      	movs	r2, #85	@ 0x55
 80017a6:	2130      	movs	r1, #48	@ 0x30
 80017a8:	2002      	movs	r0, #2
 80017aa:	f7ff fcc5 	bl	8001138 <LL_RCC_PLL_ConfigDomain_SYS>
                               85, LL_RCC_PLLR_DIV_2);
  LL_RCC_PLL_EnableDomain_SYS();
 80017ae:	f7ff fce3 	bl	8001178 <LL_RCC_PLL_EnableDomain_SYS>
  LL_RCC_PLL_Enable();
 80017b2:	f7ff fc9d 	bl	80010f0 <LL_RCC_PLL_Enable>
  while(LL_RCC_PLL_IsReady() != 1) {}
 80017b6:	bf00      	nop
 80017b8:	f7ff fcaa 	bl	8001110 <LL_RCC_PLL_IsReady>
 80017bc:	4603      	mov	r3, r0
 80017be:	2b01      	cmp	r3, #1
 80017c0:	d1fa      	bne.n	80017b8 <SystemClock_Config+0x48>

  LL_RCC_SetSysClkSource(LL_RCC_SYS_CLKSOURCE_PLL);
 80017c2:	2003      	movs	r0, #3
 80017c4:	f7ff fbf8 	bl	8000fb8 <LL_RCC_SetSysClkSource>
  LL_RCC_SetAHBPrescaler(LL_RCC_SYSCLK_DIV_2);
 80017c8:	2080      	movs	r0, #128	@ 0x80
 80017ca:	f7ff fc17 	bl	8000ffc <LL_RCC_SetAHBPrescaler>
  while(LL_RCC_GetSysClkSource() != LL_RCC_SYS_CLKSOURCE_STATUS_PLL) {}
 80017ce:	bf00      	nop
 80017d0:	f7ff fc06 	bl	8000fe0 <LL_RCC_GetSysClkSource>
 80017d4:	4603      	mov	r3, r0
 80017d6:	2b0c      	cmp	r3, #12
 80017d8:	d1fa      	bne.n	80017d0 <SystemClock_Config+0x60>

  for (__IO uint32_t i = (170 >> 1); i != 0; i--);
 80017da:	2355      	movs	r3, #85	@ 0x55
 80017dc:	607b      	str	r3, [r7, #4]
 80017de:	e002      	b.n	80017e6 <SystemClock_Config+0x76>
 80017e0:	687b      	ldr	r3, [r7, #4]
 80017e2:	3b01      	subs	r3, #1
 80017e4:	607b      	str	r3, [r7, #4]
 80017e6:	687b      	ldr	r3, [r7, #4]
 80017e8:	2b00      	cmp	r3, #0
 80017ea:	d1f9      	bne.n	80017e0 <SystemClock_Config+0x70>

  LL_RCC_SetAHBPrescaler(LL_RCC_SYSCLK_DIV_1);
 80017ec:	2000      	movs	r0, #0
 80017ee:	f7ff fc05 	bl	8000ffc <LL_RCC_SetAHBPrescaler>
  LL_RCC_SetAPB1Prescaler(LL_RCC_APB1_DIV_1);
 80017f2:	2000      	movs	r0, #0
 80017f4:	f7ff fc16 	bl	8001024 <LL_RCC_SetAPB1Prescaler>
  LL_RCC_SetAPB2Prescaler(LL_RCC_APB2_DIV_1);
 80017f8:	2000      	movs	r0, #0
 80017fa:	f7ff fc27 	bl	800104c <LL_RCC_SetAPB2Prescaler>
  LL_SetSystemCoreClock(170000000);
 80017fe:	4807      	ldr	r0, [pc, #28]	@ (800181c <SystemClock_Config+0xac>)
 8001800:	f003 f972 	bl	8004ae8 <LL_SetSystemCoreClock>

  if (HAL_InitTick(TICK_INT_PRIORITY) != HAL_OK)
 8001804:	200f      	movs	r0, #15
 8001806:	f000 fab7 	bl	8001d78 <HAL_InitTick>
 800180a:	4603      	mov	r3, r0
 800180c:	2b00      	cmp	r3, #0
 800180e:	d001      	beq.n	8001814 <SystemClock_Config+0xa4>
  {
    Error_Handler();
 8001810:	f000 fa82 	bl	8001d18 <Error_Handler>
  }
}
 8001814:	bf00      	nop
 8001816:	3708      	adds	r7, #8
 8001818:	46bd      	mov	sp, r7
 800181a:	bd80      	pop	{r7, pc}
 800181c:	0a21fe80 	.word	0x0a21fe80

08001820 <MX_ADC1_Init>:
/* ═══════════════════════════════════════════════════════════════════════════
 * Periferni init — ADC1, TIM8, UART4, DMA, GPIO
 * ═══════════════════════════════════════════════════════════════════════════ */

static void MX_ADC1_Init(void)
{
 8001820:	b580      	push	{r7, lr}
 8001822:	b094      	sub	sp, #80	@ 0x50
 8001824:	af00      	add	r7, sp, #0
  LL_ADC_InitTypeDef ADC_InitStruct = {0};
 8001826:	f107 0340 	add.w	r3, r7, #64	@ 0x40
 800182a:	2200      	movs	r2, #0
 800182c:	601a      	str	r2, [r3, #0]
 800182e:	605a      	str	r2, [r3, #4]
 8001830:	609a      	str	r2, [r3, #8]
  LL_ADC_REG_InitTypeDef ADC_REG_InitStruct = {0};
 8001832:	f107 0328 	add.w	r3, r7, #40	@ 0x28
 8001836:	2200      	movs	r2, #0
 8001838:	601a      	str	r2, [r3, #0]
 800183a:	605a      	str	r2, [r3, #4]
 800183c:	609a      	str	r2, [r3, #8]
 800183e:	60da      	str	r2, [r3, #12]
 8001840:	611a      	str	r2, [r3, #16]
 8001842:	615a      	str	r2, [r3, #20]
  LL_ADC_CommonInitTypeDef ADC_CommonInitStruct = {0};
 8001844:	f107 0318 	add.w	r3, r7, #24
 8001848:	2200      	movs	r2, #0
 800184a:	601a      	str	r2, [r3, #0]
 800184c:	605a      	str	r2, [r3, #4]
 800184e:	609a      	str	r2, [r3, #8]
 8001850:	60da      	str	r2, [r3, #12]
  LL_GPIO_InitTypeDef GPIO_InitStruct = {0};
 8001852:	463b      	mov	r3, r7
 8001854:	2200      	movs	r2, #0
 8001856:	601a      	str	r2, [r3, #0]
 8001858:	605a      	str	r2, [r3, #4]
 800185a:	609a      	str	r2, [r3, #8]
 800185c:	60da      	str	r2, [r3, #12]
 800185e:	611a      	str	r2, [r3, #16]
 8001860:	615a      	str	r2, [r3, #20]

  LL_RCC_SetADCClockSource(LL_RCC_ADC12_CLKSOURCE_SYSCLK);
 8001862:	488a      	ldr	r0, [pc, #552]	@ (8001a8c <MX_ADC1_Init+0x26c>)
 8001864:	f7ff fc20 	bl	80010a8 <LL_RCC_SetADCClockSource>
  LL_AHB2_GRP1_EnableClock(LL_AHB2_GRP1_PERIPH_ADC12);
 8001868:	f44f 5000 	mov.w	r0, #8192	@ 0x2000
 800186c:	f7ff fcac 	bl	80011c8 <LL_AHB2_GRP1_EnableClock>
  LL_AHB2_GRP1_EnableClock(LL_AHB2_GRP1_PERIPH_GPIOC);
 8001870:	2004      	movs	r0, #4
 8001872:	f7ff fca9 	bl	80011c8 <LL_AHB2_GRP1_EnableClock>
  LL_AHB2_GRP1_EnableClock(LL_AHB2_GRP1_PERIPH_GPIOA);
 8001876:	2001      	movs	r0, #1
 8001878:	f7ff fca6 	bl	80011c8 <LL_AHB2_GRP1_EnableClock>
  LL_AHB2_GRP1_EnableClock(LL_AHB2_GRP1_PERIPH_GPIOB);
 800187c:	2002      	movs	r0, #2
 800187e:	f7ff fca3 	bl	80011c8 <LL_AHB2_GRP1_EnableClock>

  /* PC0 → ADC1_IN6 */
  GPIO_InitStruct.Pin = LL_GPIO_PIN_0;
 8001882:	2301      	movs	r3, #1
 8001884:	603b      	str	r3, [r7, #0]
  GPIO_InitStruct.Mode = LL_GPIO_MODE_ANALOG;
 8001886:	2303      	movs	r3, #3
 8001888:	607b      	str	r3, [r7, #4]
  GPIO_InitStruct.Pull = LL_GPIO_PULL_NO;
 800188a:	2300      	movs	r3, #0
 800188c:	613b      	str	r3, [r7, #16]
  LL_GPIO_Init(GPIOC, &GPIO_InitStruct);
 800188e:	463b      	mov	r3, r7
 8001890:	4619      	mov	r1, r3
 8001892:	487f      	ldr	r0, [pc, #508]	@ (8001a90 <MX_ADC1_Init+0x270>)
 8001894:	f002 fc11 	bl	80040ba <LL_GPIO_Init>

  /* PC1 → ADC1_IN7 */
  GPIO_InitStruct.Pin = LL_GPIO_PIN_1;
 8001898:	2302      	movs	r3, #2
 800189a:	603b      	str	r3, [r7, #0]
  LL_GPIO_Init(GPIOC, &GPIO_InitStruct);
 800189c:	463b      	mov	r3, r7
 800189e:	4619      	mov	r1, r3
 80018a0:	487b      	ldr	r0, [pc, #492]	@ (8001a90 <MX_ADC1_Init+0x270>)
 80018a2:	f002 fc0a 	bl	80040ba <LL_GPIO_Init>

  /* PA0 → ADC1_IN1 */
  GPIO_InitStruct.Pin = LL_GPIO_PIN_0;
 80018a6:	2301      	movs	r3, #1
 80018a8:	603b      	str	r3, [r7, #0]
  LL_GPIO_Init(GPIOA, &GPIO_InitStruct);
 80018aa:	463b      	mov	r3, r7
 80018ac:	4619      	mov	r1, r3
 80018ae:	f04f 4090 	mov.w	r0, #1207959552	@ 0x48000000
 80018b2:	f002 fc02 	bl	80040ba <LL_GPIO_Init>

  /* PB14 → ADC1_IN5 */
  GPIO_InitStruct.Pin = LL_GPIO_PIN_14;
 80018b6:	f44f 4380 	mov.w	r3, #16384	@ 0x4000
 80018ba:	603b      	str	r3, [r7, #0]
  LL_GPIO_Init(GPIOB, &GPIO_InitStruct);
 80018bc:	463b      	mov	r3, r7
 80018be:	4619      	mov	r1, r3
 80018c0:	4874      	ldr	r0, [pc, #464]	@ (8001a94 <MX_ADC1_Init+0x274>)
 80018c2:	f002 fbfa 	bl	80040ba <LL_GPIO_Init>

  /* DMA request mapping */
  LL_DMA_SetPeriphRequest(DMA1, LL_DMA_CHANNEL_1, LL_DMAMUX_REQ_ADC1);
 80018c6:	2205      	movs	r2, #5
 80018c8:	2100      	movs	r1, #0
 80018ca:	4873      	ldr	r0, [pc, #460]	@ (8001a98 <MX_ADC1_Init+0x278>)
 80018cc:	f7ff facc 	bl	8000e68 <LL_DMA_SetPeriphRequest>
  LL_DMA_SetDataTransferDirection(DMA1, LL_DMA_CHANNEL_1,
 80018d0:	2200      	movs	r2, #0
 80018d2:	2100      	movs	r1, #0
 80018d4:	4870      	ldr	r0, [pc, #448]	@ (8001a98 <MX_ADC1_Init+0x278>)
 80018d6:	f7ff f961 	bl	8000b9c <LL_DMA_SetDataTransferDirection>
                                   LL_DMA_DIRECTION_PERIPH_TO_MEMORY);
  /* ISPRAVKA: LOW → HIGH za real-time audio */
  LL_DMA_SetChannelPriorityLevel(DMA1, LL_DMA_CHANNEL_1, LL_DMA_PRIORITY_HIGH);
 80018da:	f44f 5200 	mov.w	r2, #8192	@ 0x2000
 80018de:	2100      	movs	r1, #0
 80018e0:	486d      	ldr	r0, [pc, #436]	@ (8001a98 <MX_ADC1_Init+0x278>)
 80018e2:	f7ff fa41 	bl	8000d68 <LL_DMA_SetChannelPriorityLevel>
  LL_DMA_SetMode(DMA1, LL_DMA_CHANNEL_1, LL_DMA_MODE_CIRCULAR);
 80018e6:	2220      	movs	r2, #32
 80018e8:	2100      	movs	r1, #0
 80018ea:	486b      	ldr	r0, [pc, #428]	@ (8001a98 <MX_ADC1_Init+0x278>)
 80018ec:	f7ff f97e 	bl	8000bec <LL_DMA_SetMode>
  LL_DMA_SetPeriphIncMode(DMA1, LL_DMA_CHANNEL_1, LL_DMA_PERIPH_NOINCREMENT);
 80018f0:	2200      	movs	r2, #0
 80018f2:	2100      	movs	r1, #0
 80018f4:	4868      	ldr	r0, [pc, #416]	@ (8001a98 <MX_ADC1_Init+0x278>)
 80018f6:	f7ff f99f 	bl	8000c38 <LL_DMA_SetPeriphIncMode>
  LL_DMA_SetMemoryIncMode(DMA1, LL_DMA_CHANNEL_1, LL_DMA_MEMORY_INCREMENT);
 80018fa:	2280      	movs	r2, #128	@ 0x80
 80018fc:	2100      	movs	r1, #0
 80018fe:	4866      	ldr	r0, [pc, #408]	@ (8001a98 <MX_ADC1_Init+0x278>)
 8001900:	f7ff f9c0 	bl	8000c84 <LL_DMA_SetMemoryIncMode>
  LL_DMA_SetPeriphSize(DMA1, LL_DMA_CHANNEL_1, LL_DMA_PDATAALIGN_HALFWORD);
 8001904:	f44f 7280 	mov.w	r2, #256	@ 0x100
 8001908:	2100      	movs	r1, #0
 800190a:	4863      	ldr	r0, [pc, #396]	@ (8001a98 <MX_ADC1_Init+0x278>)
 800190c:	f7ff f9e0 	bl	8000cd0 <LL_DMA_SetPeriphSize>
  LL_DMA_SetMemorySize(DMA1, LL_DMA_CHANNEL_1, LL_DMA_MDATAALIGN_HALFWORD);
 8001910:	f44f 6280 	mov.w	r2, #1024	@ 0x400
 8001914:	2100      	movs	r1, #0
 8001916:	4860      	ldr	r0, [pc, #384]	@ (8001a98 <MX_ADC1_Init+0x278>)
 8001918:	f7ff fa00 	bl	8000d1c <LL_DMA_SetMemorySize>

  NVIC_SetPriority(ADC1_2_IRQn,
 800191c:	f7fe ff14 	bl	8000748 <__NVIC_GetPriorityGrouping>
 8001920:	4603      	mov	r3, r0
 8001922:	2200      	movs	r2, #0
 8001924:	2105      	movs	r1, #5
 8001926:	4618      	mov	r0, r3
 8001928:	f7fe ff64 	bl	80007f4 <NVIC_EncodePriority>
 800192c:	4603      	mov	r3, r0
 800192e:	4619      	mov	r1, r3
 8001930:	2012      	movs	r0, #18
 8001932:	f7fe ff35 	bl	80007a0 <__NVIC_SetPriority>
                   NVIC_EncodePriority(NVIC_GetPriorityGrouping(), 5, 0));
  NVIC_EnableIRQ(ADC1_2_IRQn);
 8001936:	2012      	movs	r0, #18
 8001938:	f7fe ff14 	bl	8000764 <__NVIC_EnableIRQ>

  ADC_InitStruct.Resolution = LL_ADC_RESOLUTION_12B;
 800193c:	2300      	movs	r3, #0
 800193e:	643b      	str	r3, [r7, #64]	@ 0x40
  ADC_InitStruct.DataAlignment = LL_ADC_DATA_ALIGN_RIGHT;
 8001940:	2300      	movs	r3, #0
 8001942:	647b      	str	r3, [r7, #68]	@ 0x44
  ADC_InitStruct.LowPowerMode = LL_ADC_LP_MODE_NONE;
 8001944:	2300      	movs	r3, #0
 8001946:	64bb      	str	r3, [r7, #72]	@ 0x48
  LL_ADC_Init(ADC1, &ADC_InitStruct);
 8001948:	f107 0340 	add.w	r3, r7, #64	@ 0x40
 800194c:	4619      	mov	r1, r3
 800194e:	f04f 40a0 	mov.w	r0, #1342177280	@ 0x50000000
 8001952:	f002 f9f7 	bl	8003d44 <LL_ADC_Init>

  ADC_REG_InitStruct.TriggerSource = LL_ADC_REG_TRIG_EXT_TIM8_TRGO;
 8001956:	f44f 639c 	mov.w	r3, #1248	@ 0x4e0
 800195a:	62bb      	str	r3, [r7, #40]	@ 0x28
  ADC_REG_InitStruct.SequencerLength = LL_ADC_REG_SEQ_SCAN_ENABLE_4RANKS;
 800195c:	2303      	movs	r3, #3
 800195e:	62fb      	str	r3, [r7, #44]	@ 0x2c
  ADC_REG_InitStruct.SequencerDiscont = LL_ADC_REG_SEQ_DISCONT_DISABLE;
 8001960:	2300      	movs	r3, #0
 8001962:	633b      	str	r3, [r7, #48]	@ 0x30
  ADC_REG_InitStruct.ContinuousMode = LL_ADC_REG_CONV_SINGLE;
 8001964:	2300      	movs	r3, #0
 8001966:	637b      	str	r3, [r7, #52]	@ 0x34
  ADC_REG_InitStruct.DMATransfer = LL_ADC_REG_DMA_TRANSFER_UNLIMITED;
 8001968:	2303      	movs	r3, #3
 800196a:	63bb      	str	r3, [r7, #56]	@ 0x38
  ADC_REG_InitStruct.Overrun = LL_ADC_REG_OVR_DATA_PRESERVED;
 800196c:	2300      	movs	r3, #0
 800196e:	63fb      	str	r3, [r7, #60]	@ 0x3c
  LL_ADC_REG_Init(ADC1, &ADC_REG_InitStruct);
 8001970:	f107 0328 	add.w	r3, r7, #40	@ 0x28
 8001974:	4619      	mov	r1, r3
 8001976:	f04f 40a0 	mov.w	r0, #1342177280	@ 0x50000000
 800197a:	f002 fa09 	bl	8003d90 <LL_ADC_REG_Init>

  LL_ADC_SetGainCompensation(ADC1, 0);
 800197e:	2100      	movs	r1, #0
 8001980:	f04f 40a0 	mov.w	r0, #1342177280	@ 0x50000000
 8001984:	f7fe ff90 	bl	80008a8 <LL_ADC_SetGainCompensation>
  LL_ADC_SetOverSamplingScope(ADC1, LL_ADC_OVS_DISABLE);
 8001988:	2100      	movs	r1, #0
 800198a:	f04f 40a0 	mov.w	r0, #1342177280	@ 0x50000000
 800198e:	f7ff f83f 	bl	8000a10 <LL_ADC_SetOverSamplingScope>

  ADC_CommonInitStruct.CommonClock = LL_ADC_CLOCK_SYNC_PCLK_DIV4;
 8001992:	f44f 3340 	mov.w	r3, #196608	@ 0x30000
 8001996:	61bb      	str	r3, [r7, #24]
  ADC_CommonInitStruct.Multimode = LL_ADC_MULTI_INDEPENDENT;
 8001998:	2300      	movs	r3, #0
 800199a:	61fb      	str	r3, [r7, #28]
  LL_ADC_CommonInit(__LL_ADC_COMMON_INSTANCE(ADC1), &ADC_CommonInitStruct);
 800199c:	f107 0318 	add.w	r3, r7, #24
 80019a0:	4619      	mov	r1, r3
 80019a2:	483e      	ldr	r0, [pc, #248]	@ (8001a9c <MX_ADC1_Init+0x27c>)
 80019a4:	f002 f96a 	bl	8003c7c <LL_ADC_CommonInit>
  LL_ADC_REG_SetTriggerEdge(ADC1, LL_ADC_REG_TRIG_EXT_RISING);
 80019a8:	f44f 6180 	mov.w	r1, #1024	@ 0x400
 80019ac:	f04f 40a0 	mov.w	r0, #1342177280	@ 0x50000000
 80019b0:	f7fe ff9f 	bl	80008f2 <LL_ADC_REG_SetTriggerEdge>

  LL_ADC_DisableDeepPowerDown(ADC1);
 80019b4:	f04f 40a0 	mov.w	r0, #1342177280	@ 0x50000000
 80019b8:	f7ff f83f 	bl	8000a3a <LL_ADC_DisableDeepPowerDown>
  LL_ADC_EnableInternalRegulator(ADC1);
 80019bc:	f04f 40a0 	mov.w	r0, #1342177280	@ 0x50000000
 80019c0:	f7ff f84d 	bl	8000a5e <LL_ADC_EnableInternalRegulator>

  uint32_t wait_loop_index;
  wait_loop_index = ((LL_ADC_DELAY_INTERNAL_REGUL_STAB_US
                     * (SystemCoreClock / (100000 * 2))) / 10);
 80019c4:	4b36      	ldr	r3, [pc, #216]	@ (8001aa0 <MX_ADC1_Init+0x280>)
 80019c6:	681b      	ldr	r3, [r3, #0]
 80019c8:	099b      	lsrs	r3, r3, #6
 80019ca:	4a36      	ldr	r2, [pc, #216]	@ (8001aa4 <MX_ADC1_Init+0x284>)
 80019cc:	fba2 2303 	umull	r2, r3, r2, r3
 80019d0:	099a      	lsrs	r2, r3, #6
 80019d2:	4613      	mov	r3, r2
 80019d4:	009b      	lsls	r3, r3, #2
 80019d6:	4413      	add	r3, r2
 80019d8:	009b      	lsls	r3, r3, #2
 80019da:	461a      	mov	r2, r3
  wait_loop_index = ((LL_ADC_DELAY_INTERNAL_REGUL_STAB_US
 80019dc:	4b32      	ldr	r3, [pc, #200]	@ (8001aa8 <MX_ADC1_Init+0x288>)
 80019de:	fba3 2302 	umull	r2, r3, r3, r2
 80019e2:	08db      	lsrs	r3, r3, #3
 80019e4:	64fb      	str	r3, [r7, #76]	@ 0x4c
  while(wait_loop_index != 0) { wait_loop_index--; }
 80019e6:	e002      	b.n	80019ee <MX_ADC1_Init+0x1ce>
 80019e8:	6cfb      	ldr	r3, [r7, #76]	@ 0x4c
 80019ea:	3b01      	subs	r3, #1
 80019ec:	64fb      	str	r3, [r7, #76]	@ 0x4c
 80019ee:	6cfb      	ldr	r3, [r7, #76]	@ 0x4c
 80019f0:	2b00      	cmp	r3, #0
 80019f2:	d1f9      	bne.n	80019e8 <MX_ADC1_Init+0x1c8>

  /* Scan sekvenca: RANK1=CH1(PA0), RANK2=CH5(PB14), RANK3=CH6(PC0), RANK4=CH7(PC1) */
  LL_ADC_REG_SetSequencerRanks(ADC1, LL_ADC_REG_RANK_1, LL_ADC_CHANNEL_1);
 80019f4:	4a2d      	ldr	r2, [pc, #180]	@ (8001aac <MX_ADC1_Init+0x28c>)
 80019f6:	2106      	movs	r1, #6
 80019f8:	f04f 40a0 	mov.w	r0, #1342177280	@ 0x50000000
 80019fc:	f7fe ff8c 	bl	8000918 <LL_ADC_REG_SetSequencerRanks>
  LL_ADC_SetChannelSamplingTime(ADC1, LL_ADC_CHANNEL_1, LL_ADC_SAMPLINGTIME_24CYCLES_5);
 8001a00:	2203      	movs	r2, #3
 8001a02:	492a      	ldr	r1, [pc, #168]	@ (8001aac <MX_ADC1_Init+0x28c>)
 8001a04:	f04f 40a0 	mov.w	r0, #1342177280	@ 0x50000000
 8001a08:	f7fe ffb2 	bl	8000970 <LL_ADC_SetChannelSamplingTime>
  LL_ADC_SetChannelSingleDiff(ADC1, LL_ADC_CHANNEL_1, LL_ADC_SINGLE_ENDED);
 8001a0c:	227f      	movs	r2, #127	@ 0x7f
 8001a0e:	4927      	ldr	r1, [pc, #156]	@ (8001aac <MX_ADC1_Init+0x28c>)
 8001a10:	f04f 40a0 	mov.w	r0, #1342177280	@ 0x50000000
 8001a14:	f7fe ffd8 	bl	80009c8 <LL_ADC_SetChannelSingleDiff>

  LL_ADC_REG_SetSequencerRanks(ADC1, LL_ADC_REG_RANK_2, LL_ADC_CHANNEL_5);
 8001a18:	4a25      	ldr	r2, [pc, #148]	@ (8001ab0 <MX_ADC1_Init+0x290>)
 8001a1a:	210c      	movs	r1, #12
 8001a1c:	f04f 40a0 	mov.w	r0, #1342177280	@ 0x50000000
 8001a20:	f7fe ff7a 	bl	8000918 <LL_ADC_REG_SetSequencerRanks>
  LL_ADC_SetChannelSamplingTime(ADC1, LL_ADC_CHANNEL_5, LL_ADC_SAMPLINGTIME_24CYCLES_5);
 8001a24:	2203      	movs	r2, #3
 8001a26:	4922      	ldr	r1, [pc, #136]	@ (8001ab0 <MX_ADC1_Init+0x290>)
 8001a28:	f04f 40a0 	mov.w	r0, #1342177280	@ 0x50000000
 8001a2c:	f7fe ffa0 	bl	8000970 <LL_ADC_SetChannelSamplingTime>
  LL_ADC_SetChannelSingleDiff(ADC1, LL_ADC_CHANNEL_5, LL_ADC_SINGLE_ENDED);
 8001a30:	227f      	movs	r2, #127	@ 0x7f
 8001a32:	491f      	ldr	r1, [pc, #124]	@ (8001ab0 <MX_ADC1_Init+0x290>)
 8001a34:	f04f 40a0 	mov.w	r0, #1342177280	@ 0x50000000
 8001a38:	f7fe ffc6 	bl	80009c8 <LL_ADC_SetChannelSingleDiff>

  LL_ADC_REG_SetSequencerRanks(ADC1, LL_ADC_REG_RANK_3, LL_ADC_CHANNEL_6);
 8001a3c:	4a1d      	ldr	r2, [pc, #116]	@ (8001ab4 <MX_ADC1_Init+0x294>)
 8001a3e:	2112      	movs	r1, #18
 8001a40:	f04f 40a0 	mov.w	r0, #1342177280	@ 0x50000000
 8001a44:	f7fe ff68 	bl	8000918 <LL_ADC_REG_SetSequencerRanks>
  LL_ADC_SetChannelSamplingTime(ADC1, LL_ADC_CHANNEL_6, LL_ADC_SAMPLINGTIME_24CYCLES_5);
 8001a48:	2203      	movs	r2, #3
 8001a4a:	491a      	ldr	r1, [pc, #104]	@ (8001ab4 <MX_ADC1_Init+0x294>)
 8001a4c:	f04f 40a0 	mov.w	r0, #1342177280	@ 0x50000000
 8001a50:	f7fe ff8e 	bl	8000970 <LL_ADC_SetChannelSamplingTime>
  LL_ADC_SetChannelSingleDiff(ADC1, LL_ADC_CHANNEL_6, LL_ADC_SINGLE_ENDED);
 8001a54:	227f      	movs	r2, #127	@ 0x7f
 8001a56:	4917      	ldr	r1, [pc, #92]	@ (8001ab4 <MX_ADC1_Init+0x294>)
 8001a58:	f04f 40a0 	mov.w	r0, #1342177280	@ 0x50000000
 8001a5c:	f7fe ffb4 	bl	80009c8 <LL_ADC_SetChannelSingleDiff>

  LL_ADC_REG_SetSequencerRanks(ADC1, LL_ADC_REG_RANK_4, LL_ADC_CHANNEL_7);
 8001a60:	4a15      	ldr	r2, [pc, #84]	@ (8001ab8 <MX_ADC1_Init+0x298>)
 8001a62:	2118      	movs	r1, #24
 8001a64:	f04f 40a0 	mov.w	r0, #1342177280	@ 0x50000000
 8001a68:	f7fe ff56 	bl	8000918 <LL_ADC_REG_SetSequencerRanks>
  LL_ADC_SetChannelSamplingTime(ADC1, LL_ADC_CHANNEL_7, LL_ADC_SAMPLINGTIME_24CYCLES_5);
 8001a6c:	2203      	movs	r2, #3
 8001a6e:	4912      	ldr	r1, [pc, #72]	@ (8001ab8 <MX_ADC1_Init+0x298>)
 8001a70:	f04f 40a0 	mov.w	r0, #1342177280	@ 0x50000000
 8001a74:	f7fe ff7c 	bl	8000970 <LL_ADC_SetChannelSamplingTime>
  LL_ADC_SetChannelSingleDiff(ADC1, LL_ADC_CHANNEL_7, LL_ADC_SINGLE_ENDED);
 8001a78:	227f      	movs	r2, #127	@ 0x7f
 8001a7a:	490f      	ldr	r1, [pc, #60]	@ (8001ab8 <MX_ADC1_Init+0x298>)
 8001a7c:	f04f 40a0 	mov.w	r0, #1342177280	@ 0x50000000
 8001a80:	f7fe ffa2 	bl	80009c8 <LL_ADC_SetChannelSingleDiff>
}
 8001a84:	bf00      	nop
 8001a86:	3750      	adds	r7, #80	@ 0x50
 8001a88:	46bd      	mov	sp, r7
 8001a8a:	bd80      	pop	{r7, pc}
 8001a8c:	001c0002 	.word	0x001c0002
 8001a90:	48000800 	.word	0x48000800
 8001a94:	48000400 	.word	0x48000400
 8001a98:	40020000 	.word	0x40020000
 8001a9c:	50000300 	.word	0x50000300
 8001aa0:	20000000 	.word	0x20000000
 8001aa4:	053e2d63 	.word	0x053e2d63
 8001aa8:	cccccccd 	.word	0xcccccccd
 8001aac:	04300002 	.word	0x04300002
 8001ab0:	14f00020 	.word	0x14f00020
 8001ab4:	19200040 	.word	0x19200040
 8001ab8:	1d500080 	.word	0x1d500080

08001abc <MX_TIM8_Init>:

static void MX_TIM8_Init(void)
{
 8001abc:	b580      	push	{r7, lr}
 8001abe:	b086      	sub	sp, #24
 8001ac0:	af00      	add	r7, sp, #0
  LL_TIM_InitTypeDef TIM_InitStruct = {0};
 8001ac2:	1d3b      	adds	r3, r7, #4
 8001ac4:	2200      	movs	r2, #0
 8001ac6:	601a      	str	r2, [r3, #0]
 8001ac8:	605a      	str	r2, [r3, #4]
 8001aca:	609a      	str	r2, [r3, #8]
 8001acc:	60da      	str	r2, [r3, #12]
 8001ace:	611a      	str	r2, [r3, #16]

  LL_APB2_GRP1_EnableClock(LL_APB2_GRP1_PERIPH_TIM8);
 8001ad0:	f44f 5000 	mov.w	r0, #8192	@ 0x2000
 8001ad4:	f7ff fba8 	bl	8001228 <LL_APB2_GRP1_EnableClock>
   * 4 kanala × 37 ciklusa × 23.5 ns = 3.48 µs za sva 4 kanala
   * Timer period = 1/64 kHz = 15.6 µs → dovoljno vremena za konverziju.
   *
   * Offset između kanala: 37 ADC ciklusa × 23.5 ns ≈ 0.87 µs ≈ 0.9 µs
   * Ovo je CH_DELAY_S u TwoDimSoundLoc i koristi se za korekciju TDOA. */
  TIM_InitStruct.Prescaler = 0;
 8001ad8:	2300      	movs	r3, #0
 8001ada:	80bb      	strh	r3, [r7, #4]
  TIM_InitStruct.CounterMode = LL_TIM_COUNTERMODE_UP;
 8001adc:	2300      	movs	r3, #0
 8001ade:	60bb      	str	r3, [r7, #8]
  TIM_InitStruct.Autoreload = 2655;
 8001ae0:	f640 235f 	movw	r3, #2655	@ 0xa5f
 8001ae4:	60fb      	str	r3, [r7, #12]
  TIM_InitStruct.ClockDivision = LL_TIM_CLOCKDIVISION_DIV1;
 8001ae6:	2300      	movs	r3, #0
 8001ae8:	613b      	str	r3, [r7, #16]
  TIM_InitStruct.RepetitionCounter = 0;
 8001aea:	2300      	movs	r3, #0
 8001aec:	617b      	str	r3, [r7, #20]
  LL_TIM_Init(TIM8, &TIM_InitStruct);
 8001aee:	1d3b      	adds	r3, r7, #4
 8001af0:	4619      	mov	r1, r3
 8001af2:	480c      	ldr	r0, [pc, #48]	@ (8001b24 <MX_TIM8_Init+0x68>)
 8001af4:	f002 fe32 	bl	800475c <LL_TIM_Init>
  LL_TIM_DisableARRPreload(TIM8);
 8001af8:	480a      	ldr	r0, [pc, #40]	@ (8001b24 <MX_TIM8_Init+0x68>)
 8001afa:	f7ff fbf1 	bl	80012e0 <LL_TIM_DisableARRPreload>
  LL_TIM_SetClockSource(TIM8, LL_TIM_CLOCKSOURCE_INTERNAL);
 8001afe:	2100      	movs	r1, #0
 8001b00:	4808      	ldr	r0, [pc, #32]	@ (8001b24 <MX_TIM8_Init+0x68>)
 8001b02:	f7ff fbfd 	bl	8001300 <LL_TIM_SetClockSource>
  LL_TIM_SetTriggerOutput(TIM8, LL_TIM_TRGO_UPDATE);
 8001b06:	2120      	movs	r1, #32
 8001b08:	4806      	ldr	r0, [pc, #24]	@ (8001b24 <MX_TIM8_Init+0x68>)
 8001b0a:	f7ff fc0e 	bl	800132a <LL_TIM_SetTriggerOutput>
  LL_TIM_SetTriggerOutput2(TIM8, LL_TIM_TRGO2_RESET);
 8001b0e:	2100      	movs	r1, #0
 8001b10:	4804      	ldr	r0, [pc, #16]	@ (8001b24 <MX_TIM8_Init+0x68>)
 8001b12:	f7ff fc1f 	bl	8001354 <LL_TIM_SetTriggerOutput2>
  LL_TIM_DisableMasterSlaveMode(TIM8);
 8001b16:	4803      	ldr	r0, [pc, #12]	@ (8001b24 <MX_TIM8_Init+0x68>)
 8001b18:	f7ff fc2f 	bl	800137a <LL_TIM_DisableMasterSlaveMode>
}
 8001b1c:	bf00      	nop
 8001b1e:	3718      	adds	r7, #24
 8001b20:	46bd      	mov	sp, r7
 8001b22:	bd80      	pop	{r7, pc}
 8001b24:	40013400 	.word	0x40013400

08001b28 <MX_UART4_Init>:

static void MX_UART4_Init(void)
{
 8001b28:	b580      	push	{r7, lr}
 8001b2a:	b08e      	sub	sp, #56	@ 0x38
 8001b2c:	af00      	add	r7, sp, #0
  LL_USART_InitTypeDef USART_InitStruct = {0};
 8001b2e:	f107 0318 	add.w	r3, r7, #24
 8001b32:	2220      	movs	r2, #32
 8001b34:	2100      	movs	r1, #0
 8001b36:	4618      	mov	r0, r3
 8001b38:	f005 f956 	bl	8006de8 <memset>
  LL_GPIO_InitTypeDef GPIO_InitStruct = {0};
 8001b3c:	463b      	mov	r3, r7
 8001b3e:	2200      	movs	r2, #0
 8001b40:	601a      	str	r2, [r3, #0]
 8001b42:	605a      	str	r2, [r3, #4]
 8001b44:	609a      	str	r2, [r3, #8]
 8001b46:	60da      	str	r2, [r3, #12]
 8001b48:	611a      	str	r2, [r3, #16]
 8001b4a:	615a      	str	r2, [r3, #20]

  LL_RCC_SetUARTClockSource(LL_RCC_UART4_CLKSOURCE_PCLK1);
 8001b4c:	f44f 0040 	mov.w	r0, #12582912	@ 0xc00000
 8001b50:	f7ff fa90 	bl	8001074 <LL_RCC_SetUARTClockSource>
  LL_APB1_GRP1_EnableClock(LL_APB1_GRP1_PERIPH_UART4);
 8001b54:	f44f 2000 	mov.w	r0, #524288	@ 0x80000
 8001b58:	f7ff fb4e 	bl	80011f8 <LL_APB1_GRP1_EnableClock>
  LL_AHB2_GRP1_EnableClock(LL_AHB2_GRP1_PERIPH_GPIOC);
 8001b5c:	2004      	movs	r0, #4
 8001b5e:	f7ff fb33 	bl	80011c8 <LL_AHB2_GRP1_EnableClock>

  /* PC10 → UART4_TX */
  GPIO_InitStruct.Pin = LL_GPIO_PIN_10;
 8001b62:	f44f 6380 	mov.w	r3, #1024	@ 0x400
 8001b66:	603b      	str	r3, [r7, #0]
  GPIO_InitStruct.Mode = LL_GPIO_MODE_ALTERNATE;
 8001b68:	2302      	movs	r3, #2
 8001b6a:	607b      	str	r3, [r7, #4]
  GPIO_InitStruct.Speed = LL_GPIO_SPEED_FREQ_LOW;
 8001b6c:	2300      	movs	r3, #0
 8001b6e:	60bb      	str	r3, [r7, #8]
  GPIO_InitStruct.OutputType = LL_GPIO_OUTPUT_PUSHPULL;
 8001b70:	2300      	movs	r3, #0
 8001b72:	60fb      	str	r3, [r7, #12]
  GPIO_InitStruct.Pull = LL_GPIO_PULL_NO;
 8001b74:	2300      	movs	r3, #0
 8001b76:	613b      	str	r3, [r7, #16]
  GPIO_InitStruct.Alternate = LL_GPIO_AF_5;
 8001b78:	2305      	movs	r3, #5
 8001b7a:	617b      	str	r3, [r7, #20]
  LL_GPIO_Init(GPIOC, &GPIO_InitStruct);
 8001b7c:	463b      	mov	r3, r7
 8001b7e:	4619      	mov	r1, r3
 8001b80:	4822      	ldr	r0, [pc, #136]	@ (8001c0c <MX_UART4_Init+0xe4>)
 8001b82:	f002 fa9a 	bl	80040ba <LL_GPIO_Init>

  /* PC11 → UART4_RX */
  GPIO_InitStruct.Pin = LL_GPIO_PIN_11;
 8001b86:	f44f 6300 	mov.w	r3, #2048	@ 0x800
 8001b8a:	603b      	str	r3, [r7, #0]
  LL_GPIO_Init(GPIOC, &GPIO_InitStruct);
 8001b8c:	463b      	mov	r3, r7
 8001b8e:	4619      	mov	r1, r3
 8001b90:	481e      	ldr	r0, [pc, #120]	@ (8001c0c <MX_UART4_Init+0xe4>)
 8001b92:	f002 fa92 	bl	80040ba <LL_GPIO_Init>

  USART_InitStruct.PrescalerValue = LL_USART_PRESCALER_DIV1;
 8001b96:	2300      	movs	r3, #0
 8001b98:	61bb      	str	r3, [r7, #24]
  /* ISPRAVKA: 912600 → 921600 (typo u originalu) */
  USART_InitStruct.BaudRate = 921600;
 8001b9a:	f44f 2361 	mov.w	r3, #921600	@ 0xe1000
 8001b9e:	61fb      	str	r3, [r7, #28]
  USART_InitStruct.DataWidth = LL_USART_DATAWIDTH_8B;
 8001ba0:	2300      	movs	r3, #0
 8001ba2:	623b      	str	r3, [r7, #32]
  USART_InitStruct.StopBits = LL_USART_STOPBITS_1;
 8001ba4:	2300      	movs	r3, #0
 8001ba6:	627b      	str	r3, [r7, #36]	@ 0x24
  USART_InitStruct.Parity = LL_USART_PARITY_NONE;
 8001ba8:	2300      	movs	r3, #0
 8001baa:	62bb      	str	r3, [r7, #40]	@ 0x28
  USART_InitStruct.TransferDirection = LL_USART_DIRECTION_TX_RX;
 8001bac:	230c      	movs	r3, #12
 8001bae:	62fb      	str	r3, [r7, #44]	@ 0x2c
  USART_InitStruct.HardwareFlowControl = LL_USART_HWCONTROL_NONE;
 8001bb0:	2300      	movs	r3, #0
 8001bb2:	633b      	str	r3, [r7, #48]	@ 0x30
  USART_InitStruct.OverSampling = LL_USART_OVERSAMPLING_16;
 8001bb4:	2300      	movs	r3, #0
 8001bb6:	637b      	str	r3, [r7, #52]	@ 0x34
  LL_USART_Init(UART4, &USART_InitStruct);
 8001bb8:	f107 0318 	add.w	r3, r7, #24
 8001bbc:	4619      	mov	r1, r3
 8001bbe:	4814      	ldr	r0, [pc, #80]	@ (8001c10 <MX_UART4_Init+0xe8>)
 8001bc0:	f002 ff0c 	bl	80049dc <LL_USART_Init>
  LL_USART_DisableFIFO(UART4);
 8001bc4:	4812      	ldr	r0, [pc, #72]	@ (8001c10 <MX_UART4_Init+0xe8>)
 8001bc6:	f7ff fbf8 	bl	80013ba <LL_USART_DisableFIFO>
  LL_USART_SetTXFIFOThreshold(UART4, LL_USART_FIFOTHRESHOLD_1_8);
 8001bca:	2100      	movs	r1, #0
 8001bcc:	4810      	ldr	r0, [pc, #64]	@ (8001c10 <MX_UART4_Init+0xe8>)
 8001bce:	f7ff fc04 	bl	80013da <LL_USART_SetTXFIFOThreshold>
  LL_USART_SetRXFIFOThreshold(UART4, LL_USART_FIFOTHRESHOLD_1_8);
 8001bd2:	2100      	movs	r1, #0
 8001bd4:	480e      	ldr	r0, [pc, #56]	@ (8001c10 <MX_UART4_Init+0xe8>)
 8001bd6:	f7ff fc27 	bl	8001428 <LL_USART_SetRXFIFOThreshold>
  LL_USART_ConfigAsyncMode(UART4);
 8001bda:	480d      	ldr	r0, [pc, #52]	@ (8001c10 <MX_UART4_Init+0xe8>)
 8001bdc:	f7ff fc4b 	bl	8001476 <LL_USART_ConfigAsyncMode>

  LL_USART_Enable(UART4);
 8001be0:	480b      	ldr	r0, [pc, #44]	@ (8001c10 <MX_UART4_Init+0xe8>)
 8001be2:	f7ff fbda 	bl	800139a <LL_USART_Enable>
  while((!(LL_USART_IsActiveFlag_TEACK(UART4))) ||
 8001be6:	bf00      	nop
 8001be8:	4809      	ldr	r0, [pc, #36]	@ (8001c10 <MX_UART4_Init+0xe8>)
 8001bea:	f7ff fc80 	bl	80014ee <LL_USART_IsActiveFlag_TEACK>
 8001bee:	4603      	mov	r3, r0
 8001bf0:	2b00      	cmp	r3, #0
 8001bf2:	d0f9      	beq.n	8001be8 <MX_UART4_Init+0xc0>
        (!(LL_USART_IsActiveFlag_REACK(UART4)))) {}
 8001bf4:	4806      	ldr	r0, [pc, #24]	@ (8001c10 <MX_UART4_Init+0xe8>)
 8001bf6:	f7ff fc8e 	bl	8001516 <LL_USART_IsActiveFlag_REACK>
 8001bfa:	4603      	mov	r3, r0
  while((!(LL_USART_IsActiveFlag_TEACK(UART4))) ||
 8001bfc:	2b00      	cmp	r3, #0
 8001bfe:	d0f3      	beq.n	8001be8 <MX_UART4_Init+0xc0>
}
 8001c00:	bf00      	nop
 8001c02:	bf00      	nop
 8001c04:	3738      	adds	r7, #56	@ 0x38
 8001c06:	46bd      	mov	sp, r7
 8001c08:	bd80      	pop	{r7, pc}
 8001c0a:	bf00      	nop
 8001c0c:	48000800 	.word	0x48000800
 8001c10:	40004c00 	.word	0x40004c00

08001c14 <MX_DMA_Init>:

static void MX_DMA_Init(void)
{
 8001c14:	b580      	push	{r7, lr}
 8001c16:	af00      	add	r7, sp, #0
  LL_AHB1_GRP1_EnableClock(LL_AHB1_GRP1_PERIPH_DMAMUX1);
 8001c18:	2004      	movs	r0, #4
 8001c1a:	f7ff fabd 	bl	8001198 <LL_AHB1_GRP1_EnableClock>
  LL_AHB1_GRP1_EnableClock(LL_AHB1_GRP1_PERIPH_DMA1);
 8001c1e:	2001      	movs	r0, #1
 8001c20:	f7ff faba 	bl	8001198 <LL_AHB1_GRP1_EnableClock>

  NVIC_SetPriority(DMA1_Channel1_IRQn,
 8001c24:	f7fe fd90 	bl	8000748 <__NVIC_GetPriorityGrouping>
 8001c28:	4603      	mov	r3, r0
 8001c2a:	2200      	movs	r2, #0
 8001c2c:	2105      	movs	r1, #5
 8001c2e:	4618      	mov	r0, r3
 8001c30:	f7fe fde0 	bl	80007f4 <NVIC_EncodePriority>
 8001c34:	4603      	mov	r3, r0
 8001c36:	4619      	mov	r1, r3
 8001c38:	200b      	movs	r0, #11
 8001c3a:	f7fe fdb1 	bl	80007a0 <__NVIC_SetPriority>
                   NVIC_EncodePriority(NVIC_GetPriorityGrouping(), 5, 0));
  NVIC_EnableIRQ(DMA1_Channel1_IRQn);
 8001c3e:	200b      	movs	r0, #11
 8001c40:	f7fe fd90 	bl	8000764 <__NVIC_EnableIRQ>
}
 8001c44:	bf00      	nop
 8001c46:	bd80      	pop	{r7, pc}

08001c48 <MX_GPIO_Init>:

static void MX_GPIO_Init(void)
{
 8001c48:	b580      	push	{r7, lr}
 8001c4a:	af00      	add	r7, sp, #0
  LL_AHB2_GRP1_EnableClock(LL_AHB2_GRP1_PERIPH_GPIOC);
 8001c4c:	2004      	movs	r0, #4
 8001c4e:	f7ff fabb 	bl	80011c8 <LL_AHB2_GRP1_EnableClock>
  LL_AHB2_GRP1_EnableClock(LL_AHB2_GRP1_PERIPH_GPIOF);
 8001c52:	2020      	movs	r0, #32
 8001c54:	f7ff fab8 	bl	80011c8 <LL_AHB2_GRP1_EnableClock>
  LL_AHB2_GRP1_EnableClock(LL_AHB2_GRP1_PERIPH_GPIOA);
 8001c58:	2001      	movs	r0, #1
 8001c5a:	f7ff fab5 	bl	80011c8 <LL_AHB2_GRP1_EnableClock>
  LL_AHB2_GRP1_EnableClock(LL_AHB2_GRP1_PERIPH_GPIOB);
 8001c5e:	2002      	movs	r0, #2
 8001c60:	f7ff fab2 	bl	80011c8 <LL_AHB2_GRP1_EnableClock>
}
 8001c64:	bf00      	nop
 8001c66:	bd80      	pop	{r7, pc}

08001c68 <StartDefaultTask>:
 * defaultTask — IDLE placeholder. Ne radi ništa korisno.
 * Stack smanjen na 128 words (bio 256) jer ne koristi nikakvu memoriju.
 * Prioritet osPriorityIdle — radi samo kad ništa drugo ne treba CPU.
 */
void StartDefaultTask(void const * argument)
{
 8001c68:	b580      	push	{r7, lr}
 8001c6a:	b082      	sub	sp, #8
 8001c6c:	af00      	add	r7, sp, #0
 8001c6e:	6078      	str	r0, [r7, #4]
  for(;;)
  {
    osDelay(1000);   /* 1s umjesto 1ms — manje besmislenih context switcheva */
 8001c70:	f44f 707a 	mov.w	r0, #1000	@ 0x3e8
 8001c74:	f002 ffa0 	bl	8004bb8 <osDelay>
 8001c78:	e7fa      	b.n	8001c70 <StartDefaultTask+0x8>
	...

08001c7c <StartProcessTask>:
 *   - Audio frame šalje uartTask na nižem prioritetu. Kad DMA event stigne,
 *     processTask preemptira uartTask, kopira podatke, i vrati se.
 *     UART hardver drži stanje, uartTask nastavlja slanje kad se vrati.
 */
void StartProcessTask(void const * argument)
{
 8001c7c:	b580      	push	{r7, lr}
 8001c7e:	b088      	sub	sp, #32
 8001c80:	af00      	add	r7, sp, #0
 8001c82:	6078      	str	r0, [r7, #4]
  uint8_t frame_skip_cnt = 0;
#endif

  for(;;)
  {
    osEvent evt = osMessageGet(queueDmaEventHandle, osWaitForever);
 8001c84:	4b17      	ldr	r3, [pc, #92]	@ (8001ce4 <StartProcessTask+0x68>)
 8001c86:	6819      	ldr	r1, [r3, #0]
 8001c88:	f107 0308 	add.w	r3, r7, #8
 8001c8c:	f04f 32ff 	mov.w	r2, #4294967295
 8001c90:	4618      	mov	r0, r3
 8001c92:	f002 fff7 	bl	8004c84 <osMessageGet>
    if (evt.status != osEventMessage) continue;
 8001c96:	68bb      	ldr	r3, [r7, #8]
 8001c98:	2b10      	cmp	r3, #16
 8001c9a:	d120      	bne.n	8001cde <StartProcessTask+0x62>

    uint32_t buf_sel = evt.value.v;
 8001c9c:	68fb      	ldr	r3, [r7, #12]
 8001c9e:	61fb      	str	r3, [r7, #28]
    const uint16_t *src = &adc_buffer[buf_sel * HALF_BUFFER];
 8001ca0:	69fb      	ldr	r3, [r7, #28]
 8001ca2:	02db      	lsls	r3, r3, #11
 8001ca4:	005b      	lsls	r3, r3, #1
 8001ca6:	4a10      	ldr	r2, [pc, #64]	@ (8001ce8 <StartProcessTask+0x6c>)
 8001ca8:	4413      	add	r3, r2
 8001caa:	61bb      	str	r3, [r7, #24]
    memcpy(uart_msg.audio_snapshot, src, HALF_BUFFER * sizeof(uint16_t));
    const uint16_t *proc_buf = uart_msg.audio_snapshot;
#else
    /* Bez slanja audija — direktno čitamo iz DMA buffera.
     * LOC_Process traje <<1 ms, DMA ne prepiše ovu polovicu 8 ms. */
    const uint16_t *proc_buf = src;
 8001cac:	69bb      	ldr	r3, [r7, #24]
 8001cae:	617b      	str	r3, [r7, #20]
#endif

    uart_msg.angle_valid = LOC_Process(
 8001cb0:	4a0e      	ldr	r2, [pc, #56]	@ (8001cec <StartProcessTask+0x70>)
 8001cb2:	490f      	ldr	r1, [pc, #60]	@ (8001cf0 <StartProcessTask+0x74>)
 8001cb4:	6978      	ldr	r0, [r7, #20]
 8001cb6:	f7fe fc49 	bl	800054c <LOC_Process>
 8001cba:	4603      	mov	r3, r0
 8001cbc:	461a      	mov	r2, r3
 8001cbe:	4b0c      	ldr	r3, [pc, #48]	@ (8001cf0 <StartProcessTask+0x74>)
 8001cc0:	70da      	strb	r2, [r3, #3]
        proc_buf,
        &uart_msg.phi_tenth_deg,
        &uart_msg.strength
    );

    if (uart_msg.angle_valid)
 8001cc2:	4b0b      	ldr	r3, [pc, #44]	@ (8001cf0 <StartProcessTask+0x74>)
 8001cc4:	78db      	ldrb	r3, [r3, #3]
 8001cc6:	2b00      	cmp	r3, #0
 8001cc8:	d0dc      	beq.n	8001c84 <StartProcessTask+0x8>
    {
      UART_SendAnglePacket(uart_msg.phi_tenth_deg, uart_msg.strength);
 8001cca:	4b09      	ldr	r3, [pc, #36]	@ (8001cf0 <StartProcessTask+0x74>)
 8001ccc:	f9b3 3000 	ldrsh.w	r3, [r3]
 8001cd0:	4a07      	ldr	r2, [pc, #28]	@ (8001cf0 <StartProcessTask+0x74>)
 8001cd2:	7892      	ldrb	r2, [r2, #2]
 8001cd4:	4611      	mov	r1, r2
 8001cd6:	4618      	mov	r0, r3
 8001cd8:	f7ff fc58 	bl	800158c <UART_SendAnglePacket>
 8001cdc:	e7d2      	b.n	8001c84 <StartProcessTask+0x8>
    if (evt.status != osEventMessage) continue;
 8001cde:	bf00      	nop
  {
 8001ce0:	e7d0      	b.n	8001c84 <StartProcessTask+0x8>
 8001ce2:	bf00      	nop
 8001ce4:	200000ac 	.word	0x200000ac
 8001ce8:	200000b0 	.word	0x200000b0
 8001cec:	200020b2 	.word	0x200020b2
 8001cf0:	200020b0 	.word	0x200020b0

08001cf4 <HAL_TIM_PeriodElapsedCallback>:
#endif

/* ═══════════════════════════════════════════════════════════════════════════ */

void HAL_TIM_PeriodElapsedCallback(TIM_HandleTypeDef *htim)
{
 8001cf4:	b580      	push	{r7, lr}
 8001cf6:	b082      	sub	sp, #8
 8001cf8:	af00      	add	r7, sp, #0
 8001cfa:	6078      	str	r0, [r7, #4]
  if (htim->Instance == TIM6)
 8001cfc:	687b      	ldr	r3, [r7, #4]
 8001cfe:	681b      	ldr	r3, [r3, #0]
 8001d00:	4a04      	ldr	r2, [pc, #16]	@ (8001d14 <HAL_TIM_PeriodElapsedCallback+0x20>)
 8001d02:	4293      	cmp	r3, r2
 8001d04:	d101      	bne.n	8001d0a <HAL_TIM_PeriodElapsedCallback+0x16>
  {
    HAL_IncTick();
 8001d06:	f000 fb27 	bl	8002358 <HAL_IncTick>
  }
}
 8001d0a:	bf00      	nop
 8001d0c:	3708      	adds	r7, #8
 8001d0e:	46bd      	mov	sp, r7
 8001d10:	bd80      	pop	{r7, pc}
 8001d12:	bf00      	nop
 8001d14:	40001000 	.word	0x40001000

08001d18 <Error_Handler>:

void Error_Handler(void)
{
 8001d18:	b480      	push	{r7}
 8001d1a:	af00      	add	r7, sp, #0
  __ASM volatile ("cpsid i" : : : "memory");
 8001d1c:	b672      	cpsid	i
}
 8001d1e:	bf00      	nop
  __disable_irq();
  while (1) {}
 8001d20:	bf00      	nop
 8001d22:	e7fd      	b.n	8001d20 <Error_Handler+0x8>

08001d24 <HAL_MspInit>:
/* USER CODE END 0 */
/**
  * Initializes the Global MSP.
  */
void HAL_MspInit(void)
{
 8001d24:	b580      	push	{r7, lr}
 8001d26:	b082      	sub	sp, #8
 8001d28:	af00      	add	r7, sp, #0

  /* USER CODE BEGIN MspInit 0 */

  /* USER CODE END MspInit 0 */

  __HAL_RCC_SYSCFG_CLK_ENABLE();
 8001d2a:	4b12      	ldr	r3, [pc, #72]	@ (8001d74 <HAL_MspInit+0x50>)
 8001d2c:	6e1b      	ldr	r3, [r3, #96]	@ 0x60
 8001d2e:	4a11      	ldr	r2, [pc, #68]	@ (8001d74 <HAL_MspInit+0x50>)
 8001d30:	f043 0301 	orr.w	r3, r3, #1
 8001d34:	6613      	str	r3, [r2, #96]	@ 0x60
 8001d36:	4b0f      	ldr	r3, [pc, #60]	@ (8001d74 <HAL_MspInit+0x50>)
 8001d38:	6e1b      	ldr	r3, [r3, #96]	@ 0x60
 8001d3a:	f003 0301 	and.w	r3, r3, #1
 8001d3e:	607b      	str	r3, [r7, #4]
 8001d40:	687b      	ldr	r3, [r7, #4]
  __HAL_RCC_PWR_CLK_ENABLE();
 8001d42:	4b0c      	ldr	r3, [pc, #48]	@ (8001d74 <HAL_MspInit+0x50>)
 8001d44:	6d9b      	ldr	r3, [r3, #88]	@ 0x58
 8001d46:	4a0b      	ldr	r2, [pc, #44]	@ (8001d74 <HAL_MspInit+0x50>)
 8001d48:	f043 5380 	orr.w	r3, r3, #268435456	@ 0x10000000
 8001d4c:	6593      	str	r3, [r2, #88]	@ 0x58
 8001d4e:	4b09      	ldr	r3, [pc, #36]	@ (8001d74 <HAL_MspInit+0x50>)
 8001d50:	6d9b      	ldr	r3, [r3, #88]	@ 0x58
 8001d52:	f003 5380 	and.w	r3, r3, #268435456	@ 0x10000000
 8001d56:	603b      	str	r3, [r7, #0]
 8001d58:	683b      	ldr	r3, [r7, #0]

  /* System interrupt init*/
  /* PendSV_IRQn interrupt configuration */
  HAL_NVIC_SetPriority(PendSV_IRQn, 15, 0);
 8001d5a:	2200      	movs	r2, #0
 8001d5c:	210f      	movs	r1, #15
 8001d5e:	f06f 0001 	mvn.w	r0, #1
 8001d62:	f000 fbcf 	bl	8002504 <HAL_NVIC_SetPriority>

  /** Disable the internal Pull-Up in Dead Battery pins of UCPD peripheral
  */
  HAL_PWREx_DisableUCPDDeadBattery();
 8001d66:	f000 fdcb 	bl	8002900 <HAL_PWREx_DisableUCPDDeadBattery>

  /* USER CODE BEGIN MspInit 1 */

  /* USER CODE END MspInit 1 */
}
 8001d6a:	bf00      	nop
 8001d6c:	3708      	adds	r7, #8
 8001d6e:	46bd      	mov	sp, r7
 8001d70:	bd80      	pop	{r7, pc}
 8001d72:	bf00      	nop
 8001d74:	40021000 	.word	0x40021000

08001d78 <HAL_InitTick>:
  *         reset by HAL_Init() or at any time when clock is configured, by HAL_RCC_ClockConfig().
  * @param  TickPriority: Tick interrupt priority.
  * @retval HAL status
  */
HAL_StatusTypeDef HAL_InitTick(uint32_t TickPriority)
{
 8001d78:	b580      	push	{r7, lr}
 8001d7a:	b08c      	sub	sp, #48	@ 0x30
 8001d7c:	af00      	add	r7, sp, #0
 8001d7e:	6078      	str	r0, [r7, #4]
  RCC_ClkInitTypeDef    clkconfig;
  uint32_t              uwTimclock = 0;
 8001d80:	2300      	movs	r3, #0
 8001d82:	62bb      	str	r3, [r7, #40]	@ 0x28
  uint32_t              uwPrescalerValue = 0;
 8001d84:	2300      	movs	r3, #0
 8001d86:	627b      	str	r3, [r7, #36]	@ 0x24
  uint32_t              pFLatency;

  HAL_StatusTypeDef     status;

  /* Enable TIM6 clock */
  __HAL_RCC_TIM6_CLK_ENABLE();
 8001d88:	4b2c      	ldr	r3, [pc, #176]	@ (8001e3c <HAL_InitTick+0xc4>)
 8001d8a:	6d9b      	ldr	r3, [r3, #88]	@ 0x58
 8001d8c:	4a2b      	ldr	r2, [pc, #172]	@ (8001e3c <HAL_InitTick+0xc4>)
 8001d8e:	f043 0310 	orr.w	r3, r3, #16
 8001d92:	6593      	str	r3, [r2, #88]	@ 0x58
 8001d94:	4b29      	ldr	r3, [pc, #164]	@ (8001e3c <HAL_InitTick+0xc4>)
 8001d96:	6d9b      	ldr	r3, [r3, #88]	@ 0x58
 8001d98:	f003 0310 	and.w	r3, r3, #16
 8001d9c:	60bb      	str	r3, [r7, #8]
 8001d9e:	68bb      	ldr	r3, [r7, #8]

  /* Get clock configuration */
  HAL_RCC_GetClockConfig(&clkconfig, &pFLatency);
 8001da0:	f107 020c 	add.w	r2, r7, #12
 8001da4:	f107 0310 	add.w	r3, r7, #16
 8001da8:	4611      	mov	r1, r2
 8001daa:	4618      	mov	r0, r3
 8001dac:	f000 fe52 	bl	8002a54 <HAL_RCC_GetClockConfig>

  /* Compute TIM6 clock */
  uwTimclock = HAL_RCC_GetPCLK1Freq();
 8001db0:	f000 fe24 	bl	80029fc <HAL_RCC_GetPCLK1Freq>
 8001db4:	62b8      	str	r0, [r7, #40]	@ 0x28

  /* Compute the prescaler value to have TIM6 counter clock equal to 1MHz */
  uwPrescalerValue = (uint32_t) ((uwTimclock / 1000000U) - 1U);
 8001db6:	6abb      	ldr	r3, [r7, #40]	@ 0x28
 8001db8:	4a21      	ldr	r2, [pc, #132]	@ (8001e40 <HAL_InitTick+0xc8>)
 8001dba:	fba2 2303 	umull	r2, r3, r2, r3
 8001dbe:	0c9b      	lsrs	r3, r3, #18
 8001dc0:	3b01      	subs	r3, #1
 8001dc2:	627b      	str	r3, [r7, #36]	@ 0x24

  /* Initialize TIM6 */
  htim6.Instance = TIM6;
 8001dc4:	4b1f      	ldr	r3, [pc, #124]	@ (8001e44 <HAL_InitTick+0xcc>)
 8001dc6:	4a20      	ldr	r2, [pc, #128]	@ (8001e48 <HAL_InitTick+0xd0>)
 8001dc8:	601a      	str	r2, [r3, #0]
   * Period = [(TIM6CLK/1000) - 1]. to have a (1/1000) s time base.
   * Prescaler = (uwTimclock/1000000 - 1) to have a 1MHz counter clock.
   * ClockDivision = 0
   * Counter direction = Up
   */
  htim6.Init.Period = (1000000U / 1000U) - 1U;
 8001dca:	4b1e      	ldr	r3, [pc, #120]	@ (8001e44 <HAL_InitTick+0xcc>)
 8001dcc:	f240 32e7 	movw	r2, #999	@ 0x3e7
 8001dd0:	60da      	str	r2, [r3, #12]
  htim6.Init.Prescaler = uwPrescalerValue;
 8001dd2:	4a1c      	ldr	r2, [pc, #112]	@ (8001e44 <HAL_InitTick+0xcc>)
 8001dd4:	6a7b      	ldr	r3, [r7, #36]	@ 0x24
 8001dd6:	6053      	str	r3, [r2, #4]
  htim6.Init.ClockDivision = 0;
 8001dd8:	4b1a      	ldr	r3, [pc, #104]	@ (8001e44 <HAL_InitTick+0xcc>)
 8001dda:	2200      	movs	r2, #0
 8001ddc:	611a      	str	r2, [r3, #16]
  htim6.Init.CounterMode = TIM_COUNTERMODE_UP;
 8001dde:	4b19      	ldr	r3, [pc, #100]	@ (8001e44 <HAL_InitTick+0xcc>)
 8001de0:	2200      	movs	r2, #0
 8001de2:	609a      	str	r2, [r3, #8]

  status = HAL_TIM_Base_Init(&htim6);
 8001de4:	4817      	ldr	r0, [pc, #92]	@ (8001e44 <HAL_InitTick+0xcc>)
 8001de6:	f000 fe67 	bl	8002ab8 <HAL_TIM_Base_Init>
 8001dea:	4603      	mov	r3, r0
 8001dec:	f887 302f 	strb.w	r3, [r7, #47]	@ 0x2f
  if (status == HAL_OK)
 8001df0:	f897 302f 	ldrb.w	r3, [r7, #47]	@ 0x2f
 8001df4:	2b00      	cmp	r3, #0
 8001df6:	d11b      	bne.n	8001e30 <HAL_InitTick+0xb8>
  {
    /* Start the TIM time Base generation in interrupt mode */
    status = HAL_TIM_Base_Start_IT(&htim6);
 8001df8:	4812      	ldr	r0, [pc, #72]	@ (8001e44 <HAL_InitTick+0xcc>)
 8001dfa:	f000 febf 	bl	8002b7c <HAL_TIM_Base_Start_IT>
 8001dfe:	4603      	mov	r3, r0
 8001e00:	f887 302f 	strb.w	r3, [r7, #47]	@ 0x2f
    if (status == HAL_OK)
 8001e04:	f897 302f 	ldrb.w	r3, [r7, #47]	@ 0x2f
 8001e08:	2b00      	cmp	r3, #0
 8001e0a:	d111      	bne.n	8001e30 <HAL_InitTick+0xb8>
    {
    /* Enable the TIM6 global Interrupt */
        HAL_NVIC_EnableIRQ(TIM6_DAC_IRQn);
 8001e0c:	2036      	movs	r0, #54	@ 0x36
 8001e0e:	f000 fb93 	bl	8002538 <HAL_NVIC_EnableIRQ>
      /* Configure the SysTick IRQ priority */
      if (TickPriority < (1UL << __NVIC_PRIO_BITS))
 8001e12:	687b      	ldr	r3, [r7, #4]
 8001e14:	2b0f      	cmp	r3, #15
 8001e16:	d808      	bhi.n	8001e2a <HAL_InitTick+0xb2>
      {
        /* Configure the TIM IRQ priority */
        HAL_NVIC_SetPriority(TIM6_DAC_IRQn, TickPriority, 0U);
 8001e18:	2200      	movs	r2, #0
 8001e1a:	6879      	ldr	r1, [r7, #4]
 8001e1c:	2036      	movs	r0, #54	@ 0x36
 8001e1e:	f000 fb71 	bl	8002504 <HAL_NVIC_SetPriority>
        uwTickPrio = TickPriority;
 8001e22:	4a0a      	ldr	r2, [pc, #40]	@ (8001e4c <HAL_InitTick+0xd4>)
 8001e24:	687b      	ldr	r3, [r7, #4]
 8001e26:	6013      	str	r3, [r2, #0]
 8001e28:	e002      	b.n	8001e30 <HAL_InitTick+0xb8>
      }
      else
      {
        status = HAL_ERROR;
 8001e2a:	2301      	movs	r3, #1
 8001e2c:	f887 302f 	strb.w	r3, [r7, #47]	@ 0x2f
      }
    }
  }

 /* Return function status */
  return status;
 8001e30:	f897 302f 	ldrb.w	r3, [r7, #47]	@ 0x2f
}
 8001e34:	4618      	mov	r0, r3
 8001e36:	3730      	adds	r7, #48	@ 0x30
 8001e38:	46bd      	mov	sp, r7
 8001e3a:	bd80      	pop	{r7, pc}
 8001e3c:	40021000 	.word	0x40021000
 8001e40:	431bde83 	.word	0x431bde83
 8001e44:	200020b4 	.word	0x200020b4
 8001e48:	40001000 	.word	0x40001000
 8001e4c:	20000018 	.word	0x20000018

08001e50 <LL_DMA_IsActiveFlag_TC1>:
{
 8001e50:	b480      	push	{r7}
 8001e52:	b083      	sub	sp, #12
 8001e54:	af00      	add	r7, sp, #0
 8001e56:	6078      	str	r0, [r7, #4]
  return ((READ_BIT(DMAx->ISR, DMA_ISR_TCIF1) == (DMA_ISR_TCIF1)) ? 1UL : 0UL);
 8001e58:	687b      	ldr	r3, [r7, #4]
 8001e5a:	681b      	ldr	r3, [r3, #0]
 8001e5c:	f003 0302 	and.w	r3, r3, #2
 8001e60:	2b02      	cmp	r3, #2
 8001e62:	d101      	bne.n	8001e68 <LL_DMA_IsActiveFlag_TC1+0x18>
 8001e64:	2301      	movs	r3, #1
 8001e66:	e000      	b.n	8001e6a <LL_DMA_IsActiveFlag_TC1+0x1a>
 8001e68:	2300      	movs	r3, #0
}
 8001e6a:	4618      	mov	r0, r3
 8001e6c:	370c      	adds	r7, #12
 8001e6e:	46bd      	mov	sp, r7
 8001e70:	f85d 7b04 	ldr.w	r7, [sp], #4
 8001e74:	4770      	bx	lr

08001e76 <LL_DMA_IsActiveFlag_HT1>:
{
 8001e76:	b480      	push	{r7}
 8001e78:	b083      	sub	sp, #12
 8001e7a:	af00      	add	r7, sp, #0
 8001e7c:	6078      	str	r0, [r7, #4]
  return ((READ_BIT(DMAx->ISR, DMA_ISR_HTIF1) == (DMA_ISR_HTIF1)) ? 1UL : 0UL);
 8001e7e:	687b      	ldr	r3, [r7, #4]
 8001e80:	681b      	ldr	r3, [r3, #0]
 8001e82:	f003 0304 	and.w	r3, r3, #4
 8001e86:	2b04      	cmp	r3, #4
 8001e88:	d101      	bne.n	8001e8e <LL_DMA_IsActiveFlag_HT1+0x18>
 8001e8a:	2301      	movs	r3, #1
 8001e8c:	e000      	b.n	8001e90 <LL_DMA_IsActiveFlag_HT1+0x1a>
 8001e8e:	2300      	movs	r3, #0
}
 8001e90:	4618      	mov	r0, r3
 8001e92:	370c      	adds	r7, #12
 8001e94:	46bd      	mov	sp, r7
 8001e96:	f85d 7b04 	ldr.w	r7, [sp], #4
 8001e9a:	4770      	bx	lr

08001e9c <LL_DMA_ClearFlag_TC1>:
{
 8001e9c:	b480      	push	{r7}
 8001e9e:	b083      	sub	sp, #12
 8001ea0:	af00      	add	r7, sp, #0
 8001ea2:	6078      	str	r0, [r7, #4]
  WRITE_REG(DMAx->IFCR, DMA_IFCR_CTCIF1);
 8001ea4:	687b      	ldr	r3, [r7, #4]
 8001ea6:	2202      	movs	r2, #2
 8001ea8:	605a      	str	r2, [r3, #4]
}
 8001eaa:	bf00      	nop
 8001eac:	370c      	adds	r7, #12
 8001eae:	46bd      	mov	sp, r7
 8001eb0:	f85d 7b04 	ldr.w	r7, [sp], #4
 8001eb4:	4770      	bx	lr

08001eb6 <LL_DMA_ClearFlag_HT1>:
{
 8001eb6:	b480      	push	{r7}
 8001eb8:	b083      	sub	sp, #12
 8001eba:	af00      	add	r7, sp, #0
 8001ebc:	6078      	str	r0, [r7, #4]
  WRITE_REG(DMAx->IFCR, DMA_IFCR_CHTIF1);
 8001ebe:	687b      	ldr	r3, [r7, #4]
 8001ec0:	2204      	movs	r2, #4
 8001ec2:	605a      	str	r2, [r3, #4]
}
 8001ec4:	bf00      	nop
 8001ec6:	370c      	adds	r7, #12
 8001ec8:	46bd      	mov	sp, r7
 8001eca:	f85d 7b04 	ldr.w	r7, [sp], #4
 8001ece:	4770      	bx	lr

08001ed0 <LL_EXTI_IsActiveFlag_0_31>:
  * @note   (*): Available in some devices
  * @note   Please check each device line mapping for EXTI Line availability
  * @retval State of bit (1 or 0).
  */
__STATIC_INLINE uint32_t LL_EXTI_IsActiveFlag_0_31(uint32_t ExtiLine)
{
 8001ed0:	b480      	push	{r7}
 8001ed2:	b083      	sub	sp, #12
 8001ed4:	af00      	add	r7, sp, #0
 8001ed6:	6078      	str	r0, [r7, #4]
  return ((READ_BIT(EXTI->PR1, ExtiLine) == (ExtiLine)) ? 1UL : 0UL);
 8001ed8:	4b07      	ldr	r3, [pc, #28]	@ (8001ef8 <LL_EXTI_IsActiveFlag_0_31+0x28>)
 8001eda:	695a      	ldr	r2, [r3, #20]
 8001edc:	687b      	ldr	r3, [r7, #4]
 8001ede:	4013      	ands	r3, r2
 8001ee0:	687a      	ldr	r2, [r7, #4]
 8001ee2:	429a      	cmp	r2, r3
 8001ee4:	d101      	bne.n	8001eea <LL_EXTI_IsActiveFlag_0_31+0x1a>
 8001ee6:	2301      	movs	r3, #1
 8001ee8:	e000      	b.n	8001eec <LL_EXTI_IsActiveFlag_0_31+0x1c>
 8001eea:	2300      	movs	r3, #0
}
 8001eec:	4618      	mov	r0, r3
 8001eee:	370c      	adds	r7, #12
 8001ef0:	46bd      	mov	sp, r7
 8001ef2:	f85d 7b04 	ldr.w	r7, [sp], #4
 8001ef6:	4770      	bx	lr
 8001ef8:	40010400 	.word	0x40010400

08001efc <LL_EXTI_ClearFlag_0_31>:
  * @note   (*): Available in some devices
  * @note   Please check each device line mapping for EXTI Line availability
  * @retval None
  */
__STATIC_INLINE void LL_EXTI_ClearFlag_0_31(uint32_t ExtiLine)
{
 8001efc:	b480      	push	{r7}
 8001efe:	b083      	sub	sp, #12
 8001f00:	af00      	add	r7, sp, #0
 8001f02:	6078      	str	r0, [r7, #4]
  WRITE_REG(EXTI->PR1, ExtiLine);
 8001f04:	4a04      	ldr	r2, [pc, #16]	@ (8001f18 <LL_EXTI_ClearFlag_0_31+0x1c>)
 8001f06:	687b      	ldr	r3, [r7, #4]
 8001f08:	6153      	str	r3, [r2, #20]
}
 8001f0a:	bf00      	nop
 8001f0c:	370c      	adds	r7, #12
 8001f0e:	46bd      	mov	sp, r7
 8001f10:	f85d 7b04 	ldr.w	r7, [sp], #4
 8001f14:	4770      	bx	lr
 8001f16:	bf00      	nop
 8001f18:	40010400 	.word	0x40010400

08001f1c <NMI_Handler>:
/******************************************************************************/
/*           Cortex-M4 Processor Interruption and Exception Handlers          */
/******************************************************************************/

void NMI_Handler(void)
{
 8001f1c:	b480      	push	{r7}
 8001f1e:	af00      	add	r7, sp, #0
  while (1) {}
 8001f20:	bf00      	nop
 8001f22:	e7fd      	b.n	8001f20 <NMI_Handler+0x4>

08001f24 <HardFault_Handler>:
}

void HardFault_Handler(void)
{
 8001f24:	b480      	push	{r7}
 8001f26:	af00      	add	r7, sp, #0
  while (1) {}
 8001f28:	bf00      	nop
 8001f2a:	e7fd      	b.n	8001f28 <HardFault_Handler+0x4>

08001f2c <MemManage_Handler>:
}

void MemManage_Handler(void)
{
 8001f2c:	b480      	push	{r7}
 8001f2e:	af00      	add	r7, sp, #0
  while (1) {}
 8001f30:	bf00      	nop
 8001f32:	e7fd      	b.n	8001f30 <MemManage_Handler+0x4>

08001f34 <BusFault_Handler>:
}

void BusFault_Handler(void)
{
 8001f34:	b480      	push	{r7}
 8001f36:	af00      	add	r7, sp, #0
  while (1) {}
 8001f38:	bf00      	nop
 8001f3a:	e7fd      	b.n	8001f38 <BusFault_Handler+0x4>

08001f3c <UsageFault_Handler>:
}

void UsageFault_Handler(void)
{
 8001f3c:	b480      	push	{r7}
 8001f3e:	af00      	add	r7, sp, #0
  while (1) {}
 8001f40:	bf00      	nop
 8001f42:	e7fd      	b.n	8001f40 <UsageFault_Handler+0x4>

08001f44 <DebugMon_Handler>:
}

void DebugMon_Handler(void)
{
 8001f44:	b480      	push	{r7}
 8001f46:	af00      	add	r7, sp, #0
}
 8001f48:	bf00      	nop
 8001f4a:	46bd      	mov	sp, r7
 8001f4c:	f85d 7b04 	ldr.w	r7, [sp], #4
 8001f50:	4770      	bx	lr
	...

08001f54 <DMA1_Channel1_IRQHandler>:
  *   osMessagePut s timeout=0 je FreeRTOS ISR-safe (koristi xQueueSendFromISR).
  *   Ako je queue pun, poruka se odbacuje — to znači da processTask kasni,
  *   što se ne bi trebalo dogoditi s razdvojenim taskovima (obrada < 1 ms).
  */
void DMA1_Channel1_IRQHandler(void)
{
 8001f54:	b580      	push	{r7, lr}
 8001f56:	af00      	add	r7, sp, #0
  if (LL_DMA_IsActiveFlag_HT1(DMA1))
 8001f58:	4810      	ldr	r0, [pc, #64]	@ (8001f9c <DMA1_Channel1_IRQHandler+0x48>)
 8001f5a:	f7ff ff8c 	bl	8001e76 <LL_DMA_IsActiveFlag_HT1>
 8001f5e:	4603      	mov	r3, r0
 8001f60:	2b00      	cmp	r3, #0
 8001f62:	d009      	beq.n	8001f78 <DMA1_Channel1_IRQHandler+0x24>
  {
      LL_DMA_ClearFlag_HT1(DMA1);
 8001f64:	480d      	ldr	r0, [pc, #52]	@ (8001f9c <DMA1_Channel1_IRQHandler+0x48>)
 8001f66:	f7ff ffa6 	bl	8001eb6 <LL_DMA_ClearFlag_HT1>
      osMessagePut(queueDmaEventHandle, 0U, 0);   /* ping: prva polovica */
 8001f6a:	4b0d      	ldr	r3, [pc, #52]	@ (8001fa0 <DMA1_Channel1_IRQHandler+0x4c>)
 8001f6c:	681b      	ldr	r3, [r3, #0]
 8001f6e:	2200      	movs	r2, #0
 8001f70:	2100      	movs	r1, #0
 8001f72:	4618      	mov	r0, r3
 8001f74:	f002 fe46 	bl	8004c04 <osMessagePut>
  }
  if (LL_DMA_IsActiveFlag_TC1(DMA1))
 8001f78:	4808      	ldr	r0, [pc, #32]	@ (8001f9c <DMA1_Channel1_IRQHandler+0x48>)
 8001f7a:	f7ff ff69 	bl	8001e50 <LL_DMA_IsActiveFlag_TC1>
 8001f7e:	4603      	mov	r3, r0
 8001f80:	2b00      	cmp	r3, #0
 8001f82:	d009      	beq.n	8001f98 <DMA1_Channel1_IRQHandler+0x44>
  {
      LL_DMA_ClearFlag_TC1(DMA1);
 8001f84:	4805      	ldr	r0, [pc, #20]	@ (8001f9c <DMA1_Channel1_IRQHandler+0x48>)
 8001f86:	f7ff ff89 	bl	8001e9c <LL_DMA_ClearFlag_TC1>
      osMessagePut(queueDmaEventHandle, 1U, 0);   /* pong: druga polovica */
 8001f8a:	4b05      	ldr	r3, [pc, #20]	@ (8001fa0 <DMA1_Channel1_IRQHandler+0x4c>)
 8001f8c:	681b      	ldr	r3, [r3, #0]
 8001f8e:	2200      	movs	r2, #0
 8001f90:	2101      	movs	r1, #1
 8001f92:	4618      	mov	r0, r3
 8001f94:	f002 fe36 	bl	8004c04 <osMessagePut>
  }
}
 8001f98:	bf00      	nop
 8001f9a:	bd80      	pop	{r7, pc}
 8001f9c:	40020000 	.word	0x40020000
 8001fa0:	200000ac 	.word	0x200000ac

08001fa4 <ADC1_2_IRQHandler>:

void ADC1_2_IRQHandler(void)
{
 8001fa4:	b480      	push	{r7}
 8001fa6:	af00      	add	r7, sp, #0
}
 8001fa8:	bf00      	nop
 8001faa:	46bd      	mov	sp, r7
 8001fac:	f85d 7b04 	ldr.w	r7, [sp], #4
 8001fb0:	4770      	bx	lr

08001fb2 <EXTI15_10_IRQHandler>:

void EXTI15_10_IRQHandler(void)
{
 8001fb2:	b580      	push	{r7, lr}
 8001fb4:	af00      	add	r7, sp, #0
  if (LL_EXTI_IsActiveFlag_0_31(LL_EXTI_LINE_13) != RESET)
 8001fb6:	f44f 5000 	mov.w	r0, #8192	@ 0x2000
 8001fba:	f7ff ff89 	bl	8001ed0 <LL_EXTI_IsActiveFlag_0_31>
 8001fbe:	4603      	mov	r3, r0
 8001fc0:	2b00      	cmp	r3, #0
 8001fc2:	d003      	beq.n	8001fcc <EXTI15_10_IRQHandler+0x1a>
  {
    LL_EXTI_ClearFlag_0_31(LL_EXTI_LINE_13);
 8001fc4:	f44f 5000 	mov.w	r0, #8192	@ 0x2000
 8001fc8:	f7ff ff98 	bl	8001efc <LL_EXTI_ClearFlag_0_31>
  }
}
 8001fcc:	bf00      	nop
 8001fce:	bd80      	pop	{r7, pc}

08001fd0 <TIM6_DAC_IRQHandler>:

void TIM6_DAC_IRQHandler(void)
{
 8001fd0:	b580      	push	{r7, lr}
 8001fd2:	af00      	add	r7, sp, #0
  HAL_TIM_IRQHandler(&htim6);
 8001fd4:	4802      	ldr	r0, [pc, #8]	@ (8001fe0 <TIM6_DAC_IRQHandler+0x10>)
 8001fd6:	f000 fe49 	bl	8002c6c <HAL_TIM_IRQHandler>
}
 8001fda:	bf00      	nop
 8001fdc:	bd80      	pop	{r7, pc}
 8001fde:	bf00      	nop
 8001fe0:	200020b4 	.word	0x200020b4

08001fe4 <SystemInit>:
  * @param  None
  * @retval None
  */

void SystemInit(void)
{
 8001fe4:	b480      	push	{r7}
 8001fe6:	af00      	add	r7, sp, #0
  /* FPU settings ------------------------------------------------------------*/
  #if (__FPU_PRESENT == 1) && (__FPU_USED == 1)
    SCB->CPACR |= ((3UL << (10*2))|(3UL << (11*2)));  /* set CP10 and CP11 Full Access */
 8001fe8:	4b06      	ldr	r3, [pc, #24]	@ (8002004 <SystemInit+0x20>)
 8001fea:	f8d3 3088 	ldr.w	r3, [r3, #136]	@ 0x88
 8001fee:	4a05      	ldr	r2, [pc, #20]	@ (8002004 <SystemInit+0x20>)
 8001ff0:	f443 0370 	orr.w	r3, r3, #15728640	@ 0xf00000
 8001ff4:	f8c2 3088 	str.w	r3, [r2, #136]	@ 0x88

  /* Configure the Vector Table location add offset address ------------------*/
#if defined(USER_VECT_TAB_ADDRESS)
  SCB->VTOR = VECT_TAB_BASE_ADDRESS | VECT_TAB_OFFSET; /* Vector Table Relocation in Internal SRAM */
#endif /* USER_VECT_TAB_ADDRESS */
}
 8001ff8:	bf00      	nop
 8001ffa:	46bd      	mov	sp, r7
 8001ffc:	f85d 7b04 	ldr.w	r7, [sp], #4
 8002000:	4770      	bx	lr
 8002002:	bf00      	nop
 8002004:	e000ed00 	.word	0xe000ed00

08002008 <Reset_Handler>:

    .section	.text.Reset_Handler
	.weak	Reset_Handler
	.type	Reset_Handler, %function
Reset_Handler:
  ldr   r0, =_estack
 8002008:	480d      	ldr	r0, [pc, #52]	@ (8002040 <LoopForever+0x2>)
  mov   sp, r0          /* set stack pointer */
 800200a:	4685      	mov	sp, r0

/* Call the clock system initialization function.*/
    bl  SystemInit
 800200c:	f7ff ffea 	bl	8001fe4 <SystemInit>

/* Copy the data segment initializers from flash to SRAM */
  ldr r0, =_sdata
 8002010:	480c      	ldr	r0, [pc, #48]	@ (8002044 <LoopForever+0x6>)
  ldr r1, =_edata
 8002012:	490d      	ldr	r1, [pc, #52]	@ (8002048 <LoopForever+0xa>)
  ldr r2, =_sidata
 8002014:	4a0d      	ldr	r2, [pc, #52]	@ (800204c <LoopForever+0xe>)
  movs r3, #0
 8002016:	2300      	movs	r3, #0
  b	LoopCopyDataInit
 8002018:	e002      	b.n	8002020 <LoopCopyDataInit>

0800201a <CopyDataInit>:

CopyDataInit:
  ldr r4, [r2, r3]
 800201a:	58d4      	ldr	r4, [r2, r3]
  str r4, [r0, r3]
 800201c:	50c4      	str	r4, [r0, r3]
  adds r3, r3, #4
 800201e:	3304      	adds	r3, #4

08002020 <LoopCopyDataInit>:

LoopCopyDataInit:
  adds r4, r0, r3
 8002020:	18c4      	adds	r4, r0, r3
  cmp r4, r1
 8002022:	428c      	cmp	r4, r1
  bcc CopyDataInit
 8002024:	d3f9      	bcc.n	800201a <CopyDataInit>
  
/* Zero fill the bss segment. */
  ldr r2, =_sbss
 8002026:	4a0a      	ldr	r2, [pc, #40]	@ (8002050 <LoopForever+0x12>)
  ldr r4, =_ebss
 8002028:	4c0a      	ldr	r4, [pc, #40]	@ (8002054 <LoopForever+0x16>)
  movs r3, #0
 800202a:	2300      	movs	r3, #0
  b LoopFillZerobss
 800202c:	e001      	b.n	8002032 <LoopFillZerobss>

0800202e <FillZerobss>:

FillZerobss:
  str  r3, [r2]
 800202e:	6013      	str	r3, [r2, #0]
  adds r2, r2, #4
 8002030:	3204      	adds	r2, #4

08002032 <LoopFillZerobss>:

LoopFillZerobss:
  cmp r2, r4
 8002032:	42a2      	cmp	r2, r4
  bcc FillZerobss
 8002034:	d3fb      	bcc.n	800202e <FillZerobss>

/* Call static constructors */
    bl __libc_init_array
 8002036:	f004 ff43 	bl	8006ec0 <__libc_init_array>
/* Call the application's entry point.*/
	bl	main
 800203a:	f7ff fadd 	bl	80015f8 <main>

0800203e <LoopForever>:

LoopForever:
    b LoopForever
 800203e:	e7fe      	b.n	800203e <LoopForever>
  ldr   r0, =_estack
 8002040:	20020000 	.word	0x20020000
  ldr r0, =_sdata
 8002044:	20000000 	.word	0x20000000
  ldr r1, =_edata
 8002048:	20000074 	.word	0x20000074
  ldr r2, =_sidata
 800204c:	08007310 	.word	0x08007310
  ldr r2, =_sbss
 8002050:	20000074 	.word	0x20000074
  ldr r4, =_ebss
 8002054:	20007434 	.word	0x20007434

08002058 <ADC3_IRQHandler>:
 * @retval : None
*/
    .section	.text.Default_Handler,"ax",%progbits
Default_Handler:
Infinite_Loop:
	b	Infinite_Loop
 8002058:	e7fe      	b.n	8002058 <ADC3_IRQHandler>
	...

0800205c <BSP_LED_Init>:
  *         This parameter can be one of following parameters:
  *           @arg  LED2
  * @retval BSP status
  */
int32_t BSP_LED_Init(Led_TypeDef Led)
{
 800205c:	b580      	push	{r7, lr}
 800205e:	b088      	sub	sp, #32
 8002060:	af00      	add	r7, sp, #0
 8002062:	4603      	mov	r3, r0
 8002064:	71fb      	strb	r3, [r7, #7]
  GPIO_InitTypeDef  gpio_init_structure;

  /* Enable the GPIO LED Clock */
  LED2_GPIO_CLK_ENABLE();
 8002066:	4b16      	ldr	r3, [pc, #88]	@ (80020c0 <BSP_LED_Init+0x64>)
 8002068:	6cdb      	ldr	r3, [r3, #76]	@ 0x4c
 800206a:	4a15      	ldr	r2, [pc, #84]	@ (80020c0 <BSP_LED_Init+0x64>)
 800206c:	f043 0301 	orr.w	r3, r3, #1
 8002070:	64d3      	str	r3, [r2, #76]	@ 0x4c
 8002072:	4b13      	ldr	r3, [pc, #76]	@ (80020c0 <BSP_LED_Init+0x64>)
 8002074:	6cdb      	ldr	r3, [r3, #76]	@ 0x4c
 8002076:	f003 0301 	and.w	r3, r3, #1
 800207a:	60bb      	str	r3, [r7, #8]
 800207c:	68bb      	ldr	r3, [r7, #8]

  /* Configure the GPIO_LED pin */
  gpio_init_structure.Pin   = LED_PIN[Led];
 800207e:	2320      	movs	r3, #32
 8002080:	60fb      	str	r3, [r7, #12]
  gpio_init_structure.Mode  = GPIO_MODE_OUTPUT_PP;
 8002082:	2301      	movs	r3, #1
 8002084:	613b      	str	r3, [r7, #16]
  gpio_init_structure.Pull  = GPIO_NOPULL;
 8002086:	2300      	movs	r3, #0
 8002088:	617b      	str	r3, [r7, #20]
  gpio_init_structure.Speed = GPIO_SPEED_FREQ_VERY_HIGH;
 800208a:	2303      	movs	r3, #3
 800208c:	61bb      	str	r3, [r7, #24]

  HAL_GPIO_Init(LED_PORT[Led], &gpio_init_structure);
 800208e:	79fb      	ldrb	r3, [r7, #7]
 8002090:	4a0c      	ldr	r2, [pc, #48]	@ (80020c4 <BSP_LED_Init+0x68>)
 8002092:	f852 3023 	ldr.w	r3, [r2, r3, lsl #2]
 8002096:	f107 020c 	add.w	r2, r7, #12
 800209a:	4611      	mov	r1, r2
 800209c:	4618      	mov	r0, r3
 800209e:	f000 fa8b 	bl	80025b8 <HAL_GPIO_Init>
  HAL_GPIO_WritePin(LED_PORT[Led], LED_PIN[Led], GPIO_PIN_RESET);
 80020a2:	79fb      	ldrb	r3, [r7, #7]
 80020a4:	4a07      	ldr	r2, [pc, #28]	@ (80020c4 <BSP_LED_Init+0x68>)
 80020a6:	f852 3023 	ldr.w	r3, [r2, r3, lsl #2]
 80020aa:	2120      	movs	r1, #32
 80020ac:	2200      	movs	r2, #0
 80020ae:	4618      	mov	r0, r3
 80020b0:	f000 fc0e 	bl	80028d0 <HAL_GPIO_WritePin>

  return BSP_ERROR_NONE;
 80020b4:	2300      	movs	r3, #0
}
 80020b6:	4618      	mov	r0, r3
 80020b8:	3720      	adds	r7, #32
 80020ba:	46bd      	mov	sp, r7
 80020bc:	bd80      	pop	{r7, pc}
 80020be:	bf00      	nop
 80020c0:	40021000 	.word	0x40021000
 80020c4:	20000004 	.word	0x20000004

080020c8 <BSP_PB_Init>:
  *           @arg BUTTON_MODE_EXTI: Button will be connected to EXTI line
  *                                  with interrupt generation capability
  * @retval BSP status
  */
int32_t BSP_PB_Init(Button_TypeDef Button, ButtonMode_TypeDef ButtonMode)
{
 80020c8:	b580      	push	{r7, lr}
 80020ca:	b088      	sub	sp, #32
 80020cc:	af00      	add	r7, sp, #0
 80020ce:	4603      	mov	r3, r0
 80020d0:	460a      	mov	r2, r1
 80020d2:	71fb      	strb	r3, [r7, #7]
 80020d4:	4613      	mov	r3, r2
 80020d6:	71bb      	strb	r3, [r7, #6]
  static BSP_EXTI_LineCallback ButtonCallback[BUTTONn] = {BUTTON_USER_EXTI_Callback};
  static uint32_t BSP_BUTTON_PRIO [BUTTONn] = {BSP_BUTTON_USER_IT_PRIORITY};
  static const uint32_t BUTTON_EXTI_LINE[BUTTONn] = {USER_BUTTON_EXTI_LINE};

  /* Enable the BUTTON Clock */
  USER_BUTTON_GPIO_CLK_ENABLE();
 80020d8:	4b2c      	ldr	r3, [pc, #176]	@ (800218c <BSP_PB_Init+0xc4>)
 80020da:	6cdb      	ldr	r3, [r3, #76]	@ 0x4c
 80020dc:	4a2b      	ldr	r2, [pc, #172]	@ (800218c <BSP_PB_Init+0xc4>)
 80020de:	f043 0304 	orr.w	r3, r3, #4
 80020e2:	64d3      	str	r3, [r2, #76]	@ 0x4c
 80020e4:	4b29      	ldr	r3, [pc, #164]	@ (800218c <BSP_PB_Init+0xc4>)
 80020e6:	6cdb      	ldr	r3, [r3, #76]	@ 0x4c
 80020e8:	f003 0304 	and.w	r3, r3, #4
 80020ec:	60bb      	str	r3, [r7, #8]
 80020ee:	68bb      	ldr	r3, [r7, #8]

  gpio_init_structure.Pin = BUTTON_PIN[Button];
 80020f0:	f44f 5300 	mov.w	r3, #8192	@ 0x2000
 80020f4:	60fb      	str	r3, [r7, #12]
  gpio_init_structure.Pull = GPIO_PULLDOWN;
 80020f6:	2302      	movs	r3, #2
 80020f8:	617b      	str	r3, [r7, #20]
  gpio_init_structure.Speed = GPIO_SPEED_FREQ_HIGH;
 80020fa:	2302      	movs	r3, #2
 80020fc:	61bb      	str	r3, [r7, #24]

  if(ButtonMode == BUTTON_MODE_GPIO)
 80020fe:	79bb      	ldrb	r3, [r7, #6]
 8002100:	2b00      	cmp	r3, #0
 8002102:	d10c      	bne.n	800211e <BSP_PB_Init+0x56>
  {
    /* Configure Button pin as input */
    gpio_init_structure.Mode = GPIO_MODE_INPUT;
 8002104:	2300      	movs	r3, #0
 8002106:	613b      	str	r3, [r7, #16]
    HAL_GPIO_Init(BUTTON_PORT[Button], &gpio_init_structure);
 8002108:	79fb      	ldrb	r3, [r7, #7]
 800210a:	4a21      	ldr	r2, [pc, #132]	@ (8002190 <BSP_PB_Init+0xc8>)
 800210c:	f852 3023 	ldr.w	r3, [r2, r3, lsl #2]
 8002110:	f107 020c 	add.w	r2, r7, #12
 8002114:	4611      	mov	r1, r2
 8002116:	4618      	mov	r0, r3
 8002118:	f000 fa4e 	bl	80025b8 <HAL_GPIO_Init>
 800211c:	e031      	b.n	8002182 <BSP_PB_Init+0xba>
  }
  else /* (ButtonMode == BUTTON_MODE_EXTI) */
  {
    /* Configure Button pin as input with External interrupt */
    gpio_init_structure.Mode = GPIO_MODE_IT_RISING;
 800211e:	f44f 1388 	mov.w	r3, #1114112	@ 0x110000
 8002122:	613b      	str	r3, [r7, #16]

    HAL_GPIO_Init(BUTTON_PORT[Button], &gpio_init_structure);
 8002124:	79fb      	ldrb	r3, [r7, #7]
 8002126:	4a1a      	ldr	r2, [pc, #104]	@ (8002190 <BSP_PB_Init+0xc8>)
 8002128:	f852 3023 	ldr.w	r3, [r2, r3, lsl #2]
 800212c:	f107 020c 	add.w	r2, r7, #12
 8002130:	4611      	mov	r1, r2
 8002132:	4618      	mov	r0, r3
 8002134:	f000 fa40 	bl	80025b8 <HAL_GPIO_Init>

    (void)HAL_EXTI_GetHandle(&hpb_exti[Button], BUTTON_EXTI_LINE[Button]);
 8002138:	79fb      	ldrb	r3, [r7, #7]
 800213a:	00db      	lsls	r3, r3, #3
 800213c:	4a15      	ldr	r2, [pc, #84]	@ (8002194 <BSP_PB_Init+0xcc>)
 800213e:	441a      	add	r2, r3
 8002140:	79fb      	ldrb	r3, [r7, #7]
 8002142:	4915      	ldr	r1, [pc, #84]	@ (8002198 <BSP_PB_Init+0xd0>)
 8002144:	f851 3023 	ldr.w	r3, [r1, r3, lsl #2]
 8002148:	4619      	mov	r1, r3
 800214a:	4610      	mov	r0, r2
 800214c:	f000 fa1f 	bl	800258e <HAL_EXTI_GetHandle>
    (void)HAL_EXTI_RegisterCallback(&hpb_exti[Button],  HAL_EXTI_COMMON_CB_ID, ButtonCallback[Button]);
 8002150:	79fb      	ldrb	r3, [r7, #7]
 8002152:	00db      	lsls	r3, r3, #3
 8002154:	4a0f      	ldr	r2, [pc, #60]	@ (8002194 <BSP_PB_Init+0xcc>)
 8002156:	1898      	adds	r0, r3, r2
 8002158:	79fb      	ldrb	r3, [r7, #7]
 800215a:	4a10      	ldr	r2, [pc, #64]	@ (800219c <BSP_PB_Init+0xd4>)
 800215c:	f852 3023 	ldr.w	r3, [r2, r3, lsl #2]
 8002160:	461a      	mov	r2, r3
 8002162:	2100      	movs	r1, #0
 8002164:	f000 f9f6 	bl	8002554 <HAL_EXTI_RegisterCallback>

    /* Enable and set Button EXTI Interrupt to the lowest priority */
    HAL_NVIC_SetPriority((BUTTON_IRQn[Button]), BSP_BUTTON_PRIO[Button], 0x00);
 8002168:	2028      	movs	r0, #40	@ 0x28
 800216a:	79fb      	ldrb	r3, [r7, #7]
 800216c:	4a0c      	ldr	r2, [pc, #48]	@ (80021a0 <BSP_PB_Init+0xd8>)
 800216e:	f852 3023 	ldr.w	r3, [r2, r3, lsl #2]
 8002172:	2200      	movs	r2, #0
 8002174:	4619      	mov	r1, r3
 8002176:	f000 f9c5 	bl	8002504 <HAL_NVIC_SetPriority>
    HAL_NVIC_EnableIRQ((BUTTON_IRQn[Button]));
 800217a:	2328      	movs	r3, #40	@ 0x28
 800217c:	4618      	mov	r0, r3
 800217e:	f000 f9db 	bl	8002538 <HAL_NVIC_EnableIRQ>
  }

  return BSP_ERROR_NONE;
 8002182:	2300      	movs	r3, #0
}
 8002184:	4618      	mov	r0, r3
 8002186:	3720      	adds	r7, #32
 8002188:	46bd      	mov	sp, r7
 800218a:	bd80      	pop	{r7, pc}
 800218c:	40021000 	.word	0x40021000
 8002190:	20000008 	.word	0x20000008
 8002194:	20002100 	.word	0x20002100
 8002198:	080072a0 	.word	0x080072a0
 800219c:	20000010 	.word	0x20000010
 80021a0:	20000014 	.word	0x20000014

080021a4 <BSP_PB_Callback>:
  * @brief  BSP Push Button callback
  * @param  Button Specifies the pin connected EXTI line
  * @retval None.
  */
__weak void BSP_PB_Callback(Button_TypeDef Button)
{
 80021a4:	b480      	push	{r7}
 80021a6:	b083      	sub	sp, #12
 80021a8:	af00      	add	r7, sp, #0
 80021aa:	4603      	mov	r3, r0
 80021ac:	71fb      	strb	r3, [r7, #7]
  /* Prevent unused argument(s) compilation warning */
  UNUSED(Button);

  /* This function should be implemented by the user application.
     It is called into this driver when an event on Button is triggered. */
}
 80021ae:	bf00      	nop
 80021b0:	370c      	adds	r7, #12
 80021b2:	46bd      	mov	sp, r7
 80021b4:	f85d 7b04 	ldr.w	r7, [sp], #4
 80021b8:	4770      	bx	lr
	...

080021bc <BSP_COM_Init>:
  * @param  COM_Init Pointer to a UART_HandleTypeDef structure that contains the
  *                  configuration information for the specified USART peripheral.
  * @retval BSP error code
  */
int32_t BSP_COM_Init(COM_TypeDef COM, COM_InitTypeDef *COM_Init)
{
 80021bc:	b580      	push	{r7, lr}
 80021be:	b084      	sub	sp, #16
 80021c0:	af00      	add	r7, sp, #0
 80021c2:	4603      	mov	r3, r0
 80021c4:	6039      	str	r1, [r7, #0]
 80021c6:	71fb      	strb	r3, [r7, #7]
  int32_t ret = BSP_ERROR_NONE;
 80021c8:	2300      	movs	r3, #0
 80021ca:	60fb      	str	r3, [r7, #12]

  if(COM > COMn)
 80021cc:	79fb      	ldrb	r3, [r7, #7]
 80021ce:	2b01      	cmp	r3, #1
 80021d0:	d903      	bls.n	80021da <BSP_COM_Init+0x1e>
  {
    ret = BSP_ERROR_WRONG_PARAM;
 80021d2:	f06f 0301 	mvn.w	r3, #1
 80021d6:	60fb      	str	r3, [r7, #12]
 80021d8:	e018      	b.n	800220c <BSP_COM_Init+0x50>
  }
  else
  {
#if (USE_HAL_UART_REGISTER_CALLBACKS == 0)
    /* Init the UART Msp */
    COM1_MspInit(&hcom_uart[COM]);
 80021da:	79fb      	ldrb	r3, [r7, #7]
 80021dc:	2294      	movs	r2, #148	@ 0x94
 80021de:	fb02 f303 	mul.w	r3, r2, r3
 80021e2:	4a0d      	ldr	r2, [pc, #52]	@ (8002218 <BSP_COM_Init+0x5c>)
 80021e4:	4413      	add	r3, r2
 80021e6:	4618      	mov	r0, r3
 80021e8:	f000 f852 	bl	8002290 <COM1_MspInit>
        return BSP_ERROR_MSP_FAILURE;
      }
    }
#endif

    if(MX_LPUART1_Init(&hcom_uart[COM], COM_Init) != HAL_OK)
 80021ec:	79fb      	ldrb	r3, [r7, #7]
 80021ee:	2294      	movs	r2, #148	@ 0x94
 80021f0:	fb02 f303 	mul.w	r3, r2, r3
 80021f4:	4a08      	ldr	r2, [pc, #32]	@ (8002218 <BSP_COM_Init+0x5c>)
 80021f6:	4413      	add	r3, r2
 80021f8:	6839      	ldr	r1, [r7, #0]
 80021fa:	4618      	mov	r0, r3
 80021fc:	f000 f80e 	bl	800221c <MX_LPUART1_Init>
 8002200:	4603      	mov	r3, r0
 8002202:	2b00      	cmp	r3, #0
 8002204:	d002      	beq.n	800220c <BSP_COM_Init+0x50>
    {
      return BSP_ERROR_PERIPH_FAILURE;
 8002206:	f06f 0303 	mvn.w	r3, #3
 800220a:	e000      	b.n	800220e <BSP_COM_Init+0x52>
    }
  }

  return ret;
 800220c:	68fb      	ldr	r3, [r7, #12]
}
 800220e:	4618      	mov	r0, r3
 8002210:	3710      	adds	r7, #16
 8002212:	46bd      	mov	sp, r7
 8002214:	bd80      	pop	{r7, pc}
 8002216:	bf00      	nop
 8002218:	20002108 	.word	0x20002108

0800221c <MX_LPUART1_Init>:
  * @param  COM_Init Pointer to a UART_HandleTypeDef structure that contains the
  *                  configuration information for the specified USART peripheral.
  * @retval HAL error code
  */
__weak HAL_StatusTypeDef MX_LPUART1_Init(UART_HandleTypeDef *huart, MX_UART_InitTypeDef *COM_Init)
{
 800221c:	b580      	push	{r7, lr}
 800221e:	b082      	sub	sp, #8
 8002220:	af00      	add	r7, sp, #0
 8002222:	6078      	str	r0, [r7, #4]
 8002224:	6039      	str	r1, [r7, #0]
  /* USART configuration */
 huart->Instance          = COM_USART[COM1];
 8002226:	4b15      	ldr	r3, [pc, #84]	@ (800227c <MX_LPUART1_Init+0x60>)
 8002228:	681a      	ldr	r2, [r3, #0]
 800222a:	687b      	ldr	r3, [r7, #4]
 800222c:	601a      	str	r2, [r3, #0]
 huart->Init.BaudRate     = COM_Init->BaudRate;
 800222e:	683b      	ldr	r3, [r7, #0]
 8002230:	681a      	ldr	r2, [r3, #0]
 8002232:	687b      	ldr	r3, [r7, #4]
 8002234:	605a      	str	r2, [r3, #4]
 huart->Init.Mode         = UART_MODE_TX_RX;
 8002236:	687b      	ldr	r3, [r7, #4]
 8002238:	220c      	movs	r2, #12
 800223a:	615a      	str	r2, [r3, #20]
 huart->Init.Parity       = (uint32_t)COM_Init->Parity;
 800223c:	683b      	ldr	r3, [r7, #0]
 800223e:	895b      	ldrh	r3, [r3, #10]
 8002240:	461a      	mov	r2, r3
 8002242:	687b      	ldr	r3, [r7, #4]
 8002244:	611a      	str	r2, [r3, #16]
 huart->Init.WordLength   = COM_Init->WordLength;
 8002246:	683b      	ldr	r3, [r7, #0]
 8002248:	685a      	ldr	r2, [r3, #4]
 800224a:	687b      	ldr	r3, [r7, #4]
 800224c:	609a      	str	r2, [r3, #8]
 huart->Init.StopBits     = (uint32_t)COM_Init->StopBits;
 800224e:	683b      	ldr	r3, [r7, #0]
 8002250:	891b      	ldrh	r3, [r3, #8]
 8002252:	461a      	mov	r2, r3
 8002254:	687b      	ldr	r3, [r7, #4]
 8002256:	60da      	str	r2, [r3, #12]
 huart->Init.HwFlowCtl    = (uint32_t)COM_Init->HwFlowCtl;
 8002258:	683b      	ldr	r3, [r7, #0]
 800225a:	899b      	ldrh	r3, [r3, #12]
 800225c:	461a      	mov	r2, r3
 800225e:	687b      	ldr	r3, [r7, #4]
 8002260:	619a      	str	r2, [r3, #24]
 huart->Init.OverSampling = UART_OVERSAMPLING_8;
 8002262:	687b      	ldr	r3, [r7, #4]
 8002264:	f44f 4200 	mov.w	r2, #32768	@ 0x8000
 8002268:	61da      	str	r2, [r3, #28]

 return HAL_UART_Init(huart);
 800226a:	6878      	ldr	r0, [r7, #4]
 800226c:	f000 ff6a 	bl	8003144 <HAL_UART_Init>
 8002270:	4603      	mov	r3, r0
}
 8002272:	4618      	mov	r0, r3
 8002274:	3708      	adds	r7, #8
 8002276:	46bd      	mov	sp, r7
 8002278:	bd80      	pop	{r7, pc}
 800227a:	bf00      	nop
 800227c:	2000000c 	.word	0x2000000c

08002280 <BUTTON_USER_EXTI_Callback>:
/**
  * @brief  Key EXTI line detection callbacks.
  * @retval BSP status
  */
static void BUTTON_USER_EXTI_Callback(void)
{
 8002280:	b580      	push	{r7, lr}
 8002282:	af00      	add	r7, sp, #0
  BSP_PB_Callback(BUTTON_USER);
 8002284:	2000      	movs	r0, #0
 8002286:	f7ff ff8d 	bl	80021a4 <BSP_PB_Callback>
}
 800228a:	bf00      	nop
 800228c:	bd80      	pop	{r7, pc}
	...

08002290 <COM1_MspInit>:
  * @brief  Initializes COM1 MSP.
  * @param  huart UART handle
  * @retval BSP status
  */
static void COM1_MspInit(UART_HandleTypeDef *huart)
{
 8002290:	b580      	push	{r7, lr}
 8002292:	b08a      	sub	sp, #40	@ 0x28
 8002294:	af00      	add	r7, sp, #0
 8002296:	6078      	str	r0, [r7, #4]

  /* Prevent unused argument(s) compilation warning */
  UNUSED(huart);

  /* Enable GPIO clock */
  COM1_TX_GPIO_CLK_ENABLE();
 8002298:	4b22      	ldr	r3, [pc, #136]	@ (8002324 <COM1_MspInit+0x94>)
 800229a:	6cdb      	ldr	r3, [r3, #76]	@ 0x4c
 800229c:	4a21      	ldr	r2, [pc, #132]	@ (8002324 <COM1_MspInit+0x94>)
 800229e:	f043 0301 	orr.w	r3, r3, #1
 80022a2:	64d3      	str	r3, [r2, #76]	@ 0x4c
 80022a4:	4b1f      	ldr	r3, [pc, #124]	@ (8002324 <COM1_MspInit+0x94>)
 80022a6:	6cdb      	ldr	r3, [r3, #76]	@ 0x4c
 80022a8:	f003 0301 	and.w	r3, r3, #1
 80022ac:	613b      	str	r3, [r7, #16]
 80022ae:	693b      	ldr	r3, [r7, #16]
  COM1_RX_GPIO_CLK_ENABLE();
 80022b0:	4b1c      	ldr	r3, [pc, #112]	@ (8002324 <COM1_MspInit+0x94>)
 80022b2:	6cdb      	ldr	r3, [r3, #76]	@ 0x4c
 80022b4:	4a1b      	ldr	r2, [pc, #108]	@ (8002324 <COM1_MspInit+0x94>)
 80022b6:	f043 0301 	orr.w	r3, r3, #1
 80022ba:	64d3      	str	r3, [r2, #76]	@ 0x4c
 80022bc:	4b19      	ldr	r3, [pc, #100]	@ (8002324 <COM1_MspInit+0x94>)
 80022be:	6cdb      	ldr	r3, [r3, #76]	@ 0x4c
 80022c0:	f003 0301 	and.w	r3, r3, #1
 80022c4:	60fb      	str	r3, [r7, #12]
 80022c6:	68fb      	ldr	r3, [r7, #12]

  /* Enable USART clock */
  COM1_CLK_ENABLE();
 80022c8:	4b16      	ldr	r3, [pc, #88]	@ (8002324 <COM1_MspInit+0x94>)
 80022ca:	6ddb      	ldr	r3, [r3, #92]	@ 0x5c
 80022cc:	4a15      	ldr	r2, [pc, #84]	@ (8002324 <COM1_MspInit+0x94>)
 80022ce:	f043 0301 	orr.w	r3, r3, #1
 80022d2:	65d3      	str	r3, [r2, #92]	@ 0x5c
 80022d4:	4b13      	ldr	r3, [pc, #76]	@ (8002324 <COM1_MspInit+0x94>)
 80022d6:	6ddb      	ldr	r3, [r3, #92]	@ 0x5c
 80022d8:	f003 0301 	and.w	r3, r3, #1
 80022dc:	60bb      	str	r3, [r7, #8]
 80022de:	68bb      	ldr	r3, [r7, #8]

  /* Configure USART Tx as alternate function */
  gpio_init_structure.Pin       = COM1_TX_PIN;
 80022e0:	2304      	movs	r3, #4
 80022e2:	617b      	str	r3, [r7, #20]
  gpio_init_structure.Mode      = GPIO_MODE_AF_PP;
 80022e4:	2302      	movs	r3, #2
 80022e6:	61bb      	str	r3, [r7, #24]
  gpio_init_structure.Speed     = GPIO_SPEED_FREQ_HIGH;
 80022e8:	2302      	movs	r3, #2
 80022ea:	623b      	str	r3, [r7, #32]
  gpio_init_structure.Pull      = GPIO_PULLUP;
 80022ec:	2301      	movs	r3, #1
 80022ee:	61fb      	str	r3, [r7, #28]
  gpio_init_structure.Alternate = COM1_TX_AF;
 80022f0:	230c      	movs	r3, #12
 80022f2:	627b      	str	r3, [r7, #36]	@ 0x24
  HAL_GPIO_Init(COM1_TX_GPIO_PORT, &gpio_init_structure);
 80022f4:	f107 0314 	add.w	r3, r7, #20
 80022f8:	4619      	mov	r1, r3
 80022fa:	f04f 4090 	mov.w	r0, #1207959552	@ 0x48000000
 80022fe:	f000 f95b 	bl	80025b8 <HAL_GPIO_Init>

  /* Configure USART Rx as alternate function */
  gpio_init_structure.Pin = COM1_RX_PIN;
 8002302:	2308      	movs	r3, #8
 8002304:	617b      	str	r3, [r7, #20]
  gpio_init_structure.Mode = GPIO_MODE_AF_PP;
 8002306:	2302      	movs	r3, #2
 8002308:	61bb      	str	r3, [r7, #24]
  gpio_init_structure.Alternate = COM1_RX_AF;
 800230a:	230c      	movs	r3, #12
 800230c:	627b      	str	r3, [r7, #36]	@ 0x24
  HAL_GPIO_Init(COM1_RX_GPIO_PORT, &gpio_init_structure);
 800230e:	f107 0314 	add.w	r3, r7, #20
 8002312:	4619      	mov	r1, r3
 8002314:	f04f 4090 	mov.w	r0, #1207959552	@ 0x48000000
 8002318:	f000 f94e 	bl	80025b8 <HAL_GPIO_Init>
}
 800231c:	bf00      	nop
 800231e:	3728      	adds	r7, #40	@ 0x28
 8002320:	46bd      	mov	sp, r7
 8002322:	bd80      	pop	{r7, pc}
 8002324:	40021000 	.word	0x40021000

08002328 <HAL_Init>:
  *         each 1ms in the SysTick_Handler() interrupt handler.
  *
  * @retval HAL status
  */
HAL_StatusTypeDef HAL_Init(void)
{
 8002328:	b580      	push	{r7, lr}
 800232a:	b082      	sub	sp, #8
 800232c:	af00      	add	r7, sp, #0
  HAL_StatusTypeDef  status = HAL_OK;
 800232e:	2300      	movs	r3, #0
 8002330:	71fb      	strb	r3, [r7, #7]
#if (PREFETCH_ENABLE != 0U)
  __HAL_FLASH_PREFETCH_BUFFER_ENABLE();
#endif /* PREFETCH_ENABLE */

  /* Set Interrupt Group Priority */
  HAL_NVIC_SetPriorityGrouping(NVIC_PRIORITYGROUP_4);
 8002332:	2003      	movs	r0, #3
 8002334:	f000 f8db 	bl	80024ee <HAL_NVIC_SetPriorityGrouping>

  /* Use SysTick as time base source and configure 1ms tick (default clock after Reset is HSI) */
  if (HAL_InitTick(TICK_INT_PRIORITY) != HAL_OK)
 8002338:	200f      	movs	r0, #15
 800233a:	f7ff fd1d 	bl	8001d78 <HAL_InitTick>
 800233e:	4603      	mov	r3, r0
 8002340:	2b00      	cmp	r3, #0
 8002342:	d002      	beq.n	800234a <HAL_Init+0x22>
  {
    status = HAL_ERROR;
 8002344:	2301      	movs	r3, #1
 8002346:	71fb      	strb	r3, [r7, #7]
 8002348:	e001      	b.n	800234e <HAL_Init+0x26>
  }
  else
  {
    /* Init the low level hardware */
    HAL_MspInit();
 800234a:	f7ff fceb 	bl	8001d24 <HAL_MspInit>
  }

  /* Return function status */
  return status;
 800234e:	79fb      	ldrb	r3, [r7, #7]

}
 8002350:	4618      	mov	r0, r3
 8002352:	3708      	adds	r7, #8
 8002354:	46bd      	mov	sp, r7
 8002356:	bd80      	pop	{r7, pc}

08002358 <HAL_IncTick>:
  * @note This function is declared as __weak to be overwritten in case of other
  *      implementations in user file.
  * @retval None
  */
__weak void HAL_IncTick(void)
{
 8002358:	b480      	push	{r7}
 800235a:	af00      	add	r7, sp, #0
  uwTick += uwTickFreq;
 800235c:	4b05      	ldr	r3, [pc, #20]	@ (8002374 <HAL_IncTick+0x1c>)
 800235e:	681a      	ldr	r2, [r3, #0]
 8002360:	4b05      	ldr	r3, [pc, #20]	@ (8002378 <HAL_IncTick+0x20>)
 8002362:	681b      	ldr	r3, [r3, #0]
 8002364:	4413      	add	r3, r2
 8002366:	4a03      	ldr	r2, [pc, #12]	@ (8002374 <HAL_IncTick+0x1c>)
 8002368:	6013      	str	r3, [r2, #0]
}
 800236a:	bf00      	nop
 800236c:	46bd      	mov	sp, r7
 800236e:	f85d 7b04 	ldr.w	r7, [sp], #4
 8002372:	4770      	bx	lr
 8002374:	2000219c 	.word	0x2000219c
 8002378:	2000001c 	.word	0x2000001c

0800237c <HAL_GetTick>:
  * @note This function is declared as __weak to be overwritten in case of other
  *       implementations in user file.
  * @retval tick value
  */
__weak uint32_t HAL_GetTick(void)
{
 800237c:	b480      	push	{r7}
 800237e:	af00      	add	r7, sp, #0
  return uwTick;
 8002380:	4b03      	ldr	r3, [pc, #12]	@ (8002390 <HAL_GetTick+0x14>)
 8002382:	681b      	ldr	r3, [r3, #0]
}
 8002384:	4618      	mov	r0, r3
 8002386:	46bd      	mov	sp, r7
 8002388:	f85d 7b04 	ldr.w	r7, [sp], #4
 800238c:	4770      	bx	lr
 800238e:	bf00      	nop
 8002390:	2000219c 	.word	0x2000219c

08002394 <__NVIC_SetPriorityGrouping>:
{
 8002394:	b480      	push	{r7}
 8002396:	b085      	sub	sp, #20
 8002398:	af00      	add	r7, sp, #0
 800239a:	6078      	str	r0, [r7, #4]
  uint32_t PriorityGroupTmp = (PriorityGroup & (uint32_t)0x07UL);             /* only values 0..7 are used          */
 800239c:	687b      	ldr	r3, [r7, #4]
 800239e:	f003 0307 	and.w	r3, r3, #7
 80023a2:	60fb      	str	r3, [r7, #12]
  reg_value  =  SCB->AIRCR;                                                   /* read old register configuration    */
 80023a4:	4b0c      	ldr	r3, [pc, #48]	@ (80023d8 <__NVIC_SetPriorityGrouping+0x44>)
 80023a6:	68db      	ldr	r3, [r3, #12]
 80023a8:	60bb      	str	r3, [r7, #8]
  reg_value &= ~((uint32_t)(SCB_AIRCR_VECTKEY_Msk | SCB_AIRCR_PRIGROUP_Msk)); /* clear bits to change               */
 80023aa:	68ba      	ldr	r2, [r7, #8]
 80023ac:	f64f 03ff 	movw	r3, #63743	@ 0xf8ff
 80023b0:	4013      	ands	r3, r2
 80023b2:	60bb      	str	r3, [r7, #8]
                (PriorityGroupTmp << SCB_AIRCR_PRIGROUP_Pos)  );              /* Insert write key and priority group */
 80023b4:	68fb      	ldr	r3, [r7, #12]
 80023b6:	021a      	lsls	r2, r3, #8
                ((uint32_t)0x5FAUL << SCB_AIRCR_VECTKEY_Pos) |
 80023b8:	68bb      	ldr	r3, [r7, #8]
 80023ba:	4313      	orrs	r3, r2
  reg_value  =  (reg_value                                   |
 80023bc:	f043 63bf 	orr.w	r3, r3, #100139008	@ 0x5f80000
 80023c0:	f443 3300 	orr.w	r3, r3, #131072	@ 0x20000
 80023c4:	60bb      	str	r3, [r7, #8]
  SCB->AIRCR =  reg_value;
 80023c6:	4a04      	ldr	r2, [pc, #16]	@ (80023d8 <__NVIC_SetPriorityGrouping+0x44>)
 80023c8:	68bb      	ldr	r3, [r7, #8]
 80023ca:	60d3      	str	r3, [r2, #12]
}
 80023cc:	bf00      	nop
 80023ce:	3714      	adds	r7, #20
 80023d0:	46bd      	mov	sp, r7
 80023d2:	f85d 7b04 	ldr.w	r7, [sp], #4
 80023d6:	4770      	bx	lr
 80023d8:	e000ed00 	.word	0xe000ed00

080023dc <__NVIC_GetPriorityGrouping>:
{
 80023dc:	b480      	push	{r7}
 80023de:	af00      	add	r7, sp, #0
  return ((uint32_t)((SCB->AIRCR & SCB_AIRCR_PRIGROUP_Msk) >> SCB_AIRCR_PRIGROUP_Pos));
 80023e0:	4b04      	ldr	r3, [pc, #16]	@ (80023f4 <__NVIC_GetPriorityGrouping+0x18>)
 80023e2:	68db      	ldr	r3, [r3, #12]
 80023e4:	0a1b      	lsrs	r3, r3, #8
 80023e6:	f003 0307 	and.w	r3, r3, #7
}
 80023ea:	4618      	mov	r0, r3
 80023ec:	46bd      	mov	sp, r7
 80023ee:	f85d 7b04 	ldr.w	r7, [sp], #4
 80023f2:	4770      	bx	lr
 80023f4:	e000ed00 	.word	0xe000ed00

080023f8 <__NVIC_EnableIRQ>:
{
 80023f8:	b480      	push	{r7}
 80023fa:	b083      	sub	sp, #12
 80023fc:	af00      	add	r7, sp, #0
 80023fe:	4603      	mov	r3, r0
 8002400:	71fb      	strb	r3, [r7, #7]
  if ((int32_t)(IRQn) >= 0)
 8002402:	f997 3007 	ldrsb.w	r3, [r7, #7]
 8002406:	2b00      	cmp	r3, #0
 8002408:	db0b      	blt.n	8002422 <__NVIC_EnableIRQ+0x2a>
    NVIC->ISER[(((uint32_t)IRQn) >> 5UL)] = (uint32_t)(1UL << (((uint32_t)IRQn) & 0x1FUL));
 800240a:	79fb      	ldrb	r3, [r7, #7]
 800240c:	f003 021f 	and.w	r2, r3, #31
 8002410:	4907      	ldr	r1, [pc, #28]	@ (8002430 <__NVIC_EnableIRQ+0x38>)
 8002412:	f997 3007 	ldrsb.w	r3, [r7, #7]
 8002416:	095b      	lsrs	r3, r3, #5
 8002418:	2001      	movs	r0, #1
 800241a:	fa00 f202 	lsl.w	r2, r0, r2
 800241e:	f841 2023 	str.w	r2, [r1, r3, lsl #2]
}
 8002422:	bf00      	nop
 8002424:	370c      	adds	r7, #12
 8002426:	46bd      	mov	sp, r7
 8002428:	f85d 7b04 	ldr.w	r7, [sp], #4
 800242c:	4770      	bx	lr
 800242e:	bf00      	nop
 8002430:	e000e100 	.word	0xe000e100

08002434 <__NVIC_SetPriority>:
{
 8002434:	b480      	push	{r7}
 8002436:	b083      	sub	sp, #12
 8002438:	af00      	add	r7, sp, #0
 800243a:	4603      	mov	r3, r0
 800243c:	6039      	str	r1, [r7, #0]
 800243e:	71fb      	strb	r3, [r7, #7]
  if ((int32_t)(IRQn) >= 0)
 8002440:	f997 3007 	ldrsb.w	r3, [r7, #7]
 8002444:	2b00      	cmp	r3, #0
 8002446:	db0a      	blt.n	800245e <__NVIC_SetPriority+0x2a>
    NVIC->IP[((uint32_t)IRQn)]               = (uint8_t)((priority << (8U - __NVIC_PRIO_BITS)) & (uint32_t)0xFFUL);
 8002448:	683b      	ldr	r3, [r7, #0]
 800244a:	b2da      	uxtb	r2, r3
 800244c:	490c      	ldr	r1, [pc, #48]	@ (8002480 <__NVIC_SetPriority+0x4c>)
 800244e:	f997 3007 	ldrsb.w	r3, [r7, #7]
 8002452:	0112      	lsls	r2, r2, #4
 8002454:	b2d2      	uxtb	r2, r2
 8002456:	440b      	add	r3, r1
 8002458:	f883 2300 	strb.w	r2, [r3, #768]	@ 0x300
}
 800245c:	e00a      	b.n	8002474 <__NVIC_SetPriority+0x40>
    SCB->SHP[(((uint32_t)IRQn) & 0xFUL)-4UL] = (uint8_t)((priority << (8U - __NVIC_PRIO_BITS)) & (uint32_t)0xFFUL);
 800245e:	683b      	ldr	r3, [r7, #0]
 8002460:	b2da      	uxtb	r2, r3
 8002462:	4908      	ldr	r1, [pc, #32]	@ (8002484 <__NVIC_SetPriority+0x50>)
 8002464:	79fb      	ldrb	r3, [r7, #7]
 8002466:	f003 030f 	and.w	r3, r3, #15
 800246a:	3b04      	subs	r3, #4
 800246c:	0112      	lsls	r2, r2, #4
 800246e:	b2d2      	uxtb	r2, r2
 8002470:	440b      	add	r3, r1
 8002472:	761a      	strb	r2, [r3, #24]
}
 8002474:	bf00      	nop
 8002476:	370c      	adds	r7, #12
 8002478:	46bd      	mov	sp, r7
 800247a:	f85d 7b04 	ldr.w	r7, [sp], #4
 800247e:	4770      	bx	lr
 8002480:	e000e100 	.word	0xe000e100
 8002484:	e000ed00 	.word	0xe000ed00

08002488 <NVIC_EncodePriority>:
{
 8002488:	b480      	push	{r7}
 800248a:	b089      	sub	sp, #36	@ 0x24
 800248c:	af00      	add	r7, sp, #0
 800248e:	60f8      	str	r0, [r7, #12]
 8002490:	60b9      	str	r1, [r7, #8]
 8002492:	607a      	str	r2, [r7, #4]
  uint32_t PriorityGroupTmp = (PriorityGroup & (uint32_t)0x07UL);   /* only values 0..7 are used          */
 8002494:	68fb      	ldr	r3, [r7, #12]
 8002496:	f003 0307 	and.w	r3, r3, #7
 800249a:	61fb      	str	r3, [r7, #28]
  PreemptPriorityBits = ((7UL - PriorityGroupTmp) > (uint32_t)(__NVIC_PRIO_BITS)) ? (uint32_t)(__NVIC_PRIO_BITS) : (uint32_t)(7UL - PriorityGroupTmp);
 800249c:	69fb      	ldr	r3, [r7, #28]
 800249e:	f1c3 0307 	rsb	r3, r3, #7
 80024a2:	2b04      	cmp	r3, #4
 80024a4:	bf28      	it	cs
 80024a6:	2304      	movcs	r3, #4
 80024a8:	61bb      	str	r3, [r7, #24]
  SubPriorityBits     = ((PriorityGroupTmp + (uint32_t)(__NVIC_PRIO_BITS)) < (uint32_t)7UL) ? (uint32_t)0UL : (uint32_t)((PriorityGroupTmp - 7UL) + (uint32_t)(__NVIC_PRIO_BITS));
 80024aa:	69fb      	ldr	r3, [r7, #28]
 80024ac:	3304      	adds	r3, #4
 80024ae:	2b06      	cmp	r3, #6
 80024b0:	d902      	bls.n	80024b8 <NVIC_EncodePriority+0x30>
 80024b2:	69fb      	ldr	r3, [r7, #28]
 80024b4:	3b03      	subs	r3, #3
 80024b6:	e000      	b.n	80024ba <NVIC_EncodePriority+0x32>
 80024b8:	2300      	movs	r3, #0
 80024ba:	617b      	str	r3, [r7, #20]
           ((PreemptPriority & (uint32_t)((1UL << (PreemptPriorityBits)) - 1UL)) << SubPriorityBits) |
 80024bc:	f04f 32ff 	mov.w	r2, #4294967295
 80024c0:	69bb      	ldr	r3, [r7, #24]
 80024c2:	fa02 f303 	lsl.w	r3, r2, r3
 80024c6:	43da      	mvns	r2, r3
 80024c8:	68bb      	ldr	r3, [r7, #8]
 80024ca:	401a      	ands	r2, r3
 80024cc:	697b      	ldr	r3, [r7, #20]
 80024ce:	409a      	lsls	r2, r3
           ((SubPriority     & (uint32_t)((1UL << (SubPriorityBits    )) - 1UL)))
 80024d0:	f04f 31ff 	mov.w	r1, #4294967295
 80024d4:	697b      	ldr	r3, [r7, #20]
 80024d6:	fa01 f303 	lsl.w	r3, r1, r3
 80024da:	43d9      	mvns	r1, r3
 80024dc:	687b      	ldr	r3, [r7, #4]
 80024de:	400b      	ands	r3, r1
           ((PreemptPriority & (uint32_t)((1UL << (PreemptPriorityBits)) - 1UL)) << SubPriorityBits) |
 80024e0:	4313      	orrs	r3, r2
}
 80024e2:	4618      	mov	r0, r3
 80024e4:	3724      	adds	r7, #36	@ 0x24
 80024e6:	46bd      	mov	sp, r7
 80024e8:	f85d 7b04 	ldr.w	r7, [sp], #4
 80024ec:	4770      	bx	lr

080024ee <HAL_NVIC_SetPriorityGrouping>:
  * @note   When the NVIC_PriorityGroup_0 is selected, IRQ pre-emption is no more possible.
  *         The pending IRQ priority will be managed only by the subpriority.
  * @retval None
  */
void HAL_NVIC_SetPriorityGrouping(uint32_t PriorityGroup)
{
 80024ee:	b580      	push	{r7, lr}
 80024f0:	b082      	sub	sp, #8
 80024f2:	af00      	add	r7, sp, #0
 80024f4:	6078      	str	r0, [r7, #4]
  /* Check the parameters */
  assert_param(IS_NVIC_PRIORITY_GROUP(PriorityGroup));

  /* Set the PRIGROUP[10:8] bits according to the PriorityGroup parameter value */
  NVIC_SetPriorityGrouping(PriorityGroup);
 80024f6:	6878      	ldr	r0, [r7, #4]
 80024f8:	f7ff ff4c 	bl	8002394 <__NVIC_SetPriorityGrouping>
}
 80024fc:	bf00      	nop
 80024fe:	3708      	adds	r7, #8
 8002500:	46bd      	mov	sp, r7
 8002502:	bd80      	pop	{r7, pc}

08002504 <HAL_NVIC_SetPriority>:
  *         This parameter can be a value between 0 and 15
  *         A lower priority value indicates a higher priority.
  * @retval None
  */
void HAL_NVIC_SetPriority(IRQn_Type IRQn, uint32_t PreemptPriority, uint32_t SubPriority)
{
 8002504:	b580      	push	{r7, lr}
 8002506:	b086      	sub	sp, #24
 8002508:	af00      	add	r7, sp, #0
 800250a:	4603      	mov	r3, r0
 800250c:	60b9      	str	r1, [r7, #8]
 800250e:	607a      	str	r2, [r7, #4]
 8002510:	73fb      	strb	r3, [r7, #15]

  /* Check the parameters */
  assert_param(IS_NVIC_SUB_PRIORITY(SubPriority));
  assert_param(IS_NVIC_PREEMPTION_PRIORITY(PreemptPriority));

  prioritygroup = NVIC_GetPriorityGrouping();
 8002512:	f7ff ff63 	bl	80023dc <__NVIC_GetPriorityGrouping>
 8002516:	6178      	str	r0, [r7, #20]

  NVIC_SetPriority(IRQn, NVIC_EncodePriority(prioritygroup, PreemptPriority, SubPriority));
 8002518:	687a      	ldr	r2, [r7, #4]
 800251a:	68b9      	ldr	r1, [r7, #8]
 800251c:	6978      	ldr	r0, [r7, #20]
 800251e:	f7ff ffb3 	bl	8002488 <NVIC_EncodePriority>
 8002522:	4602      	mov	r2, r0
 8002524:	f997 300f 	ldrsb.w	r3, [r7, #15]
 8002528:	4611      	mov	r1, r2
 800252a:	4618      	mov	r0, r3
 800252c:	f7ff ff82 	bl	8002434 <__NVIC_SetPriority>
}
 8002530:	bf00      	nop
 8002532:	3718      	adds	r7, #24
 8002534:	46bd      	mov	sp, r7
 8002536:	bd80      	pop	{r7, pc}

08002538 <HAL_NVIC_EnableIRQ>:
  *         This parameter can be an enumerator of IRQn_Type enumeration
  *         (For the complete STM32 Devices IRQ Channels list, please refer to the appropriate CMSIS device file (stm32g4xxxx.h))
  * @retval None
  */
void HAL_NVIC_EnableIRQ(IRQn_Type IRQn)
{
 8002538:	b580      	push	{r7, lr}
 800253a:	b082      	sub	sp, #8
 800253c:	af00      	add	r7, sp, #0
 800253e:	4603      	mov	r3, r0
 8002540:	71fb      	strb	r3, [r7, #7]
  /* Check the parameters */
  assert_param(IS_NVIC_DEVICE_IRQ(IRQn));
  
  /* Enable interrupt */
  NVIC_EnableIRQ(IRQn);
 8002542:	f997 3007 	ldrsb.w	r3, [r7, #7]
 8002546:	4618      	mov	r0, r3
 8002548:	f7ff ff56 	bl	80023f8 <__NVIC_EnableIRQ>
}
 800254c:	bf00      	nop
 800254e:	3708      	adds	r7, #8
 8002550:	46bd      	mov	sp, r7
 8002552:	bd80      	pop	{r7, pc}

08002554 <HAL_EXTI_RegisterCallback>:
  *         This parameter can be one of @arg @ref EXTI_CallbackIDTypeDef values.
  * @param  pPendingCbfn function pointer to be stored as callback.
  * @retval HAL Status.
  */
HAL_StatusTypeDef HAL_EXTI_RegisterCallback(EXTI_HandleTypeDef *hexti, EXTI_CallbackIDTypeDef CallbackID, void (*pPendingCbfn)(void))
{
 8002554:	b480      	push	{r7}
 8002556:	b087      	sub	sp, #28
 8002558:	af00      	add	r7, sp, #0
 800255a:	60f8      	str	r0, [r7, #12]
 800255c:	460b      	mov	r3, r1
 800255e:	607a      	str	r2, [r7, #4]
 8002560:	72fb      	strb	r3, [r7, #11]
  HAL_StatusTypeDef status = HAL_OK;
 8002562:	2300      	movs	r3, #0
 8002564:	75fb      	strb	r3, [r7, #23]

  /* Check the parameters */
  assert_param(IS_EXTI_CB(CallbackID));

  switch (CallbackID)
 8002566:	7afb      	ldrb	r3, [r7, #11]
 8002568:	2b00      	cmp	r3, #0
 800256a:	d103      	bne.n	8002574 <HAL_EXTI_RegisterCallback+0x20>
  {
    /* set common callback */
    case  HAL_EXTI_COMMON_CB_ID:
      hexti->PendingCallback = pPendingCbfn;
 800256c:	68fb      	ldr	r3, [r7, #12]
 800256e:	687a      	ldr	r2, [r7, #4]
 8002570:	605a      	str	r2, [r3, #4]
      break;
 8002572:	e005      	b.n	8002580 <HAL_EXTI_RegisterCallback+0x2c>

    default:
      hexti->PendingCallback = NULL;
 8002574:	68fb      	ldr	r3, [r7, #12]
 8002576:	2200      	movs	r2, #0
 8002578:	605a      	str	r2, [r3, #4]
      status = HAL_ERROR;
 800257a:	2301      	movs	r3, #1
 800257c:	75fb      	strb	r3, [r7, #23]
      break;
 800257e:	bf00      	nop
  }

  return status;
 8002580:	7dfb      	ldrb	r3, [r7, #23]
}
 8002582:	4618      	mov	r0, r3
 8002584:	371c      	adds	r7, #28
 8002586:	46bd      	mov	sp, r7
 8002588:	f85d 7b04 	ldr.w	r7, [sp], #4
 800258c:	4770      	bx	lr

0800258e <HAL_EXTI_GetHandle>:
  * @param  ExtiLine Exti line number.
  *         This parameter can be from 0 to @ref EXTI_LINE_NB.
  * @retval HAL Status.
  */
HAL_StatusTypeDef HAL_EXTI_GetHandle(EXTI_HandleTypeDef *hexti, uint32_t ExtiLine)
{
 800258e:	b480      	push	{r7}
 8002590:	b083      	sub	sp, #12
 8002592:	af00      	add	r7, sp, #0
 8002594:	6078      	str	r0, [r7, #4]
 8002596:	6039      	str	r1, [r7, #0]
  /* Check the parameters */
  assert_param(IS_EXTI_LINE(ExtiLine));

  /* Check null pointer */
  if (hexti == NULL)
 8002598:	687b      	ldr	r3, [r7, #4]
 800259a:	2b00      	cmp	r3, #0
 800259c:	d101      	bne.n	80025a2 <HAL_EXTI_GetHandle+0x14>
  {
    return HAL_ERROR;
 800259e:	2301      	movs	r3, #1
 80025a0:	e003      	b.n	80025aa <HAL_EXTI_GetHandle+0x1c>
  }
  else
  {
    /* Store line number as handle private field */
    hexti->Line = ExtiLine;
 80025a2:	687b      	ldr	r3, [r7, #4]
 80025a4:	683a      	ldr	r2, [r7, #0]
 80025a6:	601a      	str	r2, [r3, #0]

    return HAL_OK;
 80025a8:	2300      	movs	r3, #0
  }
}
 80025aa:	4618      	mov	r0, r3
 80025ac:	370c      	adds	r7, #12
 80025ae:	46bd      	mov	sp, r7
 80025b0:	f85d 7b04 	ldr.w	r7, [sp], #4
 80025b4:	4770      	bx	lr
	...

080025b8 <HAL_GPIO_Init>:
  * @param  GPIO_Init pointer to a GPIO_InitTypeDef structure that contains
  *         the configuration information for the specified GPIO peripheral.
  * @retval None
  */
void HAL_GPIO_Init(GPIO_TypeDef *GPIOx, GPIO_InitTypeDef const *GPIO_Init)
{
 80025b8:	b480      	push	{r7}
 80025ba:	b087      	sub	sp, #28
 80025bc:	af00      	add	r7, sp, #0
 80025be:	6078      	str	r0, [r7, #4]
 80025c0:	6039      	str	r1, [r7, #0]
  uint32_t position = 0x00U;
 80025c2:	2300      	movs	r3, #0
 80025c4:	617b      	str	r3, [r7, #20]
  assert_param(IS_GPIO_ALL_INSTANCE(GPIOx));
  assert_param(IS_GPIO_PIN(GPIO_Init->Pin));
  assert_param(IS_GPIO_MODE(GPIO_Init->Mode));

  /* Configure the port pins */
  while (((GPIO_Init->Pin) >> position) != 0U)
 80025c6:	e164      	b.n	8002892 <HAL_GPIO_Init+0x2da>
  {
    /* Get current io position */
    iocurrent = (GPIO_Init->Pin) & (1UL << position);
 80025c8:	683b      	ldr	r3, [r7, #0]
 80025ca:	681a      	ldr	r2, [r3, #0]
 80025cc:	2101      	movs	r1, #1
 80025ce:	697b      	ldr	r3, [r7, #20]
 80025d0:	fa01 f303 	lsl.w	r3, r1, r3
 80025d4:	4013      	ands	r3, r2
 80025d6:	60fb      	str	r3, [r7, #12]

    if (iocurrent != 0x00u)
 80025d8:	68fb      	ldr	r3, [r7, #12]
 80025da:	2b00      	cmp	r3, #0
 80025dc:	f000 8156 	beq.w	800288c <HAL_GPIO_Init+0x2d4>
    {
      /*--------------------- GPIO Mode Configuration ------------------------*/
      /* In case of Output or Alternate function mode selection */
      if(((GPIO_Init->Mode & GPIO_MODE) == MODE_OUTPUT) ||
 80025e0:	683b      	ldr	r3, [r7, #0]
 80025e2:	685b      	ldr	r3, [r3, #4]
 80025e4:	f003 0303 	and.w	r3, r3, #3
 80025e8:	2b01      	cmp	r3, #1
 80025ea:	d005      	beq.n	80025f8 <HAL_GPIO_Init+0x40>
         ((GPIO_Init->Mode & GPIO_MODE) == MODE_AF))
 80025ec:	683b      	ldr	r3, [r7, #0]
 80025ee:	685b      	ldr	r3, [r3, #4]
 80025f0:	f003 0303 	and.w	r3, r3, #3
      if(((GPIO_Init->Mode & GPIO_MODE) == MODE_OUTPUT) ||
 80025f4:	2b02      	cmp	r3, #2
 80025f6:	d130      	bne.n	800265a <HAL_GPIO_Init+0xa2>
      {
        /* Check the Speed parameter */
        assert_param(IS_GPIO_SPEED(GPIO_Init->Speed));
        /* Configure the IO Speed */
        temp = GPIOx->OSPEEDR;
 80025f8:	687b      	ldr	r3, [r7, #4]
 80025fa:	689b      	ldr	r3, [r3, #8]
 80025fc:	613b      	str	r3, [r7, #16]
        temp &= ~(GPIO_OSPEEDR_OSPEED0 << (position * 2U));
 80025fe:	697b      	ldr	r3, [r7, #20]
 8002600:	005b      	lsls	r3, r3, #1
 8002602:	2203      	movs	r2, #3
 8002604:	fa02 f303 	lsl.w	r3, r2, r3
 8002608:	43db      	mvns	r3, r3
 800260a:	693a      	ldr	r2, [r7, #16]
 800260c:	4013      	ands	r3, r2
 800260e:	613b      	str	r3, [r7, #16]
        temp |= (GPIO_Init->Speed << (position * 2U));
 8002610:	683b      	ldr	r3, [r7, #0]
 8002612:	68da      	ldr	r2, [r3, #12]
 8002614:	697b      	ldr	r3, [r7, #20]
 8002616:	005b      	lsls	r3, r3, #1
 8002618:	fa02 f303 	lsl.w	r3, r2, r3
 800261c:	693a      	ldr	r2, [r7, #16]
 800261e:	4313      	orrs	r3, r2
 8002620:	613b      	str	r3, [r7, #16]
        GPIOx->OSPEEDR = temp;
 8002622:	687b      	ldr	r3, [r7, #4]
 8002624:	693a      	ldr	r2, [r7, #16]
 8002626:	609a      	str	r2, [r3, #8]

        /* Configure the IO Output Type */
        temp = GPIOx->OTYPER;
 8002628:	687b      	ldr	r3, [r7, #4]
 800262a:	685b      	ldr	r3, [r3, #4]
 800262c:	613b      	str	r3, [r7, #16]
        temp &= ~(GPIO_OTYPER_OT0 << position) ;
 800262e:	2201      	movs	r2, #1
 8002630:	697b      	ldr	r3, [r7, #20]
 8002632:	fa02 f303 	lsl.w	r3, r2, r3
 8002636:	43db      	mvns	r3, r3
 8002638:	693a      	ldr	r2, [r7, #16]
 800263a:	4013      	ands	r3, r2
 800263c:	613b      	str	r3, [r7, #16]
        temp |= (((GPIO_Init->Mode & OUTPUT_TYPE) >> OUTPUT_TYPE_Pos) << position);
 800263e:	683b      	ldr	r3, [r7, #0]
 8002640:	685b      	ldr	r3, [r3, #4]
 8002642:	091b      	lsrs	r3, r3, #4
 8002644:	f003 0201 	and.w	r2, r3, #1
 8002648:	697b      	ldr	r3, [r7, #20]
 800264a:	fa02 f303 	lsl.w	r3, r2, r3
 800264e:	693a      	ldr	r2, [r7, #16]
 8002650:	4313      	orrs	r3, r2
 8002652:	613b      	str	r3, [r7, #16]
        GPIOx->OTYPER = temp;
 8002654:	687b      	ldr	r3, [r7, #4]
 8002656:	693a      	ldr	r2, [r7, #16]
 8002658:	605a      	str	r2, [r3, #4]
      }

      if (((GPIO_Init->Mode & GPIO_MODE) != MODE_ANALOG) ||
 800265a:	683b      	ldr	r3, [r7, #0]
 800265c:	685b      	ldr	r3, [r3, #4]
 800265e:	f003 0303 	and.w	r3, r3, #3
 8002662:	2b03      	cmp	r3, #3
 8002664:	d109      	bne.n	800267a <HAL_GPIO_Init+0xc2>
          (((GPIO_Init->Mode & GPIO_MODE) == MODE_ANALOG) && (GPIO_Init->Pull != GPIO_PULLUP)))
 8002666:	683b      	ldr	r3, [r7, #0]
 8002668:	685b      	ldr	r3, [r3, #4]
 800266a:	f003 0303 	and.w	r3, r3, #3
      if (((GPIO_Init->Mode & GPIO_MODE) != MODE_ANALOG) ||
 800266e:	2b03      	cmp	r3, #3
 8002670:	d11b      	bne.n	80026aa <HAL_GPIO_Init+0xf2>
          (((GPIO_Init->Mode & GPIO_MODE) == MODE_ANALOG) && (GPIO_Init->Pull != GPIO_PULLUP)))
 8002672:	683b      	ldr	r3, [r7, #0]
 8002674:	689b      	ldr	r3, [r3, #8]
 8002676:	2b01      	cmp	r3, #1
 8002678:	d017      	beq.n	80026aa <HAL_GPIO_Init+0xf2>
      {
        /* Check the Pull parameter */
        assert_param(IS_GPIO_PULL(GPIO_Init->Pull));

        /* Activate the Pull-up or Pull down resistor for the current IO */
        temp = GPIOx->PUPDR;
 800267a:	687b      	ldr	r3, [r7, #4]
 800267c:	68db      	ldr	r3, [r3, #12]
 800267e:	613b      	str	r3, [r7, #16]
        temp &= ~(GPIO_PUPDR_PUPD0 << (position * 2U));
 8002680:	697b      	ldr	r3, [r7, #20]
 8002682:	005b      	lsls	r3, r3, #1
 8002684:	2203      	movs	r2, #3
 8002686:	fa02 f303 	lsl.w	r3, r2, r3
 800268a:	43db      	mvns	r3, r3
 800268c:	693a      	ldr	r2, [r7, #16]
 800268e:	4013      	ands	r3, r2
 8002690:	613b      	str	r3, [r7, #16]
        temp |= ((GPIO_Init->Pull) << (position * 2U));
 8002692:	683b      	ldr	r3, [r7, #0]
 8002694:	689a      	ldr	r2, [r3, #8]
 8002696:	697b      	ldr	r3, [r7, #20]
 8002698:	005b      	lsls	r3, r3, #1
 800269a:	fa02 f303 	lsl.w	r3, r2, r3
 800269e:	693a      	ldr	r2, [r7, #16]
 80026a0:	4313      	orrs	r3, r2
 80026a2:	613b      	str	r3, [r7, #16]
        GPIOx->PUPDR = temp;
 80026a4:	687b      	ldr	r3, [r7, #4]
 80026a6:	693a      	ldr	r2, [r7, #16]
 80026a8:	60da      	str	r2, [r3, #12]
      }

      /* In case of Alternate function mode selection */
      if ((GPIO_Init->Mode & GPIO_MODE) == MODE_AF)
 80026aa:	683b      	ldr	r3, [r7, #0]
 80026ac:	685b      	ldr	r3, [r3, #4]
 80026ae:	f003 0303 	and.w	r3, r3, #3
 80026b2:	2b02      	cmp	r3, #2
 80026b4:	d123      	bne.n	80026fe <HAL_GPIO_Init+0x146>
        /* Check the Alternate function parameters */
        assert_param(IS_GPIO_AF_INSTANCE(GPIOx));
        assert_param(IS_GPIO_AF(GPIO_Init->Alternate));

        /* Configure Alternate function mapped with the current IO */
        temp = GPIOx->AFR[position >> 3U];
 80026b6:	697b      	ldr	r3, [r7, #20]
 80026b8:	08da      	lsrs	r2, r3, #3
 80026ba:	687b      	ldr	r3, [r7, #4]
 80026bc:	3208      	adds	r2, #8
 80026be:	f853 3022 	ldr.w	r3, [r3, r2, lsl #2]
 80026c2:	613b      	str	r3, [r7, #16]
        temp &= ~(0xFU << ((position & 0x07U) * 4U));
 80026c4:	697b      	ldr	r3, [r7, #20]
 80026c6:	f003 0307 	and.w	r3, r3, #7
 80026ca:	009b      	lsls	r3, r3, #2
 80026cc:	220f      	movs	r2, #15
 80026ce:	fa02 f303 	lsl.w	r3, r2, r3
 80026d2:	43db      	mvns	r3, r3
 80026d4:	693a      	ldr	r2, [r7, #16]
 80026d6:	4013      	ands	r3, r2
 80026d8:	613b      	str	r3, [r7, #16]
        temp |= ((GPIO_Init->Alternate) << ((position & 0x07U) * 4U));
 80026da:	683b      	ldr	r3, [r7, #0]
 80026dc:	691a      	ldr	r2, [r3, #16]
 80026de:	697b      	ldr	r3, [r7, #20]
 80026e0:	f003 0307 	and.w	r3, r3, #7
 80026e4:	009b      	lsls	r3, r3, #2
 80026e6:	fa02 f303 	lsl.w	r3, r2, r3
 80026ea:	693a      	ldr	r2, [r7, #16]
 80026ec:	4313      	orrs	r3, r2
 80026ee:	613b      	str	r3, [r7, #16]
        GPIOx->AFR[position >> 3U] = temp;
 80026f0:	697b      	ldr	r3, [r7, #20]
 80026f2:	08da      	lsrs	r2, r3, #3
 80026f4:	687b      	ldr	r3, [r7, #4]
 80026f6:	3208      	adds	r2, #8
 80026f8:	6939      	ldr	r1, [r7, #16]
 80026fa:	f843 1022 	str.w	r1, [r3, r2, lsl #2]
      }

      /* Configure IO Direction mode (Input, Output, Alternate or Analog) */
      temp = GPIOx->MODER;
 80026fe:	687b      	ldr	r3, [r7, #4]
 8002700:	681b      	ldr	r3, [r3, #0]
 8002702:	613b      	str	r3, [r7, #16]
      temp &= ~(GPIO_MODER_MODE0 << (position * 2U));
 8002704:	697b      	ldr	r3, [r7, #20]
 8002706:	005b      	lsls	r3, r3, #1
 8002708:	2203      	movs	r2, #3
 800270a:	fa02 f303 	lsl.w	r3, r2, r3
 800270e:	43db      	mvns	r3, r3
 8002710:	693a      	ldr	r2, [r7, #16]
 8002712:	4013      	ands	r3, r2
 8002714:	613b      	str	r3, [r7, #16]
      temp |= ((GPIO_Init->Mode & GPIO_MODE) << (position * 2U));
 8002716:	683b      	ldr	r3, [r7, #0]
 8002718:	685b      	ldr	r3, [r3, #4]
 800271a:	f003 0203 	and.w	r2, r3, #3
 800271e:	697b      	ldr	r3, [r7, #20]
 8002720:	005b      	lsls	r3, r3, #1
 8002722:	fa02 f303 	lsl.w	r3, r2, r3
 8002726:	693a      	ldr	r2, [r7, #16]
 8002728:	4313      	orrs	r3, r2
 800272a:	613b      	str	r3, [r7, #16]
      GPIOx->MODER = temp;
 800272c:	687b      	ldr	r3, [r7, #4]
 800272e:	693a      	ldr	r2, [r7, #16]
 8002730:	601a      	str	r2, [r3, #0]

      /*--------------------- EXTI Mode Configuration ------------------------*/
      /* Configure the External Interrupt or event for the current IO */
      if ((GPIO_Init->Mode & EXTI_MODE) != 0x00u)
 8002732:	683b      	ldr	r3, [r7, #0]
 8002734:	685b      	ldr	r3, [r3, #4]
 8002736:	f403 3340 	and.w	r3, r3, #196608	@ 0x30000
 800273a:	2b00      	cmp	r3, #0
 800273c:	f000 80a6 	beq.w	800288c <HAL_GPIO_Init+0x2d4>
      {
        /* Enable SYSCFG Clock */
        __HAL_RCC_SYSCFG_CLK_ENABLE();
 8002740:	4b5b      	ldr	r3, [pc, #364]	@ (80028b0 <HAL_GPIO_Init+0x2f8>)
 8002742:	6e1b      	ldr	r3, [r3, #96]	@ 0x60
 8002744:	4a5a      	ldr	r2, [pc, #360]	@ (80028b0 <HAL_GPIO_Init+0x2f8>)
 8002746:	f043 0301 	orr.w	r3, r3, #1
 800274a:	6613      	str	r3, [r2, #96]	@ 0x60
 800274c:	4b58      	ldr	r3, [pc, #352]	@ (80028b0 <HAL_GPIO_Init+0x2f8>)
 800274e:	6e1b      	ldr	r3, [r3, #96]	@ 0x60
 8002750:	f003 0301 	and.w	r3, r3, #1
 8002754:	60bb      	str	r3, [r7, #8]
 8002756:	68bb      	ldr	r3, [r7, #8]

        temp = SYSCFG->EXTICR[position >> 2U];
 8002758:	4a56      	ldr	r2, [pc, #344]	@ (80028b4 <HAL_GPIO_Init+0x2fc>)
 800275a:	697b      	ldr	r3, [r7, #20]
 800275c:	089b      	lsrs	r3, r3, #2
 800275e:	3302      	adds	r3, #2
 8002760:	f852 3023 	ldr.w	r3, [r2, r3, lsl #2]
 8002764:	613b      	str	r3, [r7, #16]
        temp &= ~(0x0FUL << (4U * (position & 0x03U)));
 8002766:	697b      	ldr	r3, [r7, #20]
 8002768:	f003 0303 	and.w	r3, r3, #3
 800276c:	009b      	lsls	r3, r3, #2
 800276e:	220f      	movs	r2, #15
 8002770:	fa02 f303 	lsl.w	r3, r2, r3
 8002774:	43db      	mvns	r3, r3
 8002776:	693a      	ldr	r2, [r7, #16]
 8002778:	4013      	ands	r3, r2
 800277a:	613b      	str	r3, [r7, #16]
        temp |= (GPIO_GET_INDEX(GPIOx) << (4U * (position & 0x03U)));
 800277c:	687b      	ldr	r3, [r7, #4]
 800277e:	f1b3 4f90 	cmp.w	r3, #1207959552	@ 0x48000000
 8002782:	d01f      	beq.n	80027c4 <HAL_GPIO_Init+0x20c>
 8002784:	687b      	ldr	r3, [r7, #4]
 8002786:	4a4c      	ldr	r2, [pc, #304]	@ (80028b8 <HAL_GPIO_Init+0x300>)
 8002788:	4293      	cmp	r3, r2
 800278a:	d019      	beq.n	80027c0 <HAL_GPIO_Init+0x208>
 800278c:	687b      	ldr	r3, [r7, #4]
 800278e:	4a4b      	ldr	r2, [pc, #300]	@ (80028bc <HAL_GPIO_Init+0x304>)
 8002790:	4293      	cmp	r3, r2
 8002792:	d013      	beq.n	80027bc <HAL_GPIO_Init+0x204>
 8002794:	687b      	ldr	r3, [r7, #4]
 8002796:	4a4a      	ldr	r2, [pc, #296]	@ (80028c0 <HAL_GPIO_Init+0x308>)
 8002798:	4293      	cmp	r3, r2
 800279a:	d00d      	beq.n	80027b8 <HAL_GPIO_Init+0x200>
 800279c:	687b      	ldr	r3, [r7, #4]
 800279e:	4a49      	ldr	r2, [pc, #292]	@ (80028c4 <HAL_GPIO_Init+0x30c>)
 80027a0:	4293      	cmp	r3, r2
 80027a2:	d007      	beq.n	80027b4 <HAL_GPIO_Init+0x1fc>
 80027a4:	687b      	ldr	r3, [r7, #4]
 80027a6:	4a48      	ldr	r2, [pc, #288]	@ (80028c8 <HAL_GPIO_Init+0x310>)
 80027a8:	4293      	cmp	r3, r2
 80027aa:	d101      	bne.n	80027b0 <HAL_GPIO_Init+0x1f8>
 80027ac:	2305      	movs	r3, #5
 80027ae:	e00a      	b.n	80027c6 <HAL_GPIO_Init+0x20e>
 80027b0:	2306      	movs	r3, #6
 80027b2:	e008      	b.n	80027c6 <HAL_GPIO_Init+0x20e>
 80027b4:	2304      	movs	r3, #4
 80027b6:	e006      	b.n	80027c6 <HAL_GPIO_Init+0x20e>
 80027b8:	2303      	movs	r3, #3
 80027ba:	e004      	b.n	80027c6 <HAL_GPIO_Init+0x20e>
 80027bc:	2302      	movs	r3, #2
 80027be:	e002      	b.n	80027c6 <HAL_GPIO_Init+0x20e>
 80027c0:	2301      	movs	r3, #1
 80027c2:	e000      	b.n	80027c6 <HAL_GPIO_Init+0x20e>
 80027c4:	2300      	movs	r3, #0
 80027c6:	697a      	ldr	r2, [r7, #20]
 80027c8:	f002 0203 	and.w	r2, r2, #3
 80027cc:	0092      	lsls	r2, r2, #2
 80027ce:	4093      	lsls	r3, r2
 80027d0:	693a      	ldr	r2, [r7, #16]
 80027d2:	4313      	orrs	r3, r2
 80027d4:	613b      	str	r3, [r7, #16]
        SYSCFG->EXTICR[position >> 2U] = temp;
 80027d6:	4937      	ldr	r1, [pc, #220]	@ (80028b4 <HAL_GPIO_Init+0x2fc>)
 80027d8:	697b      	ldr	r3, [r7, #20]
 80027da:	089b      	lsrs	r3, r3, #2
 80027dc:	3302      	adds	r3, #2
 80027de:	693a      	ldr	r2, [r7, #16]
 80027e0:	f841 2023 	str.w	r2, [r1, r3, lsl #2]

        /* Clear Rising Falling edge configuration */
        temp = EXTI->RTSR1;
 80027e4:	4b39      	ldr	r3, [pc, #228]	@ (80028cc <HAL_GPIO_Init+0x314>)
 80027e6:	689b      	ldr	r3, [r3, #8]
 80027e8:	613b      	str	r3, [r7, #16]
        temp &= ~(iocurrent);
 80027ea:	68fb      	ldr	r3, [r7, #12]
 80027ec:	43db      	mvns	r3, r3
 80027ee:	693a      	ldr	r2, [r7, #16]
 80027f0:	4013      	ands	r3, r2
 80027f2:	613b      	str	r3, [r7, #16]
        if ((GPIO_Init->Mode & TRIGGER_RISING) != 0x00U)
 80027f4:	683b      	ldr	r3, [r7, #0]
 80027f6:	685b      	ldr	r3, [r3, #4]
 80027f8:	f403 1380 	and.w	r3, r3, #1048576	@ 0x100000
 80027fc:	2b00      	cmp	r3, #0
 80027fe:	d003      	beq.n	8002808 <HAL_GPIO_Init+0x250>
        {
          temp |= iocurrent;
 8002800:	693a      	ldr	r2, [r7, #16]
 8002802:	68fb      	ldr	r3, [r7, #12]
 8002804:	4313      	orrs	r3, r2
 8002806:	613b      	str	r3, [r7, #16]
        }
        EXTI->RTSR1 = temp;
 8002808:	4a30      	ldr	r2, [pc, #192]	@ (80028cc <HAL_GPIO_Init+0x314>)
 800280a:	693b      	ldr	r3, [r7, #16]
 800280c:	6093      	str	r3, [r2, #8]

        temp = EXTI->FTSR1;
 800280e:	4b2f      	ldr	r3, [pc, #188]	@ (80028cc <HAL_GPIO_Init+0x314>)
 8002810:	68db      	ldr	r3, [r3, #12]
 8002812:	613b      	str	r3, [r7, #16]
        temp &= ~(iocurrent);
 8002814:	68fb      	ldr	r3, [r7, #12]
 8002816:	43db      	mvns	r3, r3
 8002818:	693a      	ldr	r2, [r7, #16]
 800281a:	4013      	ands	r3, r2
 800281c:	613b      	str	r3, [r7, #16]
        if ((GPIO_Init->Mode & TRIGGER_FALLING) != 0x00U)
 800281e:	683b      	ldr	r3, [r7, #0]
 8002820:	685b      	ldr	r3, [r3, #4]
 8002822:	f403 1300 	and.w	r3, r3, #2097152	@ 0x200000
 8002826:	2b00      	cmp	r3, #0
 8002828:	d003      	beq.n	8002832 <HAL_GPIO_Init+0x27a>
        {
          temp |= iocurrent;
 800282a:	693a      	ldr	r2, [r7, #16]
 800282c:	68fb      	ldr	r3, [r7, #12]
 800282e:	4313      	orrs	r3, r2
 8002830:	613b      	str	r3, [r7, #16]
        }
        EXTI->FTSR1 = temp;
 8002832:	4a26      	ldr	r2, [pc, #152]	@ (80028cc <HAL_GPIO_Init+0x314>)
 8002834:	693b      	ldr	r3, [r7, #16]
 8002836:	60d3      	str	r3, [r2, #12]

        temp = EXTI->EMR1;
 8002838:	4b24      	ldr	r3, [pc, #144]	@ (80028cc <HAL_GPIO_Init+0x314>)
 800283a:	685b      	ldr	r3, [r3, #4]
 800283c:	613b      	str	r3, [r7, #16]
        temp &= ~(iocurrent);
 800283e:	68fb      	ldr	r3, [r7, #12]
 8002840:	43db      	mvns	r3, r3
 8002842:	693a      	ldr	r2, [r7, #16]
 8002844:	4013      	ands	r3, r2
 8002846:	613b      	str	r3, [r7, #16]
        if ((GPIO_Init->Mode & EXTI_EVT) != 0x00U)
 8002848:	683b      	ldr	r3, [r7, #0]
 800284a:	685b      	ldr	r3, [r3, #4]
 800284c:	f403 3300 	and.w	r3, r3, #131072	@ 0x20000
 8002850:	2b00      	cmp	r3, #0
 8002852:	d003      	beq.n	800285c <HAL_GPIO_Init+0x2a4>
        {
          temp |= iocurrent;
 8002854:	693a      	ldr	r2, [r7, #16]
 8002856:	68fb      	ldr	r3, [r7, #12]
 8002858:	4313      	orrs	r3, r2
 800285a:	613b      	str	r3, [r7, #16]
        }
        EXTI->EMR1 = temp;
 800285c:	4a1b      	ldr	r2, [pc, #108]	@ (80028cc <HAL_GPIO_Init+0x314>)
 800285e:	693b      	ldr	r3, [r7, #16]
 8002860:	6053      	str	r3, [r2, #4]

        /* Clear EXTI line configuration */
        temp = EXTI->IMR1;
 8002862:	4b1a      	ldr	r3, [pc, #104]	@ (80028cc <HAL_GPIO_Init+0x314>)
 8002864:	681b      	ldr	r3, [r3, #0]
 8002866:	613b      	str	r3, [r7, #16]
        temp &= ~(iocurrent);
 8002868:	68fb      	ldr	r3, [r7, #12]
 800286a:	43db      	mvns	r3, r3
 800286c:	693a      	ldr	r2, [r7, #16]
 800286e:	4013      	ands	r3, r2
 8002870:	613b      	str	r3, [r7, #16]
        if ((GPIO_Init->Mode & EXTI_IT) != 0x00U)
 8002872:	683b      	ldr	r3, [r7, #0]
 8002874:	685b      	ldr	r3, [r3, #4]
 8002876:	f403 3380 	and.w	r3, r3, #65536	@ 0x10000
 800287a:	2b00      	cmp	r3, #0
 800287c:	d003      	beq.n	8002886 <HAL_GPIO_Init+0x2ce>
        {
          temp |= iocurrent;
 800287e:	693a      	ldr	r2, [r7, #16]
 8002880:	68fb      	ldr	r3, [r7, #12]
 8002882:	4313      	orrs	r3, r2
 8002884:	613b      	str	r3, [r7, #16]
        }
        EXTI->IMR1 = temp;
 8002886:	4a11      	ldr	r2, [pc, #68]	@ (80028cc <HAL_GPIO_Init+0x314>)
 8002888:	693b      	ldr	r3, [r7, #16]
 800288a:	6013      	str	r3, [r2, #0]
      }
    }

    position++;
 800288c:	697b      	ldr	r3, [r7, #20]
 800288e:	3301      	adds	r3, #1
 8002890:	617b      	str	r3, [r7, #20]
  while (((GPIO_Init->Pin) >> position) != 0U)
 8002892:	683b      	ldr	r3, [r7, #0]
 8002894:	681a      	ldr	r2, [r3, #0]
 8002896:	697b      	ldr	r3, [r7, #20]
 8002898:	fa22 f303 	lsr.w	r3, r2, r3
 800289c:	2b00      	cmp	r3, #0
 800289e:	f47f ae93 	bne.w	80025c8 <HAL_GPIO_Init+0x10>
  }
}
 80028a2:	bf00      	nop
 80028a4:	bf00      	nop
 80028a6:	371c      	adds	r7, #28
 80028a8:	46bd      	mov	sp, r7
 80028aa:	f85d 7b04 	ldr.w	r7, [sp], #4
 80028ae:	4770      	bx	lr
 80028b0:	40021000 	.word	0x40021000
 80028b4:	40010000 	.word	0x40010000
 80028b8:	48000400 	.word	0x48000400
 80028bc:	48000800 	.word	0x48000800
 80028c0:	48000c00 	.word	0x48000c00
 80028c4:	48001000 	.word	0x48001000
 80028c8:	48001400 	.word	0x48001400
 80028cc:	40010400 	.word	0x40010400

080028d0 <HAL_GPIO_WritePin>:
  *            @arg GPIO_PIN_RESET: to clear the port pin
  *            @arg GPIO_PIN_SET: to set the port pin
  * @retval None
  */
void HAL_GPIO_WritePin(GPIO_TypeDef *GPIOx, uint16_t GPIO_Pin, GPIO_PinState PinState)
{
 80028d0:	b480      	push	{r7}
 80028d2:	b083      	sub	sp, #12
 80028d4:	af00      	add	r7, sp, #0
 80028d6:	6078      	str	r0, [r7, #4]
 80028d8:	460b      	mov	r3, r1
 80028da:	807b      	strh	r3, [r7, #2]
 80028dc:	4613      	mov	r3, r2
 80028de:	707b      	strb	r3, [r7, #1]
  /* Check the parameters */
  assert_param(IS_GPIO_PIN(GPIO_Pin));
  assert_param(IS_GPIO_PIN_ACTION(PinState));

  if (PinState != GPIO_PIN_RESET)
 80028e0:	787b      	ldrb	r3, [r7, #1]
 80028e2:	2b00      	cmp	r3, #0
 80028e4:	d003      	beq.n	80028ee <HAL_GPIO_WritePin+0x1e>
  {
    GPIOx->BSRR = (uint32_t)GPIO_Pin;
 80028e6:	887a      	ldrh	r2, [r7, #2]
 80028e8:	687b      	ldr	r3, [r7, #4]
 80028ea:	619a      	str	r2, [r3, #24]
  }
  else
  {
    GPIOx->BRR = (uint32_t)GPIO_Pin;
  }
}
 80028ec:	e002      	b.n	80028f4 <HAL_GPIO_WritePin+0x24>
    GPIOx->BRR = (uint32_t)GPIO_Pin;
 80028ee:	887a      	ldrh	r2, [r7, #2]
 80028f0:	687b      	ldr	r3, [r7, #4]
 80028f2:	629a      	str	r2, [r3, #40]	@ 0x28
}
 80028f4:	bf00      	nop
 80028f6:	370c      	adds	r7, #12
 80028f8:	46bd      	mov	sp, r7
 80028fa:	f85d 7b04 	ldr.w	r7, [sp], #4
 80028fe:	4770      	bx	lr

08002900 <HAL_PWREx_DisableUCPDDeadBattery>:
  *       or to hand over control to the UCPD (which should therefore be
  *       initialized before doing the disable).
  * @retval None
  */
void HAL_PWREx_DisableUCPDDeadBattery(void)
{
 8002900:	b480      	push	{r7}
 8002902:	af00      	add	r7, sp, #0
  /* Write 1 to disable the USB Type-C dead battery pull-down behavior */
  SET_BIT(PWR->CR3, PWR_CR3_UCPD_DBDIS);
 8002904:	4b05      	ldr	r3, [pc, #20]	@ (800291c <HAL_PWREx_DisableUCPDDeadBattery+0x1c>)
 8002906:	689b      	ldr	r3, [r3, #8]
 8002908:	4a04      	ldr	r2, [pc, #16]	@ (800291c <HAL_PWREx_DisableUCPDDeadBattery+0x1c>)
 800290a:	f443 4380 	orr.w	r3, r3, #16384	@ 0x4000
 800290e:	6093      	str	r3, [r2, #8]
}
 8002910:	bf00      	nop
 8002912:	46bd      	mov	sp, r7
 8002914:	f85d 7b04 	ldr.w	r7, [sp], #4
 8002918:	4770      	bx	lr
 800291a:	bf00      	nop
 800291c:	40007000 	.word	0x40007000

08002920 <HAL_RCC_GetSysClockFreq>:
  *
  *
  * @retval SYSCLK frequency
  */
uint32_t HAL_RCC_GetSysClockFreq(void)
{
 8002920:	b480      	push	{r7}
 8002922:	b087      	sub	sp, #28
 8002924:	af00      	add	r7, sp, #0
  uint32_t pllvco, pllsource, pllr, pllm;
  uint32_t sysclockfreq;

  if (__HAL_RCC_GET_SYSCLK_SOURCE() == RCC_CFGR_SWS_HSI)
 8002926:	4b2c      	ldr	r3, [pc, #176]	@ (80029d8 <HAL_RCC_GetSysClockFreq+0xb8>)
 8002928:	689b      	ldr	r3, [r3, #8]
 800292a:	f003 030c 	and.w	r3, r3, #12
 800292e:	2b04      	cmp	r3, #4
 8002930:	d102      	bne.n	8002938 <HAL_RCC_GetSysClockFreq+0x18>
  {
    /* HSI used as system clock source */
    sysclockfreq = HSI_VALUE;
 8002932:	4b2a      	ldr	r3, [pc, #168]	@ (80029dc <HAL_RCC_GetSysClockFreq+0xbc>)
 8002934:	613b      	str	r3, [r7, #16]
 8002936:	e047      	b.n	80029c8 <HAL_RCC_GetSysClockFreq+0xa8>
  }
  else if (__HAL_RCC_GET_SYSCLK_SOURCE() == RCC_CFGR_SWS_HSE)
 8002938:	4b27      	ldr	r3, [pc, #156]	@ (80029d8 <HAL_RCC_GetSysClockFreq+0xb8>)
 800293a:	689b      	ldr	r3, [r3, #8]
 800293c:	f003 030c 	and.w	r3, r3, #12
 8002940:	2b08      	cmp	r3, #8
 8002942:	d102      	bne.n	800294a <HAL_RCC_GetSysClockFreq+0x2a>
  {
    /* HSE used as system clock source */
    sysclockfreq = HSE_VALUE;
 8002944:	4b26      	ldr	r3, [pc, #152]	@ (80029e0 <HAL_RCC_GetSysClockFreq+0xc0>)
 8002946:	613b      	str	r3, [r7, #16]
 8002948:	e03e      	b.n	80029c8 <HAL_RCC_GetSysClockFreq+0xa8>
  }
  else if (__HAL_RCC_GET_SYSCLK_SOURCE() == RCC_CFGR_SWS_PLL)
 800294a:	4b23      	ldr	r3, [pc, #140]	@ (80029d8 <HAL_RCC_GetSysClockFreq+0xb8>)
 800294c:	689b      	ldr	r3, [r3, #8]
 800294e:	f003 030c 	and.w	r3, r3, #12
 8002952:	2b0c      	cmp	r3, #12
 8002954:	d136      	bne.n	80029c4 <HAL_RCC_GetSysClockFreq+0xa4>
    /* PLL used as system clock  source */

    /* PLL_VCO = ((HSE_VALUE or HSI_VALUE)/ PLLM) * PLLN
    SYSCLK = PLL_VCO / PLLR
    */
    pllsource = READ_BIT(RCC->PLLCFGR, RCC_PLLCFGR_PLLSRC);
 8002956:	4b20      	ldr	r3, [pc, #128]	@ (80029d8 <HAL_RCC_GetSysClockFreq+0xb8>)
 8002958:	68db      	ldr	r3, [r3, #12]
 800295a:	f003 0303 	and.w	r3, r3, #3
 800295e:	60fb      	str	r3, [r7, #12]
    pllm = (READ_BIT(RCC->PLLCFGR, RCC_PLLCFGR_PLLM) >> RCC_PLLCFGR_PLLM_Pos) + 1U ;
 8002960:	4b1d      	ldr	r3, [pc, #116]	@ (80029d8 <HAL_RCC_GetSysClockFreq+0xb8>)
 8002962:	68db      	ldr	r3, [r3, #12]
 8002964:	091b      	lsrs	r3, r3, #4
 8002966:	f003 030f 	and.w	r3, r3, #15
 800296a:	3301      	adds	r3, #1
 800296c:	60bb      	str	r3, [r7, #8]

    switch (pllsource)
 800296e:	68fb      	ldr	r3, [r7, #12]
 8002970:	2b03      	cmp	r3, #3
 8002972:	d10c      	bne.n	800298e <HAL_RCC_GetSysClockFreq+0x6e>
    {
    case RCC_PLLSOURCE_HSE:  /* HSE used as PLL clock source */
      pllvco = (HSE_VALUE / pllm) * (READ_BIT(RCC->PLLCFGR, RCC_PLLCFGR_PLLN) >> RCC_PLLCFGR_PLLN_Pos);
 8002974:	4a1a      	ldr	r2, [pc, #104]	@ (80029e0 <HAL_RCC_GetSysClockFreq+0xc0>)
 8002976:	68bb      	ldr	r3, [r7, #8]
 8002978:	fbb2 f3f3 	udiv	r3, r2, r3
 800297c:	4a16      	ldr	r2, [pc, #88]	@ (80029d8 <HAL_RCC_GetSysClockFreq+0xb8>)
 800297e:	68d2      	ldr	r2, [r2, #12]
 8002980:	0a12      	lsrs	r2, r2, #8
 8002982:	f002 027f 	and.w	r2, r2, #127	@ 0x7f
 8002986:	fb02 f303 	mul.w	r3, r2, r3
 800298a:	617b      	str	r3, [r7, #20]
      break;
 800298c:	e00c      	b.n	80029a8 <HAL_RCC_GetSysClockFreq+0x88>

    case RCC_PLLSOURCE_HSI:  /* HSI used as PLL clock source */
    default:
      pllvco = (HSI_VALUE / pllm) * (READ_BIT(RCC->PLLCFGR, RCC_PLLCFGR_PLLN) >> RCC_PLLCFGR_PLLN_Pos);
 800298e:	4a13      	ldr	r2, [pc, #76]	@ (80029dc <HAL_RCC_GetSysClockFreq+0xbc>)
 8002990:	68bb      	ldr	r3, [r7, #8]
 8002992:	fbb2 f3f3 	udiv	r3, r2, r3
 8002996:	4a10      	ldr	r2, [pc, #64]	@ (80029d8 <HAL_RCC_GetSysClockFreq+0xb8>)
 8002998:	68d2      	ldr	r2, [r2, #12]
 800299a:	0a12      	lsrs	r2, r2, #8
 800299c:	f002 027f 	and.w	r2, r2, #127	@ 0x7f
 80029a0:	fb02 f303 	mul.w	r3, r2, r3
 80029a4:	617b      	str	r3, [r7, #20]
      break;
 80029a6:	bf00      	nop
    }
    pllr = ((READ_BIT(RCC->PLLCFGR, RCC_PLLCFGR_PLLR) >> RCC_PLLCFGR_PLLR_Pos) + 1U ) * 2U;
 80029a8:	4b0b      	ldr	r3, [pc, #44]	@ (80029d8 <HAL_RCC_GetSysClockFreq+0xb8>)
 80029aa:	68db      	ldr	r3, [r3, #12]
 80029ac:	0e5b      	lsrs	r3, r3, #25
 80029ae:	f003 0303 	and.w	r3, r3, #3
 80029b2:	3301      	adds	r3, #1
 80029b4:	005b      	lsls	r3, r3, #1
 80029b6:	607b      	str	r3, [r7, #4]
    sysclockfreq = pllvco/pllr;
 80029b8:	697a      	ldr	r2, [r7, #20]
 80029ba:	687b      	ldr	r3, [r7, #4]
 80029bc:	fbb2 f3f3 	udiv	r3, r2, r3
 80029c0:	613b      	str	r3, [r7, #16]
 80029c2:	e001      	b.n	80029c8 <HAL_RCC_GetSysClockFreq+0xa8>
  }
  else
  {
    sysclockfreq = 0U;
 80029c4:	2300      	movs	r3, #0
 80029c6:	613b      	str	r3, [r7, #16]
  }

  return sysclockfreq;
 80029c8:	693b      	ldr	r3, [r7, #16]
}
 80029ca:	4618      	mov	r0, r3
 80029cc:	371c      	adds	r7, #28
 80029ce:	46bd      	mov	sp, r7
 80029d0:	f85d 7b04 	ldr.w	r7, [sp], #4
 80029d4:	4770      	bx	lr
 80029d6:	bf00      	nop
 80029d8:	40021000 	.word	0x40021000
 80029dc:	00f42400 	.word	0x00f42400
 80029e0:	02dc6c00 	.word	0x02dc6c00

080029e4 <HAL_RCC_GetHCLKFreq>:
  *
  * @note   The SystemCoreClock CMSIS variable is used to store System Clock Frequency.
  * @retval HCLK frequency in Hz
  */
uint32_t HAL_RCC_GetHCLKFreq(void)
{
 80029e4:	b480      	push	{r7}
 80029e6:	af00      	add	r7, sp, #0
  return SystemCoreClock;
 80029e8:	4b03      	ldr	r3, [pc, #12]	@ (80029f8 <HAL_RCC_GetHCLKFreq+0x14>)
 80029ea:	681b      	ldr	r3, [r3, #0]
}
 80029ec:	4618      	mov	r0, r3
 80029ee:	46bd      	mov	sp, r7
 80029f0:	f85d 7b04 	ldr.w	r7, [sp], #4
 80029f4:	4770      	bx	lr
 80029f6:	bf00      	nop
 80029f8:	20000000 	.word	0x20000000

080029fc <HAL_RCC_GetPCLK1Freq>:
  * @note   Each time PCLK1 changes, this function must be called to update the
  *         right PCLK1 value. Otherwise, any configuration based on this function will be incorrect.
  * @retval PCLK1 frequency in Hz
  */
uint32_t HAL_RCC_GetPCLK1Freq(void)
{
 80029fc:	b580      	push	{r7, lr}
 80029fe:	af00      	add	r7, sp, #0
  /* Get HCLK source and Compute PCLK1 frequency ---------------------------*/
  return (HAL_RCC_GetHCLKFreq() >> (APBPrescTable[READ_BIT(RCC->CFGR, RCC_CFGR_PPRE1) >> RCC_CFGR_PPRE1_Pos] & 0x1FU));
 8002a00:	f7ff fff0 	bl	80029e4 <HAL_RCC_GetHCLKFreq>
 8002a04:	4602      	mov	r2, r0
 8002a06:	4b06      	ldr	r3, [pc, #24]	@ (8002a20 <HAL_RCC_GetPCLK1Freq+0x24>)
 8002a08:	689b      	ldr	r3, [r3, #8]
 8002a0a:	0a1b      	lsrs	r3, r3, #8
 8002a0c:	f003 0307 	and.w	r3, r3, #7
 8002a10:	4904      	ldr	r1, [pc, #16]	@ (8002a24 <HAL_RCC_GetPCLK1Freq+0x28>)
 8002a12:	5ccb      	ldrb	r3, [r1, r3]
 8002a14:	f003 031f 	and.w	r3, r3, #31
 8002a18:	fa22 f303 	lsr.w	r3, r2, r3
}
 8002a1c:	4618      	mov	r0, r3
 8002a1e:	bd80      	pop	{r7, pc}
 8002a20:	40021000 	.word	0x40021000
 8002a24:	08007298 	.word	0x08007298

08002a28 <HAL_RCC_GetPCLK2Freq>:
  * @note   Each time PCLK2 changes, this function must be called to update the
  *         right PCLK2 value. Otherwise, any configuration based on this function will be incorrect.
  * @retval PCLK2 frequency in Hz
  */
uint32_t HAL_RCC_GetPCLK2Freq(void)
{
 8002a28:	b580      	push	{r7, lr}
 8002a2a:	af00      	add	r7, sp, #0
  /* Get HCLK source and Compute PCLK2 frequency ---------------------------*/
  return (HAL_RCC_GetHCLKFreq()>> (APBPrescTable[READ_BIT(RCC->CFGR, RCC_CFGR_PPRE2) >> RCC_CFGR_PPRE2_Pos] & 0x1FU));
 8002a2c:	f7ff ffda 	bl	80029e4 <HAL_RCC_GetHCLKFreq>
 8002a30:	4602      	mov	r2, r0
 8002a32:	4b06      	ldr	r3, [pc, #24]	@ (8002a4c <HAL_RCC_GetPCLK2Freq+0x24>)
 8002a34:	689b      	ldr	r3, [r3, #8]
 8002a36:	0adb      	lsrs	r3, r3, #11
 8002a38:	f003 0307 	and.w	r3, r3, #7
 8002a3c:	4904      	ldr	r1, [pc, #16]	@ (8002a50 <HAL_RCC_GetPCLK2Freq+0x28>)
 8002a3e:	5ccb      	ldrb	r3, [r1, r3]
 8002a40:	f003 031f 	and.w	r3, r3, #31
 8002a44:	fa22 f303 	lsr.w	r3, r2, r3
}
 8002a48:	4618      	mov	r0, r3
 8002a4a:	bd80      	pop	{r7, pc}
 8002a4c:	40021000 	.word	0x40021000
 8002a50:	08007298 	.word	0x08007298

08002a54 <HAL_RCC_GetClockConfig>:
  *         will be configured.
  * @param  pFLatency  Pointer on the Flash Latency.
  * @retval None
  */
void HAL_RCC_GetClockConfig(RCC_ClkInitTypeDef  *RCC_ClkInitStruct, uint32_t *pFLatency)
{
 8002a54:	b480      	push	{r7}
 8002a56:	b083      	sub	sp, #12
 8002a58:	af00      	add	r7, sp, #0
 8002a5a:	6078      	str	r0, [r7, #4]
 8002a5c:	6039      	str	r1, [r7, #0]
  /* Check the parameters */
  assert_param(RCC_ClkInitStruct != (void  *)NULL);
  assert_param(pFLatency != (void *)NULL);

  /* Set all possible values for the Clock type parameter --------------------*/
  RCC_ClkInitStruct->ClockType = RCC_CLOCKTYPE_SYSCLK | RCC_CLOCKTYPE_HCLK | RCC_CLOCKTYPE_PCLK1 | RCC_CLOCKTYPE_PCLK2;
 8002a5e:	687b      	ldr	r3, [r7, #4]
 8002a60:	220f      	movs	r2, #15
 8002a62:	601a      	str	r2, [r3, #0]

  /* Get the SYSCLK configuration --------------------------------------------*/
  RCC_ClkInitStruct->SYSCLKSource = READ_BIT(RCC->CFGR, RCC_CFGR_SW);
 8002a64:	4b12      	ldr	r3, [pc, #72]	@ (8002ab0 <HAL_RCC_GetClockConfig+0x5c>)
 8002a66:	689b      	ldr	r3, [r3, #8]
 8002a68:	f003 0203 	and.w	r2, r3, #3
 8002a6c:	687b      	ldr	r3, [r7, #4]
 8002a6e:	605a      	str	r2, [r3, #4]

  /* Get the HCLK configuration ----------------------------------------------*/
  RCC_ClkInitStruct->AHBCLKDivider = READ_BIT(RCC->CFGR, RCC_CFGR_HPRE);
 8002a70:	4b0f      	ldr	r3, [pc, #60]	@ (8002ab0 <HAL_RCC_GetClockConfig+0x5c>)
 8002a72:	689b      	ldr	r3, [r3, #8]
 8002a74:	f003 02f0 	and.w	r2, r3, #240	@ 0xf0
 8002a78:	687b      	ldr	r3, [r7, #4]
 8002a7a:	609a      	str	r2, [r3, #8]

  /* Get the APB1 configuration ----------------------------------------------*/
  RCC_ClkInitStruct->APB1CLKDivider = READ_BIT(RCC->CFGR, RCC_CFGR_PPRE1);
 8002a7c:	4b0c      	ldr	r3, [pc, #48]	@ (8002ab0 <HAL_RCC_GetClockConfig+0x5c>)
 8002a7e:	689b      	ldr	r3, [r3, #8]
 8002a80:	f403 62e0 	and.w	r2, r3, #1792	@ 0x700
 8002a84:	687b      	ldr	r3, [r7, #4]
 8002a86:	60da      	str	r2, [r3, #12]

  /* Get the APB2 configuration ----------------------------------------------*/
  RCC_ClkInitStruct->APB2CLKDivider = (READ_BIT(RCC->CFGR, RCC_CFGR_PPRE2) >> 3U);
 8002a88:	4b09      	ldr	r3, [pc, #36]	@ (8002ab0 <HAL_RCC_GetClockConfig+0x5c>)
 8002a8a:	689b      	ldr	r3, [r3, #8]
 8002a8c:	08db      	lsrs	r3, r3, #3
 8002a8e:	f403 62e0 	and.w	r2, r3, #1792	@ 0x700
 8002a92:	687b      	ldr	r3, [r7, #4]
 8002a94:	611a      	str	r2, [r3, #16]

  /* Get the Flash Wait State (Latency) configuration ------------------------*/
  *pFLatency = __HAL_FLASH_GET_LATENCY();
 8002a96:	4b07      	ldr	r3, [pc, #28]	@ (8002ab4 <HAL_RCC_GetClockConfig+0x60>)
 8002a98:	681b      	ldr	r3, [r3, #0]
 8002a9a:	f003 020f 	and.w	r2, r3, #15
 8002a9e:	683b      	ldr	r3, [r7, #0]
 8002aa0:	601a      	str	r2, [r3, #0]
}
 8002aa2:	bf00      	nop
 8002aa4:	370c      	adds	r7, #12
 8002aa6:	46bd      	mov	sp, r7
 8002aa8:	f85d 7b04 	ldr.w	r7, [sp], #4
 8002aac:	4770      	bx	lr
 8002aae:	bf00      	nop
 8002ab0:	40021000 	.word	0x40021000
 8002ab4:	40022000 	.word	0x40022000

08002ab8 <HAL_TIM_Base_Init>:
  *         Ex: call @ref HAL_TIM_Base_DeInit() before HAL_TIM_Base_Init()
  * @param  htim TIM Base handle
  * @retval HAL status
  */
HAL_StatusTypeDef HAL_TIM_Base_Init(TIM_HandleTypeDef *htim)
{
 8002ab8:	b580      	push	{r7, lr}
 8002aba:	b082      	sub	sp, #8
 8002abc:	af00      	add	r7, sp, #0
 8002abe:	6078      	str	r0, [r7, #4]
  /* Check the TIM handle allocation */
  if (htim == NULL)
 8002ac0:	687b      	ldr	r3, [r7, #4]
 8002ac2:	2b00      	cmp	r3, #0
 8002ac4:	d101      	bne.n	8002aca <HAL_TIM_Base_Init+0x12>
  {
    return HAL_ERROR;
 8002ac6:	2301      	movs	r3, #1
 8002ac8:	e049      	b.n	8002b5e <HAL_TIM_Base_Init+0xa6>
  assert_param(IS_TIM_COUNTER_MODE(htim->Init.CounterMode));
  assert_param(IS_TIM_CLOCKDIVISION_DIV(htim->Init.ClockDivision));
  assert_param(IS_TIM_PERIOD(htim, htim->Init.Period));
  assert_param(IS_TIM_AUTORELOAD_PRELOAD(htim->Init.AutoReloadPreload));

  if (htim->State == HAL_TIM_STATE_RESET)
 8002aca:	687b      	ldr	r3, [r7, #4]
 8002acc:	f893 303d 	ldrb.w	r3, [r3, #61]	@ 0x3d
 8002ad0:	b2db      	uxtb	r3, r3
 8002ad2:	2b00      	cmp	r3, #0
 8002ad4:	d106      	bne.n	8002ae4 <HAL_TIM_Base_Init+0x2c>
  {
    /* Allocate lock resource and initialize it */
    htim->Lock = HAL_UNLOCKED;
 8002ad6:	687b      	ldr	r3, [r7, #4]
 8002ad8:	2200      	movs	r2, #0
 8002ada:	f883 203c 	strb.w	r2, [r3, #60]	@ 0x3c
    }
    /* Init the low level hardware : GPIO, CLOCK, NVIC */
    htim->Base_MspInitCallback(htim);
#else
    /* Init the low level hardware : GPIO, CLOCK, NVIC */
    HAL_TIM_Base_MspInit(htim);
 8002ade:	6878      	ldr	r0, [r7, #4]
 8002ae0:	f000 f841 	bl	8002b66 <HAL_TIM_Base_MspInit>
#endif /* USE_HAL_TIM_REGISTER_CALLBACKS */
  }

  /* Set the TIM state */
  htim->State = HAL_TIM_STATE_BUSY;
 8002ae4:	687b      	ldr	r3, [r7, #4]
 8002ae6:	2202      	movs	r2, #2
 8002ae8:	f883 203d 	strb.w	r2, [r3, #61]	@ 0x3d

  /* Set the Time Base configuration */
  TIM_Base_SetConfig(htim->Instance, &htim->Init);
 8002aec:	687b      	ldr	r3, [r7, #4]
 8002aee:	681a      	ldr	r2, [r3, #0]
 8002af0:	687b      	ldr	r3, [r7, #4]
 8002af2:	3304      	adds	r3, #4
 8002af4:	4619      	mov	r1, r3
 8002af6:	4610      	mov	r0, r2
 8002af8:	f000 fa30 	bl	8002f5c <TIM_Base_SetConfig>

  /* Initialize the DMA burst operation state */
  htim->DMABurstState = HAL_DMA_BURST_STATE_READY;
 8002afc:	687b      	ldr	r3, [r7, #4]
 8002afe:	2201      	movs	r2, #1
 8002b00:	f883 2048 	strb.w	r2, [r3, #72]	@ 0x48

  /* Initialize the TIM channels state */
  TIM_CHANNEL_STATE_SET_ALL(htim, HAL_TIM_CHANNEL_STATE_READY);
 8002b04:	687b      	ldr	r3, [r7, #4]
 8002b06:	2201      	movs	r2, #1
 8002b08:	f883 203e 	strb.w	r2, [r3, #62]	@ 0x3e
 8002b0c:	687b      	ldr	r3, [r7, #4]
 8002b0e:	2201      	movs	r2, #1
 8002b10:	f883 203f 	strb.w	r2, [r3, #63]	@ 0x3f
 8002b14:	687b      	ldr	r3, [r7, #4]
 8002b16:	2201      	movs	r2, #1
 8002b18:	f883 2040 	strb.w	r2, [r3, #64]	@ 0x40
 8002b1c:	687b      	ldr	r3, [r7, #4]
 8002b1e:	2201      	movs	r2, #1
 8002b20:	f883 2041 	strb.w	r2, [r3, #65]	@ 0x41
 8002b24:	687b      	ldr	r3, [r7, #4]
 8002b26:	2201      	movs	r2, #1
 8002b28:	f883 2042 	strb.w	r2, [r3, #66]	@ 0x42
 8002b2c:	687b      	ldr	r3, [r7, #4]
 8002b2e:	2201      	movs	r2, #1
 8002b30:	f883 2043 	strb.w	r2, [r3, #67]	@ 0x43
  TIM_CHANNEL_N_STATE_SET_ALL(htim, HAL_TIM_CHANNEL_STATE_READY);
 8002b34:	687b      	ldr	r3, [r7, #4]
 8002b36:	2201      	movs	r2, #1
 8002b38:	f883 2044 	strb.w	r2, [r3, #68]	@ 0x44
 8002b3c:	687b      	ldr	r3, [r7, #4]
 8002b3e:	2201      	movs	r2, #1
 8002b40:	f883 2045 	strb.w	r2, [r3, #69]	@ 0x45
 8002b44:	687b      	ldr	r3, [r7, #4]
 8002b46:	2201      	movs	r2, #1
 8002b48:	f883 2046 	strb.w	r2, [r3, #70]	@ 0x46
 8002b4c:	687b      	ldr	r3, [r7, #4]
 8002b4e:	2201      	movs	r2, #1
 8002b50:	f883 2047 	strb.w	r2, [r3, #71]	@ 0x47

  /* Initialize the TIM state*/
  htim->State = HAL_TIM_STATE_READY;
 8002b54:	687b      	ldr	r3, [r7, #4]
 8002b56:	2201      	movs	r2, #1
 8002b58:	f883 203d 	strb.w	r2, [r3, #61]	@ 0x3d

  return HAL_OK;
 8002b5c:	2300      	movs	r3, #0
}
 8002b5e:	4618      	mov	r0, r3
 8002b60:	3708      	adds	r7, #8
 8002b62:	46bd      	mov	sp, r7
 8002b64:	bd80      	pop	{r7, pc}

08002b66 <HAL_TIM_Base_MspInit>:
  * @brief  Initializes the TIM Base MSP.
  * @param  htim TIM Base handle
  * @retval None
  */
__weak void HAL_TIM_Base_MspInit(TIM_HandleTypeDef *htim)
{
 8002b66:	b480      	push	{r7}
 8002b68:	b083      	sub	sp, #12
 8002b6a:	af00      	add	r7, sp, #0
 8002b6c:	6078      	str	r0, [r7, #4]
  UNUSED(htim);

  /* NOTE : This function should not be modified, when the callback is needed,
            the HAL_TIM_Base_MspInit could be implemented in the user file
   */
}
 8002b6e:	bf00      	nop
 8002b70:	370c      	adds	r7, #12
 8002b72:	46bd      	mov	sp, r7
 8002b74:	f85d 7b04 	ldr.w	r7, [sp], #4
 8002b78:	4770      	bx	lr
	...

08002b7c <HAL_TIM_Base_Start_IT>:
  * @brief  Starts the TIM Base generation in interrupt mode.
  * @param  htim TIM Base handle
  * @retval HAL status
  */
HAL_StatusTypeDef HAL_TIM_Base_Start_IT(TIM_HandleTypeDef *htim)
{
 8002b7c:	b480      	push	{r7}
 8002b7e:	b085      	sub	sp, #20
 8002b80:	af00      	add	r7, sp, #0
 8002b82:	6078      	str	r0, [r7, #4]

  /* Check the parameters */
  assert_param(IS_TIM_INSTANCE(htim->Instance));

  /* Check the TIM state */
  if (htim->State != HAL_TIM_STATE_READY)
 8002b84:	687b      	ldr	r3, [r7, #4]
 8002b86:	f893 303d 	ldrb.w	r3, [r3, #61]	@ 0x3d
 8002b8a:	b2db      	uxtb	r3, r3
 8002b8c:	2b01      	cmp	r3, #1
 8002b8e:	d001      	beq.n	8002b94 <HAL_TIM_Base_Start_IT+0x18>
  {
    return HAL_ERROR;
 8002b90:	2301      	movs	r3, #1
 8002b92:	e054      	b.n	8002c3e <HAL_TIM_Base_Start_IT+0xc2>
  }

  /* Set the TIM state */
  htim->State = HAL_TIM_STATE_BUSY;
 8002b94:	687b      	ldr	r3, [r7, #4]
 8002b96:	2202      	movs	r2, #2
 8002b98:	f883 203d 	strb.w	r2, [r3, #61]	@ 0x3d

  /* Enable the TIM Update interrupt */
  __HAL_TIM_ENABLE_IT(htim, TIM_IT_UPDATE);
 8002b9c:	687b      	ldr	r3, [r7, #4]
 8002b9e:	681b      	ldr	r3, [r3, #0]
 8002ba0:	68da      	ldr	r2, [r3, #12]
 8002ba2:	687b      	ldr	r3, [r7, #4]
 8002ba4:	681b      	ldr	r3, [r3, #0]
 8002ba6:	f042 0201 	orr.w	r2, r2, #1
 8002baa:	60da      	str	r2, [r3, #12]

  /* Enable the Peripheral, except in trigger mode where enable is automatically done with trigger */
  if (IS_TIM_SLAVE_INSTANCE(htim->Instance))
 8002bac:	687b      	ldr	r3, [r7, #4]
 8002bae:	681b      	ldr	r3, [r3, #0]
 8002bb0:	4a26      	ldr	r2, [pc, #152]	@ (8002c4c <HAL_TIM_Base_Start_IT+0xd0>)
 8002bb2:	4293      	cmp	r3, r2
 8002bb4:	d022      	beq.n	8002bfc <HAL_TIM_Base_Start_IT+0x80>
 8002bb6:	687b      	ldr	r3, [r7, #4]
 8002bb8:	681b      	ldr	r3, [r3, #0]
 8002bba:	f1b3 4f80 	cmp.w	r3, #1073741824	@ 0x40000000
 8002bbe:	d01d      	beq.n	8002bfc <HAL_TIM_Base_Start_IT+0x80>
 8002bc0:	687b      	ldr	r3, [r7, #4]
 8002bc2:	681b      	ldr	r3, [r3, #0]
 8002bc4:	4a22      	ldr	r2, [pc, #136]	@ (8002c50 <HAL_TIM_Base_Start_IT+0xd4>)
 8002bc6:	4293      	cmp	r3, r2
 8002bc8:	d018      	beq.n	8002bfc <HAL_TIM_Base_Start_IT+0x80>
 8002bca:	687b      	ldr	r3, [r7, #4]
 8002bcc:	681b      	ldr	r3, [r3, #0]
 8002bce:	4a21      	ldr	r2, [pc, #132]	@ (8002c54 <HAL_TIM_Base_Start_IT+0xd8>)
 8002bd0:	4293      	cmp	r3, r2
 8002bd2:	d013      	beq.n	8002bfc <HAL_TIM_Base_Start_IT+0x80>
 8002bd4:	687b      	ldr	r3, [r7, #4]
 8002bd6:	681b      	ldr	r3, [r3, #0]
 8002bd8:	4a1f      	ldr	r2, [pc, #124]	@ (8002c58 <HAL_TIM_Base_Start_IT+0xdc>)
 8002bda:	4293      	cmp	r3, r2
 8002bdc:	d00e      	beq.n	8002bfc <HAL_TIM_Base_Start_IT+0x80>
 8002bde:	687b      	ldr	r3, [r7, #4]
 8002be0:	681b      	ldr	r3, [r3, #0]
 8002be2:	4a1e      	ldr	r2, [pc, #120]	@ (8002c5c <HAL_TIM_Base_Start_IT+0xe0>)
 8002be4:	4293      	cmp	r3, r2
 8002be6:	d009      	beq.n	8002bfc <HAL_TIM_Base_Start_IT+0x80>
 8002be8:	687b      	ldr	r3, [r7, #4]
 8002bea:	681b      	ldr	r3, [r3, #0]
 8002bec:	4a1c      	ldr	r2, [pc, #112]	@ (8002c60 <HAL_TIM_Base_Start_IT+0xe4>)
 8002bee:	4293      	cmp	r3, r2
 8002bf0:	d004      	beq.n	8002bfc <HAL_TIM_Base_Start_IT+0x80>
 8002bf2:	687b      	ldr	r3, [r7, #4]
 8002bf4:	681b      	ldr	r3, [r3, #0]
 8002bf6:	4a1b      	ldr	r2, [pc, #108]	@ (8002c64 <HAL_TIM_Base_Start_IT+0xe8>)
 8002bf8:	4293      	cmp	r3, r2
 8002bfa:	d115      	bne.n	8002c28 <HAL_TIM_Base_Start_IT+0xac>
  {
    tmpsmcr = htim->Instance->SMCR & TIM_SMCR_SMS;
 8002bfc:	687b      	ldr	r3, [r7, #4]
 8002bfe:	681b      	ldr	r3, [r3, #0]
 8002c00:	689a      	ldr	r2, [r3, #8]
 8002c02:	4b19      	ldr	r3, [pc, #100]	@ (8002c68 <HAL_TIM_Base_Start_IT+0xec>)
 8002c04:	4013      	ands	r3, r2
 8002c06:	60fb      	str	r3, [r7, #12]
    if (!IS_TIM_SLAVEMODE_TRIGGER_ENABLED(tmpsmcr))
 8002c08:	68fb      	ldr	r3, [r7, #12]
 8002c0a:	2b06      	cmp	r3, #6
 8002c0c:	d015      	beq.n	8002c3a <HAL_TIM_Base_Start_IT+0xbe>
 8002c0e:	68fb      	ldr	r3, [r7, #12]
 8002c10:	f5b3 3f80 	cmp.w	r3, #65536	@ 0x10000
 8002c14:	d011      	beq.n	8002c3a <HAL_TIM_Base_Start_IT+0xbe>
    {
      __HAL_TIM_ENABLE(htim);
 8002c16:	687b      	ldr	r3, [r7, #4]
 8002c18:	681b      	ldr	r3, [r3, #0]
 8002c1a:	681a      	ldr	r2, [r3, #0]
 8002c1c:	687b      	ldr	r3, [r7, #4]
 8002c1e:	681b      	ldr	r3, [r3, #0]
 8002c20:	f042 0201 	orr.w	r2, r2, #1
 8002c24:	601a      	str	r2, [r3, #0]
    if (!IS_TIM_SLAVEMODE_TRIGGER_ENABLED(tmpsmcr))
 8002c26:	e008      	b.n	8002c3a <HAL_TIM_Base_Start_IT+0xbe>
    }
  }
  else
  {
    __HAL_TIM_ENABLE(htim);
 8002c28:	687b      	ldr	r3, [r7, #4]
 8002c2a:	681b      	ldr	r3, [r3, #0]
 8002c2c:	681a      	ldr	r2, [r3, #0]
 8002c2e:	687b      	ldr	r3, [r7, #4]
 8002c30:	681b      	ldr	r3, [r3, #0]
 8002c32:	f042 0201 	orr.w	r2, r2, #1
 8002c36:	601a      	str	r2, [r3, #0]
 8002c38:	e000      	b.n	8002c3c <HAL_TIM_Base_Start_IT+0xc0>
    if (!IS_TIM_SLAVEMODE_TRIGGER_ENABLED(tmpsmcr))
 8002c3a:	bf00      	nop
  }

  /* Return function status */
  return HAL_OK;
 8002c3c:	2300      	movs	r3, #0
}
 8002c3e:	4618      	mov	r0, r3
 8002c40:	3714      	adds	r7, #20
 8002c42:	46bd      	mov	sp, r7
 8002c44:	f85d 7b04 	ldr.w	r7, [sp], #4
 8002c48:	4770      	bx	lr
 8002c4a:	bf00      	nop
 8002c4c:	40012c00 	.word	0x40012c00
 8002c50:	40000400 	.word	0x40000400
 8002c54:	40000800 	.word	0x40000800
 8002c58:	40000c00 	.word	0x40000c00
 8002c5c:	40013400 	.word	0x40013400
 8002c60:	40014000 	.word	0x40014000
 8002c64:	40015000 	.word	0x40015000
 8002c68:	00010007 	.word	0x00010007

08002c6c <HAL_TIM_IRQHandler>:
  * @brief  This function handles TIM interrupts requests.
  * @param  htim TIM  handle
  * @retval None
  */
void HAL_TIM_IRQHandler(TIM_HandleTypeDef *htim)
{
 8002c6c:	b580      	push	{r7, lr}
 8002c6e:	b084      	sub	sp, #16
 8002c70:	af00      	add	r7, sp, #0
 8002c72:	6078      	str	r0, [r7, #4]
  uint32_t itsource = htim->Instance->DIER;
 8002c74:	687b      	ldr	r3, [r7, #4]
 8002c76:	681b      	ldr	r3, [r3, #0]
 8002c78:	68db      	ldr	r3, [r3, #12]
 8002c7a:	60fb      	str	r3, [r7, #12]
  uint32_t itflag   = htim->Instance->SR;
 8002c7c:	687b      	ldr	r3, [r7, #4]
 8002c7e:	681b      	ldr	r3, [r3, #0]
 8002c80:	691b      	ldr	r3, [r3, #16]
 8002c82:	60bb      	str	r3, [r7, #8]

  /* Capture compare 1 event */
  if ((itflag & (TIM_FLAG_CC1)) == (TIM_FLAG_CC1))
 8002c84:	68bb      	ldr	r3, [r7, #8]
 8002c86:	f003 0302 	and.w	r3, r3, #2
 8002c8a:	2b00      	cmp	r3, #0
 8002c8c:	d020      	beq.n	8002cd0 <HAL_TIM_IRQHandler+0x64>
  {
    if ((itsource & (TIM_IT_CC1)) == (TIM_IT_CC1))
 8002c8e:	68fb      	ldr	r3, [r7, #12]
 8002c90:	f003 0302 	and.w	r3, r3, #2
 8002c94:	2b00      	cmp	r3, #0
 8002c96:	d01b      	beq.n	8002cd0 <HAL_TIM_IRQHandler+0x64>
    {
      {
        __HAL_TIM_CLEAR_FLAG(htim, TIM_FLAG_CC1);
 8002c98:	687b      	ldr	r3, [r7, #4]
 8002c9a:	681b      	ldr	r3, [r3, #0]
 8002c9c:	f06f 0202 	mvn.w	r2, #2
 8002ca0:	611a      	str	r2, [r3, #16]
        htim->Channel = HAL_TIM_ACTIVE_CHANNEL_1;
 8002ca2:	687b      	ldr	r3, [r7, #4]
 8002ca4:	2201      	movs	r2, #1
 8002ca6:	771a      	strb	r2, [r3, #28]

        /* Input capture event */
        if ((htim->Instance->CCMR1 & TIM_CCMR1_CC1S) != 0x00U)
 8002ca8:	687b      	ldr	r3, [r7, #4]
 8002caa:	681b      	ldr	r3, [r3, #0]
 8002cac:	699b      	ldr	r3, [r3, #24]
 8002cae:	f003 0303 	and.w	r3, r3, #3
 8002cb2:	2b00      	cmp	r3, #0
 8002cb4:	d003      	beq.n	8002cbe <HAL_TIM_IRQHandler+0x52>
        {
#if (USE_HAL_TIM_REGISTER_CALLBACKS == 1)
          htim->IC_CaptureCallback(htim);
#else
          HAL_TIM_IC_CaptureCallback(htim);
 8002cb6:	6878      	ldr	r0, [r7, #4]
 8002cb8:	f000 f931 	bl	8002f1e <HAL_TIM_IC_CaptureCallback>
 8002cbc:	e005      	b.n	8002cca <HAL_TIM_IRQHandler+0x5e>
        {
#if (USE_HAL_TIM_REGISTER_CALLBACKS == 1)
          htim->OC_DelayElapsedCallback(htim);
          htim->PWM_PulseFinishedCallback(htim);
#else
          HAL_TIM_OC_DelayElapsedCallback(htim);
 8002cbe:	6878      	ldr	r0, [r7, #4]
 8002cc0:	f000 f923 	bl	8002f0a <HAL_TIM_OC_DelayElapsedCallback>
          HAL_TIM_PWM_PulseFinishedCallback(htim);
 8002cc4:	6878      	ldr	r0, [r7, #4]
 8002cc6:	f000 f934 	bl	8002f32 <HAL_TIM_PWM_PulseFinishedCallback>
#endif /* USE_HAL_TIM_REGISTER_CALLBACKS */
        }
        htim->Channel = HAL_TIM_ACTIVE_CHANNEL_CLEARED;
 8002cca:	687b      	ldr	r3, [r7, #4]
 8002ccc:	2200      	movs	r2, #0
 8002cce:	771a      	strb	r2, [r3, #28]
      }
    }
  }
  /* Capture compare 2 event */
  if ((itflag & (TIM_FLAG_CC2)) == (TIM_FLAG_CC2))
 8002cd0:	68bb      	ldr	r3, [r7, #8]
 8002cd2:	f003 0304 	and.w	r3, r3, #4
 8002cd6:	2b00      	cmp	r3, #0
 8002cd8:	d020      	beq.n	8002d1c <HAL_TIM_IRQHandler+0xb0>
  {
    if ((itsource & (TIM_IT_CC2)) == (TIM_IT_CC2))
 8002cda:	68fb      	ldr	r3, [r7, #12]
 8002cdc:	f003 0304 	and.w	r3, r3, #4
 8002ce0:	2b00      	cmp	r3, #0
 8002ce2:	d01b      	beq.n	8002d1c <HAL_TIM_IRQHandler+0xb0>
    {
      __HAL_TIM_CLEAR_FLAG(htim, TIM_FLAG_CC2);
 8002ce4:	687b      	ldr	r3, [r7, #4]
 8002ce6:	681b      	ldr	r3, [r3, #0]
 8002ce8:	f06f 0204 	mvn.w	r2, #4
 8002cec:	611a      	str	r2, [r3, #16]
      htim->Channel = HAL_TIM_ACTIVE_CHANNEL_2;
 8002cee:	687b      	ldr	r3, [r7, #4]
 8002cf0:	2202      	movs	r2, #2
 8002cf2:	771a      	strb	r2, [r3, #28]
      /* Input capture event */
      if ((htim->Instance->CCMR1 & TIM_CCMR1_CC2S) != 0x00U)
 8002cf4:	687b      	ldr	r3, [r7, #4]
 8002cf6:	681b      	ldr	r3, [r3, #0]
 8002cf8:	699b      	ldr	r3, [r3, #24]
 8002cfa:	f403 7340 	and.w	r3, r3, #768	@ 0x300
 8002cfe:	2b00      	cmp	r3, #0
 8002d00:	d003      	beq.n	8002d0a <HAL_TIM_IRQHandler+0x9e>
      {
#if (USE_HAL_TIM_REGISTER_CALLBACKS == 1)
        htim->IC_CaptureCallback(htim);
#else
        HAL_TIM_IC_CaptureCallback(htim);
 8002d02:	6878      	ldr	r0, [r7, #4]
 8002d04:	f000 f90b 	bl	8002f1e <HAL_TIM_IC_CaptureCallback>
 8002d08:	e005      	b.n	8002d16 <HAL_TIM_IRQHandler+0xaa>
      {
#if (USE_HAL_TIM_REGISTER_CALLBACKS == 1)
        htim->OC_DelayElapsedCallback(htim);
        htim->PWM_PulseFinishedCallback(htim);
#else
        HAL_TIM_OC_DelayElapsedCallback(htim);
 8002d0a:	6878      	ldr	r0, [r7, #4]
 8002d0c:	f000 f8fd 	bl	8002f0a <HAL_TIM_OC_DelayElapsedCallback>
        HAL_TIM_PWM_PulseFinishedCallback(htim);
 8002d10:	6878      	ldr	r0, [r7, #4]
 8002d12:	f000 f90e 	bl	8002f32 <HAL_TIM_PWM_PulseFinishedCallback>
#endif /* USE_HAL_TIM_REGISTER_CALLBACKS */
      }
      htim->Channel = HAL_TIM_ACTIVE_CHANNEL_CLEARED;
 8002d16:	687b      	ldr	r3, [r7, #4]
 8002d18:	2200      	movs	r2, #0
 8002d1a:	771a      	strb	r2, [r3, #28]
    }
  }
  /* Capture compare 3 event */
  if ((itflag & (TIM_FLAG_CC3)) == (TIM_FLAG_CC3))
 8002d1c:	68bb      	ldr	r3, [r7, #8]
 8002d1e:	f003 0308 	and.w	r3, r3, #8
 8002d22:	2b00      	cmp	r3, #0
 8002d24:	d020      	beq.n	8002d68 <HAL_TIM_IRQHandler+0xfc>
  {
    if ((itsource & (TIM_IT_CC3)) == (TIM_IT_CC3))
 8002d26:	68fb      	ldr	r3, [r7, #12]
 8002d28:	f003 0308 	and.w	r3, r3, #8
 8002d2c:	2b00      	cmp	r3, #0
 8002d2e:	d01b      	beq.n	8002d68 <HAL_TIM_IRQHandler+0xfc>
    {
      __HAL_TIM_CLEAR_FLAG(htim, TIM_FLAG_CC3);
 8002d30:	687b      	ldr	r3, [r7, #4]
 8002d32:	681b      	ldr	r3, [r3, #0]
 8002d34:	f06f 0208 	mvn.w	r2, #8
 8002d38:	611a      	str	r2, [r3, #16]
      htim->Channel = HAL_TIM_ACTIVE_CHANNEL_3;
 8002d3a:	687b      	ldr	r3, [r7, #4]
 8002d3c:	2204      	movs	r2, #4
 8002d3e:	771a      	strb	r2, [r3, #28]
      /* Input capture event */
      if ((htim->Instance->CCMR2 & TIM_CCMR2_CC3S) != 0x00U)
 8002d40:	687b      	ldr	r3, [r7, #4]
 8002d42:	681b      	ldr	r3, [r3, #0]
 8002d44:	69db      	ldr	r3, [r3, #28]
 8002d46:	f003 0303 	and.w	r3, r3, #3
 8002d4a:	2b00      	cmp	r3, #0
 8002d4c:	d003      	beq.n	8002d56 <HAL_TIM_IRQHandler+0xea>
      {
#if (USE_HAL_TIM_REGISTER_CALLBACKS == 1)
        htim->IC_CaptureCallback(htim);
#else
        HAL_TIM_IC_CaptureCallback(htim);
 8002d4e:	6878      	ldr	r0, [r7, #4]
 8002d50:	f000 f8e5 	bl	8002f1e <HAL_TIM_IC_CaptureCallback>
 8002d54:	e005      	b.n	8002d62 <HAL_TIM_IRQHandler+0xf6>
      {
#if (USE_HAL_TIM_REGISTER_CALLBACKS == 1)
        htim->OC_DelayElapsedCallback(htim);
        htim->PWM_PulseFinishedCallback(htim);
#else
        HAL_TIM_OC_DelayElapsedCallback(htim);
 8002d56:	6878      	ldr	r0, [r7, #4]
 8002d58:	f000 f8d7 	bl	8002f0a <HAL_TIM_OC_DelayElapsedCallback>
        HAL_TIM_PWM_PulseFinishedCallback(htim);
 8002d5c:	6878      	ldr	r0, [r7, #4]
 8002d5e:	f000 f8e8 	bl	8002f32 <HAL_TIM_PWM_PulseFinishedCallback>
#endif /* USE_HAL_TIM_REGISTER_CALLBACKS */
      }
      htim->Channel = HAL_TIM_ACTIVE_CHANNEL_CLEARED;
 8002d62:	687b      	ldr	r3, [r7, #4]
 8002d64:	2200      	movs	r2, #0
 8002d66:	771a      	strb	r2, [r3, #28]
    }
  }
  /* Capture compare 4 event */
  if ((itflag & (TIM_FLAG_CC4)) == (TIM_FLAG_CC4))
 8002d68:	68bb      	ldr	r3, [r7, #8]
 8002d6a:	f003 0310 	and.w	r3, r3, #16
 8002d6e:	2b00      	cmp	r3, #0
 8002d70:	d020      	beq.n	8002db4 <HAL_TIM_IRQHandler+0x148>
  {
    if ((itsource & (TIM_IT_CC4)) == (TIM_IT_CC4))
 8002d72:	68fb      	ldr	r3, [r7, #12]
 8002d74:	f003 0310 	and.w	r3, r3, #16
 8002d78:	2b00      	cmp	r3, #0
 8002d7a:	d01b      	beq.n	8002db4 <HAL_TIM_IRQHandler+0x148>
    {
      __HAL_TIM_CLEAR_FLAG(htim, TIM_FLAG_CC4);
 8002d7c:	687b      	ldr	r3, [r7, #4]
 8002d7e:	681b      	ldr	r3, [r3, #0]
 8002d80:	f06f 0210 	mvn.w	r2, #16
 8002d84:	611a      	str	r2, [r3, #16]
      htim->Channel = HAL_TIM_ACTIVE_CHANNEL_4;
 8002d86:	687b      	ldr	r3, [r7, #4]
 8002d88:	2208      	movs	r2, #8
 8002d8a:	771a      	strb	r2, [r3, #28]
      /* Input capture event */
      if ((htim->Instance->CCMR2 & TIM_CCMR2_CC4S) != 0x00U)
 8002d8c:	687b      	ldr	r3, [r7, #4]
 8002d8e:	681b      	ldr	r3, [r3, #0]
 8002d90:	69db      	ldr	r3, [r3, #28]
 8002d92:	f403 7340 	and.w	r3, r3, #768	@ 0x300
 8002d96:	2b00      	cmp	r3, #0
 8002d98:	d003      	beq.n	8002da2 <HAL_TIM_IRQHandler+0x136>
      {
#if (USE_HAL_TIM_REGISTER_CALLBACKS == 1)
        htim->IC_CaptureCallback(htim);
#else
        HAL_TIM_IC_CaptureCallback(htim);
 8002d9a:	6878      	ldr	r0, [r7, #4]
 8002d9c:	f000 f8bf 	bl	8002f1e <HAL_TIM_IC_CaptureCallback>
 8002da0:	e005      	b.n	8002dae <HAL_TIM_IRQHandler+0x142>
      {
#if (USE_HAL_TIM_REGISTER_CALLBACKS == 1)
        htim->OC_DelayElapsedCallback(htim);
        htim->PWM_PulseFinishedCallback(htim);
#else
        HAL_TIM_OC_DelayElapsedCallback(htim);
 8002da2:	6878      	ldr	r0, [r7, #4]
 8002da4:	f000 f8b1 	bl	8002f0a <HAL_TIM_OC_DelayElapsedCallback>
        HAL_TIM_PWM_PulseFinishedCallback(htim);
 8002da8:	6878      	ldr	r0, [r7, #4]
 8002daa:	f000 f8c2 	bl	8002f32 <HAL_TIM_PWM_PulseFinishedCallback>
#endif /* USE_HAL_TIM_REGISTER_CALLBACKS */
      }
      htim->Channel = HAL_TIM_ACTIVE_CHANNEL_CLEARED;
 8002dae:	687b      	ldr	r3, [r7, #4]
 8002db0:	2200      	movs	r2, #0
 8002db2:	771a      	strb	r2, [r3, #28]
    }
  }
  /* TIM Update event */
  if ((itflag & (TIM_FLAG_UPDATE)) == (TIM_FLAG_UPDATE))
 8002db4:	68bb      	ldr	r3, [r7, #8]
 8002db6:	f003 0301 	and.w	r3, r3, #1
 8002dba:	2b00      	cmp	r3, #0
 8002dbc:	d00c      	beq.n	8002dd8 <HAL_TIM_IRQHandler+0x16c>
  {
    if ((itsource & (TIM_IT_UPDATE)) == (TIM_IT_UPDATE))
 8002dbe:	68fb      	ldr	r3, [r7, #12]
 8002dc0:	f003 0301 	and.w	r3, r3, #1
 8002dc4:	2b00      	cmp	r3, #0
 8002dc6:	d007      	beq.n	8002dd8 <HAL_TIM_IRQHandler+0x16c>
    {
      __HAL_TIM_CLEAR_FLAG(htim, TIM_FLAG_UPDATE);
 8002dc8:	687b      	ldr	r3, [r7, #4]
 8002dca:	681b      	ldr	r3, [r3, #0]
 8002dcc:	f06f 0201 	mvn.w	r2, #1
 8002dd0:	611a      	str	r2, [r3, #16]
#if (USE_HAL_TIM_REGISTER_CALLBACKS == 1)
      htim->PeriodElapsedCallback(htim);
#else
      HAL_TIM_PeriodElapsedCallback(htim);
 8002dd2:	6878      	ldr	r0, [r7, #4]
 8002dd4:	f7fe ff8e 	bl	8001cf4 <HAL_TIM_PeriodElapsedCallback>
#endif /* USE_HAL_TIM_REGISTER_CALLBACKS */
    }
  }
  /* TIM Break input event */
  if (((itflag & (TIM_FLAG_BREAK)) == (TIM_FLAG_BREAK)) || \
 8002dd8:	68bb      	ldr	r3, [r7, #8]
 8002dda:	f003 0380 	and.w	r3, r3, #128	@ 0x80
 8002dde:	2b00      	cmp	r3, #0
 8002de0:	d104      	bne.n	8002dec <HAL_TIM_IRQHandler+0x180>
      ((itflag & (TIM_FLAG_SYSTEM_BREAK)) == (TIM_FLAG_SYSTEM_BREAK)))
 8002de2:	68bb      	ldr	r3, [r7, #8]
 8002de4:	f403 5300 	and.w	r3, r3, #8192	@ 0x2000
  if (((itflag & (TIM_FLAG_BREAK)) == (TIM_FLAG_BREAK)) || \
 8002de8:	2b00      	cmp	r3, #0
 8002dea:	d00c      	beq.n	8002e06 <HAL_TIM_IRQHandler+0x19a>
  {
    if ((itsource & (TIM_IT_BREAK)) == (TIM_IT_BREAK))
 8002dec:	68fb      	ldr	r3, [r7, #12]
 8002dee:	f003 0380 	and.w	r3, r3, #128	@ 0x80
 8002df2:	2b00      	cmp	r3, #0
 8002df4:	d007      	beq.n	8002e06 <HAL_TIM_IRQHandler+0x19a>
    {
      __HAL_TIM_CLEAR_FLAG(htim, TIM_FLAG_BREAK | TIM_FLAG_SYSTEM_BREAK);
 8002df6:	687b      	ldr	r3, [r7, #4]
 8002df8:	681b      	ldr	r3, [r3, #0]
 8002dfa:	f46f 5202 	mvn.w	r2, #8320	@ 0x2080
 8002dfe:	611a      	str	r2, [r3, #16]
#if (USE_HAL_TIM_REGISTER_CALLBACKS == 1)
      htim->BreakCallback(htim);
#else
      HAL_TIMEx_BreakCallback(htim);
 8002e00:	6878      	ldr	r0, [r7, #4]
 8002e02:	f000 f963 	bl	80030cc <HAL_TIMEx_BreakCallback>
#endif /* USE_HAL_TIM_REGISTER_CALLBACKS */
    }
  }
  /* TIM Break2 input event */
  if ((itflag & (TIM_FLAG_BREAK2)) == (TIM_FLAG_BREAK2))
 8002e06:	68bb      	ldr	r3, [r7, #8]
 8002e08:	f403 7380 	and.w	r3, r3, #256	@ 0x100
 8002e0c:	2b00      	cmp	r3, #0
 8002e0e:	d00c      	beq.n	8002e2a <HAL_TIM_IRQHandler+0x1be>
  {
    if ((itsource & (TIM_IT_BREAK)) == (TIM_IT_BREAK))
 8002e10:	68fb      	ldr	r3, [r7, #12]
 8002e12:	f003 0380 	and.w	r3, r3, #128	@ 0x80
 8002e16:	2b00      	cmp	r3, #0
 8002e18:	d007      	beq.n	8002e2a <HAL_TIM_IRQHandler+0x1be>
    {
      __HAL_TIM_CLEAR_FLAG(htim, TIM_FLAG_BREAK2);
 8002e1a:	687b      	ldr	r3, [r7, #4]
 8002e1c:	681b      	ldr	r3, [r3, #0]
 8002e1e:	f46f 7280 	mvn.w	r2, #256	@ 0x100
 8002e22:	611a      	str	r2, [r3, #16]
#if (USE_HAL_TIM_REGISTER_CALLBACKS == 1)
      htim->Break2Callback(htim);
#else
      HAL_TIMEx_Break2Callback(htim);
 8002e24:	6878      	ldr	r0, [r7, #4]
 8002e26:	f000 f95b 	bl	80030e0 <HAL_TIMEx_Break2Callback>
#endif /* USE_HAL_TIM_REGISTER_CALLBACKS */
    }
  }
  /* TIM Trigger detection event */
  if ((itflag & (TIM_FLAG_TRIGGER)) == (TIM_FLAG_TRIGGER))
 8002e2a:	68bb      	ldr	r3, [r7, #8]
 8002e2c:	f003 0340 	and.w	r3, r3, #64	@ 0x40
 8002e30:	2b00      	cmp	r3, #0
 8002e32:	d00c      	beq.n	8002e4e <HAL_TIM_IRQHandler+0x1e2>
  {
    if ((itsource & (TIM_IT_TRIGGER)) == (TIM_IT_TRIGGER))
 8002e34:	68fb      	ldr	r3, [r7, #12]
 8002e36:	f003 0340 	and.w	r3, r3, #64	@ 0x40
 8002e3a:	2b00      	cmp	r3, #0
 8002e3c:	d007      	beq.n	8002e4e <HAL_TIM_IRQHandler+0x1e2>
    {
      __HAL_TIM_CLEAR_FLAG(htim, TIM_FLAG_TRIGGER);
 8002e3e:	687b      	ldr	r3, [r7, #4]
 8002e40:	681b      	ldr	r3, [r3, #0]
 8002e42:	f06f 0240 	mvn.w	r2, #64	@ 0x40
 8002e46:	611a      	str	r2, [r3, #16]
#if (USE_HAL_TIM_REGISTER_CALLBACKS == 1)
      htim->TriggerCallback(htim);
#else
      HAL_TIM_TriggerCallback(htim);
 8002e48:	6878      	ldr	r0, [r7, #4]
 8002e4a:	f000 f87c 	bl	8002f46 <HAL_TIM_TriggerCallback>
#endif /* USE_HAL_TIM_REGISTER_CALLBACKS */
    }
  }
  /* TIM commutation event */
  if ((itflag & (TIM_FLAG_COM)) == (TIM_FLAG_COM))
 8002e4e:	68bb      	ldr	r3, [r7, #8]
 8002e50:	f003 0320 	and.w	r3, r3, #32
 8002e54:	2b00      	cmp	r3, #0
 8002e56:	d00c      	beq.n	8002e72 <HAL_TIM_IRQHandler+0x206>
  {
    if ((itsource & (TIM_IT_COM)) == (TIM_IT_COM))
 8002e58:	68fb      	ldr	r3, [r7, #12]
 8002e5a:	f003 0320 	and.w	r3, r3, #32
 8002e5e:	2b00      	cmp	r3, #0
 8002e60:	d007      	beq.n	8002e72 <HAL_TIM_IRQHandler+0x206>
    {
      __HAL_TIM_CLEAR_FLAG(htim, TIM_FLAG_COM);
 8002e62:	687b      	ldr	r3, [r7, #4]
 8002e64:	681b      	ldr	r3, [r3, #0]
 8002e66:	f06f 0220 	mvn.w	r2, #32
 8002e6a:	611a      	str	r2, [r3, #16]
#if (USE_HAL_TIM_REGISTER_CALLBACKS == 1)
      htim->CommutationCallback(htim);
#else
      HAL_TIMEx_CommutCallback(htim);
 8002e6c:	6878      	ldr	r0, [r7, #4]
 8002e6e:	f000 f923 	bl	80030b8 <HAL_TIMEx_CommutCallback>
#endif /* USE_HAL_TIM_REGISTER_CALLBACKS */
    }
  }
  /* TIM Encoder index event */
  if ((itflag & (TIM_FLAG_IDX)) == (TIM_FLAG_IDX))
 8002e72:	68bb      	ldr	r3, [r7, #8]
 8002e74:	f403 1380 	and.w	r3, r3, #1048576	@ 0x100000
 8002e78:	2b00      	cmp	r3, #0
 8002e7a:	d00c      	beq.n	8002e96 <HAL_TIM_IRQHandler+0x22a>
  {
    if ((itsource & (TIM_IT_IDX)) == (TIM_IT_IDX))
 8002e7c:	68fb      	ldr	r3, [r7, #12]
 8002e7e:	f403 1380 	and.w	r3, r3, #1048576	@ 0x100000
 8002e82:	2b00      	cmp	r3, #0
 8002e84:	d007      	beq.n	8002e96 <HAL_TIM_IRQHandler+0x22a>
    {
      __HAL_TIM_CLEAR_FLAG(htim, TIM_FLAG_IDX);
 8002e86:	687b      	ldr	r3, [r7, #4]
 8002e88:	681b      	ldr	r3, [r3, #0]
 8002e8a:	f46f 1280 	mvn.w	r2, #1048576	@ 0x100000
 8002e8e:	611a      	str	r2, [r3, #16]
#if (USE_HAL_TIM_REGISTER_CALLBACKS == 1)
      htim->EncoderIndexCallback(htim);
#else
      HAL_TIMEx_EncoderIndexCallback(htim);
 8002e90:	6878      	ldr	r0, [r7, #4]
 8002e92:	f000 f92f 	bl	80030f4 <HAL_TIMEx_EncoderIndexCallback>
#endif /* USE_HAL_TIM_REGISTER_CALLBACKS */
    }
  }
  /* TIM Direction change event */
  if ((itflag & (TIM_FLAG_DIR)) == (TIM_FLAG_DIR))
 8002e96:	68bb      	ldr	r3, [r7, #8]
 8002e98:	f403 1300 	and.w	r3, r3, #2097152	@ 0x200000
 8002e9c:	2b00      	cmp	r3, #0
 8002e9e:	d00c      	beq.n	8002eba <HAL_TIM_IRQHandler+0x24e>
  {
    if ((itsource & (TIM_IT_DIR)) == (TIM_IT_DIR))
 8002ea0:	68fb      	ldr	r3, [r7, #12]
 8002ea2:	f403 1300 	and.w	r3, r3, #2097152	@ 0x200000
 8002ea6:	2b00      	cmp	r3, #0
 8002ea8:	d007      	beq.n	8002eba <HAL_TIM_IRQHandler+0x24e>
    {
      __HAL_TIM_CLEAR_FLAG(htim, TIM_FLAG_DIR);
 8002eaa:	687b      	ldr	r3, [r7, #4]
 8002eac:	681b      	ldr	r3, [r3, #0]
 8002eae:	f46f 1200 	mvn.w	r2, #2097152	@ 0x200000
 8002eb2:	611a      	str	r2, [r3, #16]
#if (USE_HAL_TIM_REGISTER_CALLBACKS == 1)
      htim->DirectionChangeCallback(htim);
#else
      HAL_TIMEx_DirectionChangeCallback(htim);
 8002eb4:	6878      	ldr	r0, [r7, #4]
 8002eb6:	f000 f927 	bl	8003108 <HAL_TIMEx_DirectionChangeCallback>
#endif /* USE_HAL_TIM_REGISTER_CALLBACKS */
    }
  }
  /* TIM Index error event */
  if ((itflag & (TIM_FLAG_IERR)) == (TIM_FLAG_IERR))
 8002eba:	68bb      	ldr	r3, [r7, #8]
 8002ebc:	f403 0380 	and.w	r3, r3, #4194304	@ 0x400000
 8002ec0:	2b00      	cmp	r3, #0
 8002ec2:	d00c      	beq.n	8002ede <HAL_TIM_IRQHandler+0x272>
  {
    if ((itsource & (TIM_IT_IERR)) == (TIM_IT_IERR))
 8002ec4:	68fb      	ldr	r3, [r7, #12]
 8002ec6:	f403 0380 	and.w	r3, r3, #4194304	@ 0x400000
 8002eca:	2b00      	cmp	r3, #0
 8002ecc:	d007      	beq.n	8002ede <HAL_TIM_IRQHandler+0x272>
    {
      __HAL_TIM_CLEAR_FLAG(htim, TIM_FLAG_IERR);
 8002ece:	687b      	ldr	r3, [r7, #4]
 8002ed0:	681b      	ldr	r3, [r3, #0]
 8002ed2:	f46f 0280 	mvn.w	r2, #4194304	@ 0x400000
 8002ed6:	611a      	str	r2, [r3, #16]
#if (USE_HAL_TIM_REGISTER_CALLBACKS == 1)
      htim->IndexErrorCallback(htim);
#else
      HAL_TIMEx_IndexErrorCallback(htim);
 8002ed8:	6878      	ldr	r0, [r7, #4]
 8002eda:	f000 f91f 	bl	800311c <HAL_TIMEx_IndexErrorCallback>
#endif /* USE_HAL_TIM_REGISTER_CALLBACKS */
    }
  }
  /* TIM Transition error event */
  if ((itflag & (TIM_FLAG_TERR)) == (TIM_FLAG_TERR))
 8002ede:	68bb      	ldr	r3, [r7, #8]
 8002ee0:	f403 0300 	and.w	r3, r3, #8388608	@ 0x800000
 8002ee4:	2b00      	cmp	r3, #0
 8002ee6:	d00c      	beq.n	8002f02 <HAL_TIM_IRQHandler+0x296>
  {
    if ((itsource & (TIM_IT_TERR)) == (TIM_IT_TERR))
 8002ee8:	68fb      	ldr	r3, [r7, #12]
 8002eea:	f403 0300 	and.w	r3, r3, #8388608	@ 0x800000
 8002eee:	2b00      	cmp	r3, #0
 8002ef0:	d007      	beq.n	8002f02 <HAL_TIM_IRQHandler+0x296>
    {
      __HAL_TIM_CLEAR_FLAG(htim, TIM_FLAG_TERR);
 8002ef2:	687b      	ldr	r3, [r7, #4]
 8002ef4:	681b      	ldr	r3, [r3, #0]
 8002ef6:	f46f 0200 	mvn.w	r2, #8388608	@ 0x800000
 8002efa:	611a      	str	r2, [r3, #16]
#if (USE_HAL_TIM_REGISTER_CALLBACKS == 1)
      htim->TransitionErrorCallback(htim);
#else
      HAL_TIMEx_TransitionErrorCallback(htim);
 8002efc:	6878      	ldr	r0, [r7, #4]
 8002efe:	f000 f917 	bl	8003130 <HAL_TIMEx_TransitionErrorCallback>
#endif /* USE_HAL_TIM_REGISTER_CALLBACKS */
    }
  }
}
 8002f02:	bf00      	nop
 8002f04:	3710      	adds	r7, #16
 8002f06:	46bd      	mov	sp, r7
 8002f08:	bd80      	pop	{r7, pc}

08002f0a <HAL_TIM_OC_DelayElapsedCallback>:
  * @brief  Output Compare callback in non-blocking mode
  * @param  htim TIM OC handle
  * @retval None
  */
__weak void HAL_TIM_OC_DelayElapsedCallback(TIM_HandleTypeDef *htim)
{
 8002f0a:	b480      	push	{r7}
 8002f0c:	b083      	sub	sp, #12
 8002f0e:	af00      	add	r7, sp, #0
 8002f10:	6078      	str	r0, [r7, #4]
  UNUSED(htim);

  /* NOTE : This function should not be modified, when the callback is needed,
            the HAL_TIM_OC_DelayElapsedCallback could be implemented in the user file
   */
}
 8002f12:	bf00      	nop
 8002f14:	370c      	adds	r7, #12
 8002f16:	46bd      	mov	sp, r7
 8002f18:	f85d 7b04 	ldr.w	r7, [sp], #4
 8002f1c:	4770      	bx	lr

08002f1e <HAL_TIM_IC_CaptureCallback>:
  * @brief  Input Capture callback in non-blocking mode
  * @param  htim TIM IC handle
  * @retval None
  */
__weak void HAL_TIM_IC_CaptureCallback(TIM_HandleTypeDef *htim)
{
 8002f1e:	b480      	push	{r7}
 8002f20:	b083      	sub	sp, #12
 8002f22:	af00      	add	r7, sp, #0
 8002f24:	6078      	str	r0, [r7, #4]
  UNUSED(htim);

  /* NOTE : This function should not be modified, when the callback is needed,
            the HAL_TIM_IC_CaptureCallback could be implemented in the user file
   */
}
 8002f26:	bf00      	nop
 8002f28:	370c      	adds	r7, #12
 8002f2a:	46bd      	mov	sp, r7
 8002f2c:	f85d 7b04 	ldr.w	r7, [sp], #4
 8002f30:	4770      	bx	lr

08002f32 <HAL_TIM_PWM_PulseFinishedCallback>:
  * @brief  PWM Pulse finished callback in non-blocking mode
  * @param  htim TIM handle
  * @retval None
  */
__weak void HAL_TIM_PWM_PulseFinishedCallback(TIM_HandleTypeDef *htim)
{
 8002f32:	b480      	push	{r7}
 8002f34:	b083      	sub	sp, #12
 8002f36:	af00      	add	r7, sp, #0
 8002f38:	6078      	str	r0, [r7, #4]
  UNUSED(htim);

  /* NOTE : This function should not be modified, when the callback is needed,
            the HAL_TIM_PWM_PulseFinishedCallback could be implemented in the user file
   */
}
 8002f3a:	bf00      	nop
 8002f3c:	370c      	adds	r7, #12
 8002f3e:	46bd      	mov	sp, r7
 8002f40:	f85d 7b04 	ldr.w	r7, [sp], #4
 8002f44:	4770      	bx	lr

08002f46 <HAL_TIM_TriggerCallback>:
  * @brief  Hall Trigger detection callback in non-blocking mode
  * @param  htim TIM handle
  * @retval None
  */
__weak void HAL_TIM_TriggerCallback(TIM_HandleTypeDef *htim)
{
 8002f46:	b480      	push	{r7}
 8002f48:	b083      	sub	sp, #12
 8002f4a:	af00      	add	r7, sp, #0
 8002f4c:	6078      	str	r0, [r7, #4]
  UNUSED(htim);

  /* NOTE : This function should not be modified, when the callback is needed,
            the HAL_TIM_TriggerCallback could be implemented in the user file
   */
}
 8002f4e:	bf00      	nop
 8002f50:	370c      	adds	r7, #12
 8002f52:	46bd      	mov	sp, r7
 8002f54:	f85d 7b04 	ldr.w	r7, [sp], #4
 8002f58:	4770      	bx	lr
	...

08002f5c <TIM_Base_SetConfig>:
  * @param  TIMx TIM peripheral
  * @param  Structure TIM Base configuration structure
  * @retval None
  */
void TIM_Base_SetConfig(TIM_TypeDef *TIMx, const TIM_Base_InitTypeDef *Structure)
{
 8002f5c:	b480      	push	{r7}
 8002f5e:	b085      	sub	sp, #20
 8002f60:	af00      	add	r7, sp, #0
 8002f62:	6078      	str	r0, [r7, #4]
 8002f64:	6039      	str	r1, [r7, #0]
  uint32_t tmpcr1;
  tmpcr1 = TIMx->CR1;
 8002f66:	687b      	ldr	r3, [r7, #4]
 8002f68:	681b      	ldr	r3, [r3, #0]
 8002f6a:	60fb      	str	r3, [r7, #12]

  /* Set TIM Time Base Unit parameters ---------------------------------------*/
  if (IS_TIM_COUNTER_MODE_SELECT_INSTANCE(TIMx))
 8002f6c:	687b      	ldr	r3, [r7, #4]
 8002f6e:	4a49      	ldr	r2, [pc, #292]	@ (8003094 <TIM_Base_SetConfig+0x138>)
 8002f70:	4293      	cmp	r3, r2
 8002f72:	d017      	beq.n	8002fa4 <TIM_Base_SetConfig+0x48>
 8002f74:	687b      	ldr	r3, [r7, #4]
 8002f76:	f1b3 4f80 	cmp.w	r3, #1073741824	@ 0x40000000
 8002f7a:	d013      	beq.n	8002fa4 <TIM_Base_SetConfig+0x48>
 8002f7c:	687b      	ldr	r3, [r7, #4]
 8002f7e:	4a46      	ldr	r2, [pc, #280]	@ (8003098 <TIM_Base_SetConfig+0x13c>)
 8002f80:	4293      	cmp	r3, r2
 8002f82:	d00f      	beq.n	8002fa4 <TIM_Base_SetConfig+0x48>
 8002f84:	687b      	ldr	r3, [r7, #4]
 8002f86:	4a45      	ldr	r2, [pc, #276]	@ (800309c <TIM_Base_SetConfig+0x140>)
 8002f88:	4293      	cmp	r3, r2
 8002f8a:	d00b      	beq.n	8002fa4 <TIM_Base_SetConfig+0x48>
 8002f8c:	687b      	ldr	r3, [r7, #4]
 8002f8e:	4a44      	ldr	r2, [pc, #272]	@ (80030a0 <TIM_Base_SetConfig+0x144>)
 8002f90:	4293      	cmp	r3, r2
 8002f92:	d007      	beq.n	8002fa4 <TIM_Base_SetConfig+0x48>
 8002f94:	687b      	ldr	r3, [r7, #4]
 8002f96:	4a43      	ldr	r2, [pc, #268]	@ (80030a4 <TIM_Base_SetConfig+0x148>)
 8002f98:	4293      	cmp	r3, r2
 8002f9a:	d003      	beq.n	8002fa4 <TIM_Base_SetConfig+0x48>
 8002f9c:	687b      	ldr	r3, [r7, #4]
 8002f9e:	4a42      	ldr	r2, [pc, #264]	@ (80030a8 <TIM_Base_SetConfig+0x14c>)
 8002fa0:	4293      	cmp	r3, r2
 8002fa2:	d108      	bne.n	8002fb6 <TIM_Base_SetConfig+0x5a>
  {
    /* Select the Counter Mode */
    tmpcr1 &= ~(TIM_CR1_DIR | TIM_CR1_CMS);
 8002fa4:	68fb      	ldr	r3, [r7, #12]
 8002fa6:	f023 0370 	bic.w	r3, r3, #112	@ 0x70
 8002faa:	60fb      	str	r3, [r7, #12]
    tmpcr1 |= Structure->CounterMode;
 8002fac:	683b      	ldr	r3, [r7, #0]
 8002fae:	685b      	ldr	r3, [r3, #4]
 8002fb0:	68fa      	ldr	r2, [r7, #12]
 8002fb2:	4313      	orrs	r3, r2
 8002fb4:	60fb      	str	r3, [r7, #12]
  }

  if (IS_TIM_CLOCK_DIVISION_INSTANCE(TIMx))
 8002fb6:	687b      	ldr	r3, [r7, #4]
 8002fb8:	4a36      	ldr	r2, [pc, #216]	@ (8003094 <TIM_Base_SetConfig+0x138>)
 8002fba:	4293      	cmp	r3, r2
 8002fbc:	d023      	beq.n	8003006 <TIM_Base_SetConfig+0xaa>
 8002fbe:	687b      	ldr	r3, [r7, #4]
 8002fc0:	f1b3 4f80 	cmp.w	r3, #1073741824	@ 0x40000000
 8002fc4:	d01f      	beq.n	8003006 <TIM_Base_SetConfig+0xaa>
 8002fc6:	687b      	ldr	r3, [r7, #4]
 8002fc8:	4a33      	ldr	r2, [pc, #204]	@ (8003098 <TIM_Base_SetConfig+0x13c>)
 8002fca:	4293      	cmp	r3, r2
 8002fcc:	d01b      	beq.n	8003006 <TIM_Base_SetConfig+0xaa>
 8002fce:	687b      	ldr	r3, [r7, #4]
 8002fd0:	4a32      	ldr	r2, [pc, #200]	@ (800309c <TIM_Base_SetConfig+0x140>)
 8002fd2:	4293      	cmp	r3, r2
 8002fd4:	d017      	beq.n	8003006 <TIM_Base_SetConfig+0xaa>
 8002fd6:	687b      	ldr	r3, [r7, #4]
 8002fd8:	4a31      	ldr	r2, [pc, #196]	@ (80030a0 <TIM_Base_SetConfig+0x144>)
 8002fda:	4293      	cmp	r3, r2
 8002fdc:	d013      	beq.n	8003006 <TIM_Base_SetConfig+0xaa>
 8002fde:	687b      	ldr	r3, [r7, #4]
 8002fe0:	4a30      	ldr	r2, [pc, #192]	@ (80030a4 <TIM_Base_SetConfig+0x148>)
 8002fe2:	4293      	cmp	r3, r2
 8002fe4:	d00f      	beq.n	8003006 <TIM_Base_SetConfig+0xaa>
 8002fe6:	687b      	ldr	r3, [r7, #4]
 8002fe8:	4a30      	ldr	r2, [pc, #192]	@ (80030ac <TIM_Base_SetConfig+0x150>)
 8002fea:	4293      	cmp	r3, r2
 8002fec:	d00b      	beq.n	8003006 <TIM_Base_SetConfig+0xaa>
 8002fee:	687b      	ldr	r3, [r7, #4]
 8002ff0:	4a2f      	ldr	r2, [pc, #188]	@ (80030b0 <TIM_Base_SetConfig+0x154>)
 8002ff2:	4293      	cmp	r3, r2
 8002ff4:	d007      	beq.n	8003006 <TIM_Base_SetConfig+0xaa>
 8002ff6:	687b      	ldr	r3, [r7, #4]
 8002ff8:	4a2e      	ldr	r2, [pc, #184]	@ (80030b4 <TIM_Base_SetConfig+0x158>)
 8002ffa:	4293      	cmp	r3, r2
 8002ffc:	d003      	beq.n	8003006 <TIM_Base_SetConfig+0xaa>
 8002ffe:	687b      	ldr	r3, [r7, #4]
 8003000:	4a29      	ldr	r2, [pc, #164]	@ (80030a8 <TIM_Base_SetConfig+0x14c>)
 8003002:	4293      	cmp	r3, r2
 8003004:	d108      	bne.n	8003018 <TIM_Base_SetConfig+0xbc>
  {
    /* Set the clock division */
    tmpcr1 &= ~TIM_CR1_CKD;
 8003006:	68fb      	ldr	r3, [r7, #12]
 8003008:	f423 7340 	bic.w	r3, r3, #768	@ 0x300
 800300c:	60fb      	str	r3, [r7, #12]
    tmpcr1 |= (uint32_t)Structure->ClockDivision;
 800300e:	683b      	ldr	r3, [r7, #0]
 8003010:	68db      	ldr	r3, [r3, #12]
 8003012:	68fa      	ldr	r2, [r7, #12]
 8003014:	4313      	orrs	r3, r2
 8003016:	60fb      	str	r3, [r7, #12]
  }

  /* Set the auto-reload preload */
  MODIFY_REG(tmpcr1, TIM_CR1_ARPE, Structure->AutoReloadPreload);
 8003018:	68fb      	ldr	r3, [r7, #12]
 800301a:	f023 0280 	bic.w	r2, r3, #128	@ 0x80
 800301e:	683b      	ldr	r3, [r7, #0]
 8003020:	695b      	ldr	r3, [r3, #20]
 8003022:	4313      	orrs	r3, r2
 8003024:	60fb      	str	r3, [r7, #12]

  /* Set the Autoreload value */
  TIMx->ARR = (uint32_t)Structure->Period ;
 8003026:	683b      	ldr	r3, [r7, #0]
 8003028:	689a      	ldr	r2, [r3, #8]
 800302a:	687b      	ldr	r3, [r7, #4]
 800302c:	62da      	str	r2, [r3, #44]	@ 0x2c

  /* Set the Prescaler value */
  TIMx->PSC = Structure->Prescaler;
 800302e:	683b      	ldr	r3, [r7, #0]
 8003030:	681a      	ldr	r2, [r3, #0]
 8003032:	687b      	ldr	r3, [r7, #4]
 8003034:	629a      	str	r2, [r3, #40]	@ 0x28

  if (IS_TIM_REPETITION_COUNTER_INSTANCE(TIMx))
 8003036:	687b      	ldr	r3, [r7, #4]
 8003038:	4a16      	ldr	r2, [pc, #88]	@ (8003094 <TIM_Base_SetConfig+0x138>)
 800303a:	4293      	cmp	r3, r2
 800303c:	d013      	beq.n	8003066 <TIM_Base_SetConfig+0x10a>
 800303e:	687b      	ldr	r3, [r7, #4]
 8003040:	4a18      	ldr	r2, [pc, #96]	@ (80030a4 <TIM_Base_SetConfig+0x148>)
 8003042:	4293      	cmp	r3, r2
 8003044:	d00f      	beq.n	8003066 <TIM_Base_SetConfig+0x10a>
 8003046:	687b      	ldr	r3, [r7, #4]
 8003048:	4a18      	ldr	r2, [pc, #96]	@ (80030ac <TIM_Base_SetConfig+0x150>)
 800304a:	4293      	cmp	r3, r2
 800304c:	d00b      	beq.n	8003066 <TIM_Base_SetConfig+0x10a>
 800304e:	687b      	ldr	r3, [r7, #4]
 8003050:	4a17      	ldr	r2, [pc, #92]	@ (80030b0 <TIM_Base_SetConfig+0x154>)
 8003052:	4293      	cmp	r3, r2
 8003054:	d007      	beq.n	8003066 <TIM_Base_SetConfig+0x10a>
 8003056:	687b      	ldr	r3, [r7, #4]
 8003058:	4a16      	ldr	r2, [pc, #88]	@ (80030b4 <TIM_Base_SetConfig+0x158>)
 800305a:	4293      	cmp	r3, r2
 800305c:	d003      	beq.n	8003066 <TIM_Base_SetConfig+0x10a>
 800305e:	687b      	ldr	r3, [r7, #4]
 8003060:	4a11      	ldr	r2, [pc, #68]	@ (80030a8 <TIM_Base_SetConfig+0x14c>)
 8003062:	4293      	cmp	r3, r2
 8003064:	d103      	bne.n	800306e <TIM_Base_SetConfig+0x112>
  {
    /* Set the Repetition Counter value */
    TIMx->RCR = Structure->RepetitionCounter;
 8003066:	683b      	ldr	r3, [r7, #0]
 8003068:	691a      	ldr	r2, [r3, #16]
 800306a:	687b      	ldr	r3, [r7, #4]
 800306c:	631a      	str	r2, [r3, #48]	@ 0x30
  }

  /* Disable Update Event (UEV) with Update Generation (UG)
     by changing Update Request Source (URS) to avoid Update flag (UIF) */
  SET_BIT(TIMx->CR1, TIM_CR1_URS);
 800306e:	687b      	ldr	r3, [r7, #4]
 8003070:	681b      	ldr	r3, [r3, #0]
 8003072:	f043 0204 	orr.w	r2, r3, #4
 8003076:	687b      	ldr	r3, [r7, #4]
 8003078:	601a      	str	r2, [r3, #0]

  /* Generate an update event to reload the Prescaler
     and the repetition counter (only for advanced timer) value immediately */
  TIMx->EGR = TIM_EGR_UG;
 800307a:	687b      	ldr	r3, [r7, #4]
 800307c:	2201      	movs	r2, #1
 800307e:	615a      	str	r2, [r3, #20]

  TIMx->CR1 = tmpcr1;
 8003080:	687b      	ldr	r3, [r7, #4]
 8003082:	68fa      	ldr	r2, [r7, #12]
 8003084:	601a      	str	r2, [r3, #0]
}
 8003086:	bf00      	nop
 8003088:	3714      	adds	r7, #20
 800308a:	46bd      	mov	sp, r7
 800308c:	f85d 7b04 	ldr.w	r7, [sp], #4
 8003090:	4770      	bx	lr
 8003092:	bf00      	nop
 8003094:	40012c00 	.word	0x40012c00
 8003098:	40000400 	.word	0x40000400
 800309c:	40000800 	.word	0x40000800
 80030a0:	40000c00 	.word	0x40000c00
 80030a4:	40013400 	.word	0x40013400
 80030a8:	40015000 	.word	0x40015000
 80030ac:	40014000 	.word	0x40014000
 80030b0:	40014400 	.word	0x40014400
 80030b4:	40014800 	.word	0x40014800

080030b8 <HAL_TIMEx_CommutCallback>:
  * @brief  Commutation callback in non-blocking mode
  * @param  htim TIM handle
  * @retval None
  */
__weak void HAL_TIMEx_CommutCallback(TIM_HandleTypeDef *htim)
{
 80030b8:	b480      	push	{r7}
 80030ba:	b083      	sub	sp, #12
 80030bc:	af00      	add	r7, sp, #0
 80030be:	6078      	str	r0, [r7, #4]
  UNUSED(htim);

  /* NOTE : This function should not be modified, when the callback is needed,
            the HAL_TIMEx_CommutCallback could be implemented in the user file
   */
}
 80030c0:	bf00      	nop
 80030c2:	370c      	adds	r7, #12
 80030c4:	46bd      	mov	sp, r7
 80030c6:	f85d 7b04 	ldr.w	r7, [sp], #4
 80030ca:	4770      	bx	lr

080030cc <HAL_TIMEx_BreakCallback>:
  * @brief  Break detection callback in non-blocking mode
  * @param  htim TIM handle
  * @retval None
  */
__weak void HAL_TIMEx_BreakCallback(TIM_HandleTypeDef *htim)
{
 80030cc:	b480      	push	{r7}
 80030ce:	b083      	sub	sp, #12
 80030d0:	af00      	add	r7, sp, #0
 80030d2:	6078      	str	r0, [r7, #4]
  UNUSED(htim);

  /* NOTE : This function should not be modified, when the callback is needed,
            the HAL_TIMEx_BreakCallback could be implemented in the user file
   */
}
 80030d4:	bf00      	nop
 80030d6:	370c      	adds	r7, #12
 80030d8:	46bd      	mov	sp, r7
 80030da:	f85d 7b04 	ldr.w	r7, [sp], #4
 80030de:	4770      	bx	lr

080030e0 <HAL_TIMEx_Break2Callback>:
  * @brief  Break2 detection callback in non blocking mode
  * @param  htim: TIM handle
  * @retval None
  */
__weak void HAL_TIMEx_Break2Callback(TIM_HandleTypeDef *htim)
{
 80030e0:	b480      	push	{r7}
 80030e2:	b083      	sub	sp, #12
 80030e4:	af00      	add	r7, sp, #0
 80030e6:	6078      	str	r0, [r7, #4]
  UNUSED(htim);

  /* NOTE : This function Should not be modified, when the callback is needed,
            the HAL_TIMEx_Break2Callback could be implemented in the user file
   */
}
 80030e8:	bf00      	nop
 80030ea:	370c      	adds	r7, #12
 80030ec:	46bd      	mov	sp, r7
 80030ee:	f85d 7b04 	ldr.w	r7, [sp], #4
 80030f2:	4770      	bx	lr

080030f4 <HAL_TIMEx_EncoderIndexCallback>:
  * @brief  Encoder index callback in non-blocking mode
  * @param  htim TIM handle
  * @retval None
  */
__weak void HAL_TIMEx_EncoderIndexCallback(TIM_HandleTypeDef *htim)
{
 80030f4:	b480      	push	{r7}
 80030f6:	b083      	sub	sp, #12
 80030f8:	af00      	add	r7, sp, #0
 80030fa:	6078      	str	r0, [r7, #4]
  UNUSED(htim);

  /* NOTE : This function should not be modified, when the callback is needed,
            the HAL_TIMEx_EncoderIndexCallback could be implemented in the user file
   */
}
 80030fc:	bf00      	nop
 80030fe:	370c      	adds	r7, #12
 8003100:	46bd      	mov	sp, r7
 8003102:	f85d 7b04 	ldr.w	r7, [sp], #4
 8003106:	4770      	bx	lr

08003108 <HAL_TIMEx_DirectionChangeCallback>:
  * @brief  Direction change callback in non-blocking mode
  * @param  htim TIM handle
  * @retval None
  */
__weak void HAL_TIMEx_DirectionChangeCallback(TIM_HandleTypeDef *htim)
{
 8003108:	b480      	push	{r7}
 800310a:	b083      	sub	sp, #12
 800310c:	af00      	add	r7, sp, #0
 800310e:	6078      	str	r0, [r7, #4]
  UNUSED(htim);

  /* NOTE : This function should not be modified, when the callback is needed,
            the HAL_TIMEx_DirectionChangeCallback could be implemented in the user file
   */
}
 8003110:	bf00      	nop
 8003112:	370c      	adds	r7, #12
 8003114:	46bd      	mov	sp, r7
 8003116:	f85d 7b04 	ldr.w	r7, [sp], #4
 800311a:	4770      	bx	lr

0800311c <HAL_TIMEx_IndexErrorCallback>:
  * @brief  Index error callback in non-blocking mode
  * @param  htim TIM handle
  * @retval None
  */
__weak void HAL_TIMEx_IndexErrorCallback(TIM_HandleTypeDef *htim)
{
 800311c:	b480      	push	{r7}
 800311e:	b083      	sub	sp, #12
 8003120:	af00      	add	r7, sp, #0
 8003122:	6078      	str	r0, [r7, #4]
  UNUSED(htim);

  /* NOTE : This function should not be modified, when the callback is needed,
            the HAL_TIMEx_IndexErrorCallback could be implemented in the user file
   */
}
 8003124:	bf00      	nop
 8003126:	370c      	adds	r7, #12
 8003128:	46bd      	mov	sp, r7
 800312a:	f85d 7b04 	ldr.w	r7, [sp], #4
 800312e:	4770      	bx	lr

08003130 <HAL_TIMEx_TransitionErrorCallback>:
  * @brief  Transition error callback in non-blocking mode
  * @param  htim TIM handle
  * @retval None
  */
__weak void HAL_TIMEx_TransitionErrorCallback(TIM_HandleTypeDef *htim)
{
 8003130:	b480      	push	{r7}
 8003132:	b083      	sub	sp, #12
 8003134:	af00      	add	r7, sp, #0
 8003136:	6078      	str	r0, [r7, #4]
  UNUSED(htim);

  /* NOTE : This function should not be modified, when the callback is needed,
            the HAL_TIMEx_TransitionErrorCallback could be implemented in the user file
   */
}
 8003138:	bf00      	nop
 800313a:	370c      	adds	r7, #12
 800313c:	46bd      	mov	sp, r7
 800313e:	f85d 7b04 	ldr.w	r7, [sp], #4
 8003142:	4770      	bx	lr

08003144 <HAL_UART_Init>:
  *        parameters in the UART_InitTypeDef and initialize the associated handle.
  * @param huart UART handle.
  * @retval HAL status
  */
HAL_StatusTypeDef HAL_UART_Init(UART_HandleTypeDef *huart)
{
 8003144:	b580      	push	{r7, lr}
 8003146:	b082      	sub	sp, #8
 8003148:	af00      	add	r7, sp, #0
 800314a:	6078      	str	r0, [r7, #4]
  /* Check the UART handle allocation */
  if (huart == NULL)
 800314c:	687b      	ldr	r3, [r7, #4]
 800314e:	2b00      	cmp	r3, #0
 8003150:	d101      	bne.n	8003156 <HAL_UART_Init+0x12>
  {
    return HAL_ERROR;
 8003152:	2301      	movs	r3, #1
 8003154:	e042      	b.n	80031dc <HAL_UART_Init+0x98>
  {
    /* Check the parameters */
    assert_param((IS_UART_INSTANCE(huart->Instance)) || (IS_LPUART_INSTANCE(huart->Instance)));
  }

  if (huart->gState == HAL_UART_STATE_RESET)
 8003156:	687b      	ldr	r3, [r7, #4]
 8003158:	f8d3 3088 	ldr.w	r3, [r3, #136]	@ 0x88
 800315c:	2b00      	cmp	r3, #0
 800315e:	d106      	bne.n	800316e <HAL_UART_Init+0x2a>
  {
    /* Allocate lock resource and initialize it */
    huart->Lock = HAL_UNLOCKED;
 8003160:	687b      	ldr	r3, [r7, #4]
 8003162:	2200      	movs	r2, #0
 8003164:	f883 2084 	strb.w	r2, [r3, #132]	@ 0x84

    /* Init the low level hardware */
    huart->MspInitCallback(huart);
#else
    /* Init the low level hardware : GPIO, CLOCK */
    HAL_UART_MspInit(huart);
 8003168:	6878      	ldr	r0, [r7, #4]
 800316a:	f000 f83b 	bl	80031e4 <HAL_UART_MspInit>
#endif /* (USE_HAL_UART_REGISTER_CALLBACKS) */
  }

  huart->gState = HAL_UART_STATE_BUSY;
 800316e:	687b      	ldr	r3, [r7, #4]
 8003170:	2224      	movs	r2, #36	@ 0x24
 8003172:	f8c3 2088 	str.w	r2, [r3, #136]	@ 0x88

  __HAL_UART_DISABLE(huart);
 8003176:	687b      	ldr	r3, [r7, #4]
 8003178:	681b      	ldr	r3, [r3, #0]
 800317a:	681a      	ldr	r2, [r3, #0]
 800317c:	687b      	ldr	r3, [r7, #4]
 800317e:	681b      	ldr	r3, [r3, #0]
 8003180:	f022 0201 	bic.w	r2, r2, #1
 8003184:	601a      	str	r2, [r3, #0]

  /* Perform advanced settings configuration */
  /* For some items, configuration requires to be done prior TE and RE bits are set */
  if (huart->AdvancedInit.AdvFeatureInit != UART_ADVFEATURE_NO_INIT)
 8003186:	687b      	ldr	r3, [r7, #4]
 8003188:	6a9b      	ldr	r3, [r3, #40]	@ 0x28
 800318a:	2b00      	cmp	r3, #0
 800318c:	d002      	beq.n	8003194 <HAL_UART_Init+0x50>
  {
    UART_AdvFeatureConfig(huart);
 800318e:	6878      	ldr	r0, [r7, #4]
 8003190:	f000 fb2e 	bl	80037f0 <UART_AdvFeatureConfig>
  }

  /* Set the UART Communication parameters */
  if (UART_SetConfig(huart) == HAL_ERROR)
 8003194:	6878      	ldr	r0, [r7, #4]
 8003196:	f000 f82f 	bl	80031f8 <UART_SetConfig>
 800319a:	4603      	mov	r3, r0
 800319c:	2b01      	cmp	r3, #1
 800319e:	d101      	bne.n	80031a4 <HAL_UART_Init+0x60>
  {
    return HAL_ERROR;
 80031a0:	2301      	movs	r3, #1
 80031a2:	e01b      	b.n	80031dc <HAL_UART_Init+0x98>
  }

  /* In asynchronous mode, the following bits must be kept cleared:
  - LINEN and CLKEN bits in the USART_CR2 register,
  - SCEN, HDSEL and IREN  bits in the USART_CR3 register.*/
  CLEAR_BIT(huart->Instance->CR2, (USART_CR2_LINEN | USART_CR2_CLKEN));
 80031a4:	687b      	ldr	r3, [r7, #4]
 80031a6:	681b      	ldr	r3, [r3, #0]
 80031a8:	685a      	ldr	r2, [r3, #4]
 80031aa:	687b      	ldr	r3, [r7, #4]
 80031ac:	681b      	ldr	r3, [r3, #0]
 80031ae:	f422 4290 	bic.w	r2, r2, #18432	@ 0x4800
 80031b2:	605a      	str	r2, [r3, #4]
  CLEAR_BIT(huart->Instance->CR3, (USART_CR3_SCEN | USART_CR3_HDSEL | USART_CR3_IREN));
 80031b4:	687b      	ldr	r3, [r7, #4]
 80031b6:	681b      	ldr	r3, [r3, #0]
 80031b8:	689a      	ldr	r2, [r3, #8]
 80031ba:	687b      	ldr	r3, [r7, #4]
 80031bc:	681b      	ldr	r3, [r3, #0]
 80031be:	f022 022a 	bic.w	r2, r2, #42	@ 0x2a
 80031c2:	609a      	str	r2, [r3, #8]

  __HAL_UART_ENABLE(huart);
 80031c4:	687b      	ldr	r3, [r7, #4]
 80031c6:	681b      	ldr	r3, [r3, #0]
 80031c8:	681a      	ldr	r2, [r3, #0]
 80031ca:	687b      	ldr	r3, [r7, #4]
 80031cc:	681b      	ldr	r3, [r3, #0]
 80031ce:	f042 0201 	orr.w	r2, r2, #1
 80031d2:	601a      	str	r2, [r3, #0]

  /* TEACK and/or REACK to check before moving huart->gState and huart->RxState to Ready */
  return (UART_CheckIdleState(huart));
 80031d4:	6878      	ldr	r0, [r7, #4]
 80031d6:	f000 fbad 	bl	8003934 <UART_CheckIdleState>
 80031da:	4603      	mov	r3, r0
}
 80031dc:	4618      	mov	r0, r3
 80031de:	3708      	adds	r7, #8
 80031e0:	46bd      	mov	sp, r7
 80031e2:	bd80      	pop	{r7, pc}

080031e4 <HAL_UART_MspInit>:
  * @brief Initialize the UART MSP.
  * @param huart UART handle.
  * @retval None
  */
__weak void HAL_UART_MspInit(UART_HandleTypeDef *huart)
{
 80031e4:	b480      	push	{r7}
 80031e6:	b083      	sub	sp, #12
 80031e8:	af00      	add	r7, sp, #0
 80031ea:	6078      	str	r0, [r7, #4]
  UNUSED(huart);

  /* NOTE : This function should not be modified, when the callback is needed,
            the HAL_UART_MspInit can be implemented in the user file
   */
}
 80031ec:	bf00      	nop
 80031ee:	370c      	adds	r7, #12
 80031f0:	46bd      	mov	sp, r7
 80031f2:	f85d 7b04 	ldr.w	r7, [sp], #4
 80031f6:	4770      	bx	lr

080031f8 <UART_SetConfig>:
  * @brief Configure the UART peripheral.
  * @param huart UART handle.
  * @retval HAL status
  */
HAL_StatusTypeDef UART_SetConfig(UART_HandleTypeDef *huart)
{
 80031f8:	e92d 4fb0 	stmdb	sp!, {r4, r5, r7, r8, r9, sl, fp, lr}
 80031fc:	b08c      	sub	sp, #48	@ 0x30
 80031fe:	af00      	add	r7, sp, #0
 8003200:	6178      	str	r0, [r7, #20]
  uint32_t tmpreg;
  uint16_t brrtemp;
  UART_ClockSourceTypeDef clocksource;
  uint32_t usartdiv;
  HAL_StatusTypeDef ret               = HAL_OK;
 8003202:	2300      	movs	r3, #0
 8003204:	f887 302a 	strb.w	r3, [r7, #42]	@ 0x2a
  *  the UART Word Length, Parity, Mode and oversampling:
  *  set the M bits according to huart->Init.WordLength value
  *  set PCE and PS bits according to huart->Init.Parity value
  *  set TE and RE bits according to huart->Init.Mode value
  *  set OVER8 bit according to huart->Init.OverSampling value */
  tmpreg = (uint32_t)huart->Init.WordLength | huart->Init.Parity | huart->Init.Mode | huart->Init.OverSampling ;
 8003208:	697b      	ldr	r3, [r7, #20]
 800320a:	689a      	ldr	r2, [r3, #8]
 800320c:	697b      	ldr	r3, [r7, #20]
 800320e:	691b      	ldr	r3, [r3, #16]
 8003210:	431a      	orrs	r2, r3
 8003212:	697b      	ldr	r3, [r7, #20]
 8003214:	695b      	ldr	r3, [r3, #20]
 8003216:	431a      	orrs	r2, r3
 8003218:	697b      	ldr	r3, [r7, #20]
 800321a:	69db      	ldr	r3, [r3, #28]
 800321c:	4313      	orrs	r3, r2
 800321e:	62fb      	str	r3, [r7, #44]	@ 0x2c
  MODIFY_REG(huart->Instance->CR1, USART_CR1_FIELDS, tmpreg);
 8003220:	697b      	ldr	r3, [r7, #20]
 8003222:	681b      	ldr	r3, [r3, #0]
 8003224:	681a      	ldr	r2, [r3, #0]
 8003226:	4baa      	ldr	r3, [pc, #680]	@ (80034d0 <UART_SetConfig+0x2d8>)
 8003228:	4013      	ands	r3, r2
 800322a:	697a      	ldr	r2, [r7, #20]
 800322c:	6812      	ldr	r2, [r2, #0]
 800322e:	6af9      	ldr	r1, [r7, #44]	@ 0x2c
 8003230:	430b      	orrs	r3, r1
 8003232:	6013      	str	r3, [r2, #0]

  /*-------------------------- USART CR2 Configuration -----------------------*/
  /* Configure the UART Stop Bits: Set STOP[13:12] bits according
  * to huart->Init.StopBits value */
  MODIFY_REG(huart->Instance->CR2, USART_CR2_STOP, huart->Init.StopBits);
 8003234:	697b      	ldr	r3, [r7, #20]
 8003236:	681b      	ldr	r3, [r3, #0]
 8003238:	685b      	ldr	r3, [r3, #4]
 800323a:	f423 5140 	bic.w	r1, r3, #12288	@ 0x3000
 800323e:	697b      	ldr	r3, [r7, #20]
 8003240:	68da      	ldr	r2, [r3, #12]
 8003242:	697b      	ldr	r3, [r7, #20]
 8003244:	681b      	ldr	r3, [r3, #0]
 8003246:	430a      	orrs	r2, r1
 8003248:	605a      	str	r2, [r3, #4]
  /* Configure
  * - UART HardWare Flow Control: set CTSE and RTSE bits according
  *   to huart->Init.HwFlowCtl value
  * - one-bit sampling method versus three samples' majority rule according
  *   to huart->Init.OneBitSampling (not applicable to LPUART) */
  tmpreg = (uint32_t)huart->Init.HwFlowCtl;
 800324a:	697b      	ldr	r3, [r7, #20]
 800324c:	699b      	ldr	r3, [r3, #24]
 800324e:	62fb      	str	r3, [r7, #44]	@ 0x2c

  if (!(UART_INSTANCE_LOWPOWER(huart)))
 8003250:	697b      	ldr	r3, [r7, #20]
 8003252:	681b      	ldr	r3, [r3, #0]
 8003254:	4a9f      	ldr	r2, [pc, #636]	@ (80034d4 <UART_SetConfig+0x2dc>)
 8003256:	4293      	cmp	r3, r2
 8003258:	d004      	beq.n	8003264 <UART_SetConfig+0x6c>
  {
    tmpreg |= huart->Init.OneBitSampling;
 800325a:	697b      	ldr	r3, [r7, #20]
 800325c:	6a1b      	ldr	r3, [r3, #32]
 800325e:	6afa      	ldr	r2, [r7, #44]	@ 0x2c
 8003260:	4313      	orrs	r3, r2
 8003262:	62fb      	str	r3, [r7, #44]	@ 0x2c
  }
  MODIFY_REG(huart->Instance->CR3, USART_CR3_FIELDS, tmpreg);
 8003264:	697b      	ldr	r3, [r7, #20]
 8003266:	681b      	ldr	r3, [r3, #0]
 8003268:	689b      	ldr	r3, [r3, #8]
 800326a:	f023 436e 	bic.w	r3, r3, #3992977408	@ 0xee000000
 800326e:	f423 6330 	bic.w	r3, r3, #2816	@ 0xb00
 8003272:	697a      	ldr	r2, [r7, #20]
 8003274:	6812      	ldr	r2, [r2, #0]
 8003276:	6af9      	ldr	r1, [r7, #44]	@ 0x2c
 8003278:	430b      	orrs	r3, r1
 800327a:	6093      	str	r3, [r2, #8]

  /*-------------------------- USART PRESC Configuration -----------------------*/
  /* Configure
  * - UART Clock Prescaler : set PRESCALER according to huart->Init.ClockPrescaler value */
  MODIFY_REG(huart->Instance->PRESC, USART_PRESC_PRESCALER, huart->Init.ClockPrescaler);
 800327c:	697b      	ldr	r3, [r7, #20]
 800327e:	681b      	ldr	r3, [r3, #0]
 8003280:	6adb      	ldr	r3, [r3, #44]	@ 0x2c
 8003282:	f023 010f 	bic.w	r1, r3, #15
 8003286:	697b      	ldr	r3, [r7, #20]
 8003288:	6a5a      	ldr	r2, [r3, #36]	@ 0x24
 800328a:	697b      	ldr	r3, [r7, #20]
 800328c:	681b      	ldr	r3, [r3, #0]
 800328e:	430a      	orrs	r2, r1
 8003290:	62da      	str	r2, [r3, #44]	@ 0x2c

  /*-------------------------- USART BRR Configuration -----------------------*/
  UART_GETCLOCKSOURCE(huart, clocksource);
 8003292:	697b      	ldr	r3, [r7, #20]
 8003294:	681b      	ldr	r3, [r3, #0]
 8003296:	4a90      	ldr	r2, [pc, #576]	@ (80034d8 <UART_SetConfig+0x2e0>)
 8003298:	4293      	cmp	r3, r2
 800329a:	d125      	bne.n	80032e8 <UART_SetConfig+0xf0>
 800329c:	4b8f      	ldr	r3, [pc, #572]	@ (80034dc <UART_SetConfig+0x2e4>)
 800329e:	f8d3 3088 	ldr.w	r3, [r3, #136]	@ 0x88
 80032a2:	f003 0303 	and.w	r3, r3, #3
 80032a6:	2b03      	cmp	r3, #3
 80032a8:	d81a      	bhi.n	80032e0 <UART_SetConfig+0xe8>
 80032aa:	a201      	add	r2, pc, #4	@ (adr r2, 80032b0 <UART_SetConfig+0xb8>)
 80032ac:	f852 f023 	ldr.w	pc, [r2, r3, lsl #2]
 80032b0:	080032c1 	.word	0x080032c1
 80032b4:	080032d1 	.word	0x080032d1
 80032b8:	080032c9 	.word	0x080032c9
 80032bc:	080032d9 	.word	0x080032d9
 80032c0:	2301      	movs	r3, #1
 80032c2:	f887 302b 	strb.w	r3, [r7, #43]	@ 0x2b
 80032c6:	e116      	b.n	80034f6 <UART_SetConfig+0x2fe>
 80032c8:	2302      	movs	r3, #2
 80032ca:	f887 302b 	strb.w	r3, [r7, #43]	@ 0x2b
 80032ce:	e112      	b.n	80034f6 <UART_SetConfig+0x2fe>
 80032d0:	2304      	movs	r3, #4
 80032d2:	f887 302b 	strb.w	r3, [r7, #43]	@ 0x2b
 80032d6:	e10e      	b.n	80034f6 <UART_SetConfig+0x2fe>
 80032d8:	2308      	movs	r3, #8
 80032da:	f887 302b 	strb.w	r3, [r7, #43]	@ 0x2b
 80032de:	e10a      	b.n	80034f6 <UART_SetConfig+0x2fe>
 80032e0:	2310      	movs	r3, #16
 80032e2:	f887 302b 	strb.w	r3, [r7, #43]	@ 0x2b
 80032e6:	e106      	b.n	80034f6 <UART_SetConfig+0x2fe>
 80032e8:	697b      	ldr	r3, [r7, #20]
 80032ea:	681b      	ldr	r3, [r3, #0]
 80032ec:	4a7c      	ldr	r2, [pc, #496]	@ (80034e0 <UART_SetConfig+0x2e8>)
 80032ee:	4293      	cmp	r3, r2
 80032f0:	d138      	bne.n	8003364 <UART_SetConfig+0x16c>
 80032f2:	4b7a      	ldr	r3, [pc, #488]	@ (80034dc <UART_SetConfig+0x2e4>)
 80032f4:	f8d3 3088 	ldr.w	r3, [r3, #136]	@ 0x88
 80032f8:	f003 030c 	and.w	r3, r3, #12
 80032fc:	2b0c      	cmp	r3, #12
 80032fe:	d82d      	bhi.n	800335c <UART_SetConfig+0x164>
 8003300:	a201      	add	r2, pc, #4	@ (adr r2, 8003308 <UART_SetConfig+0x110>)
 8003302:	f852 f023 	ldr.w	pc, [r2, r3, lsl #2]
 8003306:	bf00      	nop
 8003308:	0800333d 	.word	0x0800333d
 800330c:	0800335d 	.word	0x0800335d
 8003310:	0800335d 	.word	0x0800335d
 8003314:	0800335d 	.word	0x0800335d
 8003318:	0800334d 	.word	0x0800334d
 800331c:	0800335d 	.word	0x0800335d
 8003320:	0800335d 	.word	0x0800335d
 8003324:	0800335d 	.word	0x0800335d
 8003328:	08003345 	.word	0x08003345
 800332c:	0800335d 	.word	0x0800335d
 8003330:	0800335d 	.word	0x0800335d
 8003334:	0800335d 	.word	0x0800335d
 8003338:	08003355 	.word	0x08003355
 800333c:	2300      	movs	r3, #0
 800333e:	f887 302b 	strb.w	r3, [r7, #43]	@ 0x2b
 8003342:	e0d8      	b.n	80034f6 <UART_SetConfig+0x2fe>
 8003344:	2302      	movs	r3, #2
 8003346:	f887 302b 	strb.w	r3, [r7, #43]	@ 0x2b
 800334a:	e0d4      	b.n	80034f6 <UART_SetConfig+0x2fe>
 800334c:	2304      	movs	r3, #4
 800334e:	f887 302b 	strb.w	r3, [r7, #43]	@ 0x2b
 8003352:	e0d0      	b.n	80034f6 <UART_SetConfig+0x2fe>
 8003354:	2308      	movs	r3, #8
 8003356:	f887 302b 	strb.w	r3, [r7, #43]	@ 0x2b
 800335a:	e0cc      	b.n	80034f6 <UART_SetConfig+0x2fe>
 800335c:	2310      	movs	r3, #16
 800335e:	f887 302b 	strb.w	r3, [r7, #43]	@ 0x2b
 8003362:	e0c8      	b.n	80034f6 <UART_SetConfig+0x2fe>
 8003364:	697b      	ldr	r3, [r7, #20]
 8003366:	681b      	ldr	r3, [r3, #0]
 8003368:	4a5e      	ldr	r2, [pc, #376]	@ (80034e4 <UART_SetConfig+0x2ec>)
 800336a:	4293      	cmp	r3, r2
 800336c:	d125      	bne.n	80033ba <UART_SetConfig+0x1c2>
 800336e:	4b5b      	ldr	r3, [pc, #364]	@ (80034dc <UART_SetConfig+0x2e4>)
 8003370:	f8d3 3088 	ldr.w	r3, [r3, #136]	@ 0x88
 8003374:	f003 0330 	and.w	r3, r3, #48	@ 0x30
 8003378:	2b30      	cmp	r3, #48	@ 0x30
 800337a:	d016      	beq.n	80033aa <UART_SetConfig+0x1b2>
 800337c:	2b30      	cmp	r3, #48	@ 0x30
 800337e:	d818      	bhi.n	80033b2 <UART_SetConfig+0x1ba>
 8003380:	2b20      	cmp	r3, #32
 8003382:	d00a      	beq.n	800339a <UART_SetConfig+0x1a2>
 8003384:	2b20      	cmp	r3, #32
 8003386:	d814      	bhi.n	80033b2 <UART_SetConfig+0x1ba>
 8003388:	2b00      	cmp	r3, #0
 800338a:	d002      	beq.n	8003392 <UART_SetConfig+0x19a>
 800338c:	2b10      	cmp	r3, #16
 800338e:	d008      	beq.n	80033a2 <UART_SetConfig+0x1aa>
 8003390:	e00f      	b.n	80033b2 <UART_SetConfig+0x1ba>
 8003392:	2300      	movs	r3, #0
 8003394:	f887 302b 	strb.w	r3, [r7, #43]	@ 0x2b
 8003398:	e0ad      	b.n	80034f6 <UART_SetConfig+0x2fe>
 800339a:	2302      	movs	r3, #2
 800339c:	f887 302b 	strb.w	r3, [r7, #43]	@ 0x2b
 80033a0:	e0a9      	b.n	80034f6 <UART_SetConfig+0x2fe>
 80033a2:	2304      	movs	r3, #4
 80033a4:	f887 302b 	strb.w	r3, [r7, #43]	@ 0x2b
 80033a8:	e0a5      	b.n	80034f6 <UART_SetConfig+0x2fe>
 80033aa:	2308      	movs	r3, #8
 80033ac:	f887 302b 	strb.w	r3, [r7, #43]	@ 0x2b
 80033b0:	e0a1      	b.n	80034f6 <UART_SetConfig+0x2fe>
 80033b2:	2310      	movs	r3, #16
 80033b4:	f887 302b 	strb.w	r3, [r7, #43]	@ 0x2b
 80033b8:	e09d      	b.n	80034f6 <UART_SetConfig+0x2fe>
 80033ba:	697b      	ldr	r3, [r7, #20]
 80033bc:	681b      	ldr	r3, [r3, #0]
 80033be:	4a4a      	ldr	r2, [pc, #296]	@ (80034e8 <UART_SetConfig+0x2f0>)
 80033c0:	4293      	cmp	r3, r2
 80033c2:	d125      	bne.n	8003410 <UART_SetConfig+0x218>
 80033c4:	4b45      	ldr	r3, [pc, #276]	@ (80034dc <UART_SetConfig+0x2e4>)
 80033c6:	f8d3 3088 	ldr.w	r3, [r3, #136]	@ 0x88
 80033ca:	f003 03c0 	and.w	r3, r3, #192	@ 0xc0
 80033ce:	2bc0      	cmp	r3, #192	@ 0xc0
 80033d0:	d016      	beq.n	8003400 <UART_SetConfig+0x208>
 80033d2:	2bc0      	cmp	r3, #192	@ 0xc0
 80033d4:	d818      	bhi.n	8003408 <UART_SetConfig+0x210>
 80033d6:	2b80      	cmp	r3, #128	@ 0x80
 80033d8:	d00a      	beq.n	80033f0 <UART_SetConfig+0x1f8>
 80033da:	2b80      	cmp	r3, #128	@ 0x80
 80033dc:	d814      	bhi.n	8003408 <UART_SetConfig+0x210>
 80033de:	2b00      	cmp	r3, #0
 80033e0:	d002      	beq.n	80033e8 <UART_SetConfig+0x1f0>
 80033e2:	2b40      	cmp	r3, #64	@ 0x40
 80033e4:	d008      	beq.n	80033f8 <UART_SetConfig+0x200>
 80033e6:	e00f      	b.n	8003408 <UART_SetConfig+0x210>
 80033e8:	2300      	movs	r3, #0
 80033ea:	f887 302b 	strb.w	r3, [r7, #43]	@ 0x2b
 80033ee:	e082      	b.n	80034f6 <UART_SetConfig+0x2fe>
 80033f0:	2302      	movs	r3, #2
 80033f2:	f887 302b 	strb.w	r3, [r7, #43]	@ 0x2b
 80033f6:	e07e      	b.n	80034f6 <UART_SetConfig+0x2fe>
 80033f8:	2304      	movs	r3, #4
 80033fa:	f887 302b 	strb.w	r3, [r7, #43]	@ 0x2b
 80033fe:	e07a      	b.n	80034f6 <UART_SetConfig+0x2fe>
 8003400:	2308      	movs	r3, #8
 8003402:	f887 302b 	strb.w	r3, [r7, #43]	@ 0x2b
 8003406:	e076      	b.n	80034f6 <UART_SetConfig+0x2fe>
 8003408:	2310      	movs	r3, #16
 800340a:	f887 302b 	strb.w	r3, [r7, #43]	@ 0x2b
 800340e:	e072      	b.n	80034f6 <UART_SetConfig+0x2fe>
 8003410:	697b      	ldr	r3, [r7, #20]
 8003412:	681b      	ldr	r3, [r3, #0]
 8003414:	4a35      	ldr	r2, [pc, #212]	@ (80034ec <UART_SetConfig+0x2f4>)
 8003416:	4293      	cmp	r3, r2
 8003418:	d12a      	bne.n	8003470 <UART_SetConfig+0x278>
 800341a:	4b30      	ldr	r3, [pc, #192]	@ (80034dc <UART_SetConfig+0x2e4>)
 800341c:	f8d3 3088 	ldr.w	r3, [r3, #136]	@ 0x88
 8003420:	f403 7340 	and.w	r3, r3, #768	@ 0x300
 8003424:	f5b3 7f40 	cmp.w	r3, #768	@ 0x300
 8003428:	d01a      	beq.n	8003460 <UART_SetConfig+0x268>
 800342a:	f5b3 7f40 	cmp.w	r3, #768	@ 0x300
 800342e:	d81b      	bhi.n	8003468 <UART_SetConfig+0x270>
 8003430:	f5b3 7f00 	cmp.w	r3, #512	@ 0x200
 8003434:	d00c      	beq.n	8003450 <UART_SetConfig+0x258>
 8003436:	f5b3 7f00 	cmp.w	r3, #512	@ 0x200
 800343a:	d815      	bhi.n	8003468 <UART_SetConfig+0x270>
 800343c:	2b00      	cmp	r3, #0
 800343e:	d003      	beq.n	8003448 <UART_SetConfig+0x250>
 8003440:	f5b3 7f80 	cmp.w	r3, #256	@ 0x100
 8003444:	d008      	beq.n	8003458 <UART_SetConfig+0x260>
 8003446:	e00f      	b.n	8003468 <UART_SetConfig+0x270>
 8003448:	2300      	movs	r3, #0
 800344a:	f887 302b 	strb.w	r3, [r7, #43]	@ 0x2b
 800344e:	e052      	b.n	80034f6 <UART_SetConfig+0x2fe>
 8003450:	2302      	movs	r3, #2
 8003452:	f887 302b 	strb.w	r3, [r7, #43]	@ 0x2b
 8003456:	e04e      	b.n	80034f6 <UART_SetConfig+0x2fe>
 8003458:	2304      	movs	r3, #4
 800345a:	f887 302b 	strb.w	r3, [r7, #43]	@ 0x2b
 800345e:	e04a      	b.n	80034f6 <UART_SetConfig+0x2fe>
 8003460:	2308      	movs	r3, #8
 8003462:	f887 302b 	strb.w	r3, [r7, #43]	@ 0x2b
 8003466:	e046      	b.n	80034f6 <UART_SetConfig+0x2fe>
 8003468:	2310      	movs	r3, #16
 800346a:	f887 302b 	strb.w	r3, [r7, #43]	@ 0x2b
 800346e:	e042      	b.n	80034f6 <UART_SetConfig+0x2fe>
 8003470:	697b      	ldr	r3, [r7, #20]
 8003472:	681b      	ldr	r3, [r3, #0]
 8003474:	4a17      	ldr	r2, [pc, #92]	@ (80034d4 <UART_SetConfig+0x2dc>)
 8003476:	4293      	cmp	r3, r2
 8003478:	d13a      	bne.n	80034f0 <UART_SetConfig+0x2f8>
 800347a:	4b18      	ldr	r3, [pc, #96]	@ (80034dc <UART_SetConfig+0x2e4>)
 800347c:	f8d3 3088 	ldr.w	r3, [r3, #136]	@ 0x88
 8003480:	f403 6340 	and.w	r3, r3, #3072	@ 0xc00
 8003484:	f5b3 6f40 	cmp.w	r3, #3072	@ 0xc00
 8003488:	d01a      	beq.n	80034c0 <UART_SetConfig+0x2c8>
 800348a:	f5b3 6f40 	cmp.w	r3, #3072	@ 0xc00
 800348e:	d81b      	bhi.n	80034c8 <UART_SetConfig+0x2d0>
 8003490:	f5b3 6f00 	cmp.w	r3, #2048	@ 0x800
 8003494:	d00c      	beq.n	80034b0 <UART_SetConfig+0x2b8>
 8003496:	f5b3 6f00 	cmp.w	r3, #2048	@ 0x800
 800349a:	d815      	bhi.n	80034c8 <UART_SetConfig+0x2d0>
 800349c:	2b00      	cmp	r3, #0
 800349e:	d003      	beq.n	80034a8 <UART_SetConfig+0x2b0>
 80034a0:	f5b3 6f80 	cmp.w	r3, #1024	@ 0x400
 80034a4:	d008      	beq.n	80034b8 <UART_SetConfig+0x2c0>
 80034a6:	e00f      	b.n	80034c8 <UART_SetConfig+0x2d0>
 80034a8:	2300      	movs	r3, #0
 80034aa:	f887 302b 	strb.w	r3, [r7, #43]	@ 0x2b
 80034ae:	e022      	b.n	80034f6 <UART_SetConfig+0x2fe>
 80034b0:	2302      	movs	r3, #2
 80034b2:	f887 302b 	strb.w	r3, [r7, #43]	@ 0x2b
 80034b6:	e01e      	b.n	80034f6 <UART_SetConfig+0x2fe>
 80034b8:	2304      	movs	r3, #4
 80034ba:	f887 302b 	strb.w	r3, [r7, #43]	@ 0x2b
 80034be:	e01a      	b.n	80034f6 <UART_SetConfig+0x2fe>
 80034c0:	2308      	movs	r3, #8
 80034c2:	f887 302b 	strb.w	r3, [r7, #43]	@ 0x2b
 80034c6:	e016      	b.n	80034f6 <UART_SetConfig+0x2fe>
 80034c8:	2310      	movs	r3, #16
 80034ca:	f887 302b 	strb.w	r3, [r7, #43]	@ 0x2b
 80034ce:	e012      	b.n	80034f6 <UART_SetConfig+0x2fe>
 80034d0:	cfff69f3 	.word	0xcfff69f3
 80034d4:	40008000 	.word	0x40008000
 80034d8:	40013800 	.word	0x40013800
 80034dc:	40021000 	.word	0x40021000
 80034e0:	40004400 	.word	0x40004400
 80034e4:	40004800 	.word	0x40004800
 80034e8:	40004c00 	.word	0x40004c00
 80034ec:	40005000 	.word	0x40005000
 80034f0:	2310      	movs	r3, #16
 80034f2:	f887 302b 	strb.w	r3, [r7, #43]	@ 0x2b

  /* Check LPUART instance */
  if (UART_INSTANCE_LOWPOWER(huart))
 80034f6:	697b      	ldr	r3, [r7, #20]
 80034f8:	681b      	ldr	r3, [r3, #0]
 80034fa:	4aae      	ldr	r2, [pc, #696]	@ (80037b4 <UART_SetConfig+0x5bc>)
 80034fc:	4293      	cmp	r3, r2
 80034fe:	f040 8097 	bne.w	8003630 <UART_SetConfig+0x438>
  {
    /* Retrieve frequency clock */
    switch (clocksource)
 8003502:	f897 302b 	ldrb.w	r3, [r7, #43]	@ 0x2b
 8003506:	2b08      	cmp	r3, #8
 8003508:	d823      	bhi.n	8003552 <UART_SetConfig+0x35a>
 800350a:	a201      	add	r2, pc, #4	@ (adr r2, 8003510 <UART_SetConfig+0x318>)
 800350c:	f852 f023 	ldr.w	pc, [r2, r3, lsl #2]
 8003510:	08003535 	.word	0x08003535
 8003514:	08003553 	.word	0x08003553
 8003518:	0800353d 	.word	0x0800353d
 800351c:	08003553 	.word	0x08003553
 8003520:	08003543 	.word	0x08003543
 8003524:	08003553 	.word	0x08003553
 8003528:	08003553 	.word	0x08003553
 800352c:	08003553 	.word	0x08003553
 8003530:	0800354b 	.word	0x0800354b
    {
      case UART_CLOCKSOURCE_PCLK1:
        pclk = HAL_RCC_GetPCLK1Freq();
 8003534:	f7ff fa62 	bl	80029fc <HAL_RCC_GetPCLK1Freq>
 8003538:	6278      	str	r0, [r7, #36]	@ 0x24
        break;
 800353a:	e010      	b.n	800355e <UART_SetConfig+0x366>
      case UART_CLOCKSOURCE_HSI:
        pclk = (uint32_t) HSI_VALUE;
 800353c:	4b9e      	ldr	r3, [pc, #632]	@ (80037b8 <UART_SetConfig+0x5c0>)
 800353e:	627b      	str	r3, [r7, #36]	@ 0x24
        break;
 8003540:	e00d      	b.n	800355e <UART_SetConfig+0x366>
      case UART_CLOCKSOURCE_SYSCLK:
        pclk = HAL_RCC_GetSysClockFreq();
 8003542:	f7ff f9ed 	bl	8002920 <HAL_RCC_GetSysClockFreq>
 8003546:	6278      	str	r0, [r7, #36]	@ 0x24
        break;
 8003548:	e009      	b.n	800355e <UART_SetConfig+0x366>
      case UART_CLOCKSOURCE_LSE:
        pclk = (uint32_t) LSE_VALUE;
 800354a:	f44f 4300 	mov.w	r3, #32768	@ 0x8000
 800354e:	627b      	str	r3, [r7, #36]	@ 0x24
        break;
 8003550:	e005      	b.n	800355e <UART_SetConfig+0x366>
      default:
        pclk = 0U;
 8003552:	2300      	movs	r3, #0
 8003554:	627b      	str	r3, [r7, #36]	@ 0x24
        ret = HAL_ERROR;
 8003556:	2301      	movs	r3, #1
 8003558:	f887 302a 	strb.w	r3, [r7, #42]	@ 0x2a
        break;
 800355c:	bf00      	nop
    }

    /* If proper clock source reported */
    if (pclk != 0U)
 800355e:	6a7b      	ldr	r3, [r7, #36]	@ 0x24
 8003560:	2b00      	cmp	r3, #0
 8003562:	f000 8130 	beq.w	80037c6 <UART_SetConfig+0x5ce>
    {
      /* Compute clock after Prescaler */
      lpuart_ker_ck_pres = (pclk / UARTPrescTable[huart->Init.ClockPrescaler]);
 8003566:	697b      	ldr	r3, [r7, #20]
 8003568:	6a5b      	ldr	r3, [r3, #36]	@ 0x24
 800356a:	4a94      	ldr	r2, [pc, #592]	@ (80037bc <UART_SetConfig+0x5c4>)
 800356c:	f832 3013 	ldrh.w	r3, [r2, r3, lsl #1]
 8003570:	461a      	mov	r2, r3
 8003572:	6a7b      	ldr	r3, [r7, #36]	@ 0x24
 8003574:	fbb3 f3f2 	udiv	r3, r3, r2
 8003578:	61bb      	str	r3, [r7, #24]

      /* Ensure that Frequency clock is in the range [3 * baudrate, 4096 * baudrate] */
      if ((lpuart_ker_ck_pres < (3U * huart->Init.BaudRate)) ||
 800357a:	697b      	ldr	r3, [r7, #20]
 800357c:	685a      	ldr	r2, [r3, #4]
 800357e:	4613      	mov	r3, r2
 8003580:	005b      	lsls	r3, r3, #1
 8003582:	4413      	add	r3, r2
 8003584:	69ba      	ldr	r2, [r7, #24]
 8003586:	429a      	cmp	r2, r3
 8003588:	d305      	bcc.n	8003596 <UART_SetConfig+0x39e>
          (lpuart_ker_ck_pres > (4096U * huart->Init.BaudRate)))
 800358a:	697b      	ldr	r3, [r7, #20]
 800358c:	685b      	ldr	r3, [r3, #4]
 800358e:	031b      	lsls	r3, r3, #12
      if ((lpuart_ker_ck_pres < (3U * huart->Init.BaudRate)) ||
 8003590:	69ba      	ldr	r2, [r7, #24]
 8003592:	429a      	cmp	r2, r3
 8003594:	d903      	bls.n	800359e <UART_SetConfig+0x3a6>
      {
        ret = HAL_ERROR;
 8003596:	2301      	movs	r3, #1
 8003598:	f887 302a 	strb.w	r3, [r7, #42]	@ 0x2a
 800359c:	e113      	b.n	80037c6 <UART_SetConfig+0x5ce>
      }
      else
      {
        /* Check computed UsartDiv value is in allocated range
           (it is forbidden to write values lower than 0x300 in the LPUART_BRR register) */
        usartdiv = (uint32_t)(UART_DIV_LPUART(pclk, huart->Init.BaudRate, huart->Init.ClockPrescaler));
 800359e:	6a7b      	ldr	r3, [r7, #36]	@ 0x24
 80035a0:	2200      	movs	r2, #0
 80035a2:	60bb      	str	r3, [r7, #8]
 80035a4:	60fa      	str	r2, [r7, #12]
 80035a6:	697b      	ldr	r3, [r7, #20]
 80035a8:	6a5b      	ldr	r3, [r3, #36]	@ 0x24
 80035aa:	4a84      	ldr	r2, [pc, #528]	@ (80037bc <UART_SetConfig+0x5c4>)
 80035ac:	f832 3013 	ldrh.w	r3, [r2, r3, lsl #1]
 80035b0:	b29b      	uxth	r3, r3
 80035b2:	2200      	movs	r2, #0
 80035b4:	603b      	str	r3, [r7, #0]
 80035b6:	607a      	str	r2, [r7, #4]
 80035b8:	e9d7 2300 	ldrd	r2, r3, [r7]
 80035bc:	e9d7 0102 	ldrd	r0, r1, [r7, #8]
 80035c0:	f7fc fe2e 	bl	8000220 <__aeabi_uldivmod>
 80035c4:	4602      	mov	r2, r0
 80035c6:	460b      	mov	r3, r1
 80035c8:	4610      	mov	r0, r2
 80035ca:	4619      	mov	r1, r3
 80035cc:	f04f 0200 	mov.w	r2, #0
 80035d0:	f04f 0300 	mov.w	r3, #0
 80035d4:	020b      	lsls	r3, r1, #8
 80035d6:	ea43 6310 	orr.w	r3, r3, r0, lsr #24
 80035da:	0202      	lsls	r2, r0, #8
 80035dc:	6979      	ldr	r1, [r7, #20]
 80035de:	6849      	ldr	r1, [r1, #4]
 80035e0:	0849      	lsrs	r1, r1, #1
 80035e2:	2000      	movs	r0, #0
 80035e4:	460c      	mov	r4, r1
 80035e6:	4605      	mov	r5, r0
 80035e8:	eb12 0804 	adds.w	r8, r2, r4
 80035ec:	eb43 0905 	adc.w	r9, r3, r5
 80035f0:	697b      	ldr	r3, [r7, #20]
 80035f2:	685b      	ldr	r3, [r3, #4]
 80035f4:	2200      	movs	r2, #0
 80035f6:	469a      	mov	sl, r3
 80035f8:	4693      	mov	fp, r2
 80035fa:	4652      	mov	r2, sl
 80035fc:	465b      	mov	r3, fp
 80035fe:	4640      	mov	r0, r8
 8003600:	4649      	mov	r1, r9
 8003602:	f7fc fe0d 	bl	8000220 <__aeabi_uldivmod>
 8003606:	4602      	mov	r2, r0
 8003608:	460b      	mov	r3, r1
 800360a:	4613      	mov	r3, r2
 800360c:	623b      	str	r3, [r7, #32]
        if ((usartdiv >= LPUART_BRR_MIN) && (usartdiv <= LPUART_BRR_MAX))
 800360e:	6a3b      	ldr	r3, [r7, #32]
 8003610:	f5b3 7f40 	cmp.w	r3, #768	@ 0x300
 8003614:	d308      	bcc.n	8003628 <UART_SetConfig+0x430>
 8003616:	6a3b      	ldr	r3, [r7, #32]
 8003618:	f5b3 1f80 	cmp.w	r3, #1048576	@ 0x100000
 800361c:	d204      	bcs.n	8003628 <UART_SetConfig+0x430>
        {
          huart->Instance->BRR = usartdiv;
 800361e:	697b      	ldr	r3, [r7, #20]
 8003620:	681b      	ldr	r3, [r3, #0]
 8003622:	6a3a      	ldr	r2, [r7, #32]
 8003624:	60da      	str	r2, [r3, #12]
 8003626:	e0ce      	b.n	80037c6 <UART_SetConfig+0x5ce>
        }
        else
        {
          ret = HAL_ERROR;
 8003628:	2301      	movs	r3, #1
 800362a:	f887 302a 	strb.w	r3, [r7, #42]	@ 0x2a
 800362e:	e0ca      	b.n	80037c6 <UART_SetConfig+0x5ce>
      } /* if ( (lpuart_ker_ck_pres < (3 * huart->Init.BaudRate) ) ||
                (lpuart_ker_ck_pres > (4096 * huart->Init.BaudRate) )) */
    } /* if (pclk != 0) */
  }
  /* Check UART Over Sampling to set Baud Rate Register */
  else if (huart->Init.OverSampling == UART_OVERSAMPLING_8)
 8003630:	697b      	ldr	r3, [r7, #20]
 8003632:	69db      	ldr	r3, [r3, #28]
 8003634:	f5b3 4f00 	cmp.w	r3, #32768	@ 0x8000
 8003638:	d166      	bne.n	8003708 <UART_SetConfig+0x510>
  {
    switch (clocksource)
 800363a:	f897 302b 	ldrb.w	r3, [r7, #43]	@ 0x2b
 800363e:	2b08      	cmp	r3, #8
 8003640:	d827      	bhi.n	8003692 <UART_SetConfig+0x49a>
 8003642:	a201      	add	r2, pc, #4	@ (adr r2, 8003648 <UART_SetConfig+0x450>)
 8003644:	f852 f023 	ldr.w	pc, [r2, r3, lsl #2]
 8003648:	0800366d 	.word	0x0800366d
 800364c:	08003675 	.word	0x08003675
 8003650:	0800367d 	.word	0x0800367d
 8003654:	08003693 	.word	0x08003693
 8003658:	08003683 	.word	0x08003683
 800365c:	08003693 	.word	0x08003693
 8003660:	08003693 	.word	0x08003693
 8003664:	08003693 	.word	0x08003693
 8003668:	0800368b 	.word	0x0800368b
    {
      case UART_CLOCKSOURCE_PCLK1:
        pclk = HAL_RCC_GetPCLK1Freq();
 800366c:	f7ff f9c6 	bl	80029fc <HAL_RCC_GetPCLK1Freq>
 8003670:	6278      	str	r0, [r7, #36]	@ 0x24
        break;
 8003672:	e014      	b.n	800369e <UART_SetConfig+0x4a6>
      case UART_CLOCKSOURCE_PCLK2:
        pclk = HAL_RCC_GetPCLK2Freq();
 8003674:	f7ff f9d8 	bl	8002a28 <HAL_RCC_GetPCLK2Freq>
 8003678:	6278      	str	r0, [r7, #36]	@ 0x24
        break;
 800367a:	e010      	b.n	800369e <UART_SetConfig+0x4a6>
      case UART_CLOCKSOURCE_HSI:
        pclk = (uint32_t) HSI_VALUE;
 800367c:	4b4e      	ldr	r3, [pc, #312]	@ (80037b8 <UART_SetConfig+0x5c0>)
 800367e:	627b      	str	r3, [r7, #36]	@ 0x24
        break;
 8003680:	e00d      	b.n	800369e <UART_SetConfig+0x4a6>
      case UART_CLOCKSOURCE_SYSCLK:
        pclk = HAL_RCC_GetSysClockFreq();
 8003682:	f7ff f94d 	bl	8002920 <HAL_RCC_GetSysClockFreq>
 8003686:	6278      	str	r0, [r7, #36]	@ 0x24
        break;
 8003688:	e009      	b.n	800369e <UART_SetConfig+0x4a6>
      case UART_CLOCKSOURCE_LSE:
        pclk = (uint32_t) LSE_VALUE;
 800368a:	f44f 4300 	mov.w	r3, #32768	@ 0x8000
 800368e:	627b      	str	r3, [r7, #36]	@ 0x24
        break;
 8003690:	e005      	b.n	800369e <UART_SetConfig+0x4a6>
      default:
        pclk = 0U;
 8003692:	2300      	movs	r3, #0
 8003694:	627b      	str	r3, [r7, #36]	@ 0x24
        ret = HAL_ERROR;
 8003696:	2301      	movs	r3, #1
 8003698:	f887 302a 	strb.w	r3, [r7, #42]	@ 0x2a
        break;
 800369c:	bf00      	nop
    }

    /* USARTDIV must be greater than or equal to 0d16 */
    if (pclk != 0U)
 800369e:	6a7b      	ldr	r3, [r7, #36]	@ 0x24
 80036a0:	2b00      	cmp	r3, #0
 80036a2:	f000 8090 	beq.w	80037c6 <UART_SetConfig+0x5ce>
    {
      usartdiv = (uint32_t)(UART_DIV_SAMPLING8(pclk, huart->Init.BaudRate, huart->Init.ClockPrescaler));
 80036a6:	697b      	ldr	r3, [r7, #20]
 80036a8:	6a5b      	ldr	r3, [r3, #36]	@ 0x24
 80036aa:	4a44      	ldr	r2, [pc, #272]	@ (80037bc <UART_SetConfig+0x5c4>)
 80036ac:	f832 3013 	ldrh.w	r3, [r2, r3, lsl #1]
 80036b0:	461a      	mov	r2, r3
 80036b2:	6a7b      	ldr	r3, [r7, #36]	@ 0x24
 80036b4:	fbb3 f3f2 	udiv	r3, r3, r2
 80036b8:	005a      	lsls	r2, r3, #1
 80036ba:	697b      	ldr	r3, [r7, #20]
 80036bc:	685b      	ldr	r3, [r3, #4]
 80036be:	085b      	lsrs	r3, r3, #1
 80036c0:	441a      	add	r2, r3
 80036c2:	697b      	ldr	r3, [r7, #20]
 80036c4:	685b      	ldr	r3, [r3, #4]
 80036c6:	fbb2 f3f3 	udiv	r3, r2, r3
 80036ca:	623b      	str	r3, [r7, #32]
      if ((usartdiv >= UART_BRR_MIN) && (usartdiv <= UART_BRR_MAX))
 80036cc:	6a3b      	ldr	r3, [r7, #32]
 80036ce:	2b0f      	cmp	r3, #15
 80036d0:	d916      	bls.n	8003700 <UART_SetConfig+0x508>
 80036d2:	6a3b      	ldr	r3, [r7, #32]
 80036d4:	f5b3 3f80 	cmp.w	r3, #65536	@ 0x10000
 80036d8:	d212      	bcs.n	8003700 <UART_SetConfig+0x508>
      {
        brrtemp = (uint16_t)(usartdiv & 0xFFF0U);
 80036da:	6a3b      	ldr	r3, [r7, #32]
 80036dc:	b29b      	uxth	r3, r3
 80036de:	f023 030f 	bic.w	r3, r3, #15
 80036e2:	83fb      	strh	r3, [r7, #30]
        brrtemp |= (uint16_t)((usartdiv & (uint16_t)0x000FU) >> 1U);
 80036e4:	6a3b      	ldr	r3, [r7, #32]
 80036e6:	085b      	lsrs	r3, r3, #1
 80036e8:	b29b      	uxth	r3, r3
 80036ea:	f003 0307 	and.w	r3, r3, #7
 80036ee:	b29a      	uxth	r2, r3
 80036f0:	8bfb      	ldrh	r3, [r7, #30]
 80036f2:	4313      	orrs	r3, r2
 80036f4:	83fb      	strh	r3, [r7, #30]
        huart->Instance->BRR = brrtemp;
 80036f6:	697b      	ldr	r3, [r7, #20]
 80036f8:	681b      	ldr	r3, [r3, #0]
 80036fa:	8bfa      	ldrh	r2, [r7, #30]
 80036fc:	60da      	str	r2, [r3, #12]
 80036fe:	e062      	b.n	80037c6 <UART_SetConfig+0x5ce>
      }
      else
      {
        ret = HAL_ERROR;
 8003700:	2301      	movs	r3, #1
 8003702:	f887 302a 	strb.w	r3, [r7, #42]	@ 0x2a
 8003706:	e05e      	b.n	80037c6 <UART_SetConfig+0x5ce>
      }
    }
  }
  else
  {
    switch (clocksource)
 8003708:	f897 302b 	ldrb.w	r3, [r7, #43]	@ 0x2b
 800370c:	2b08      	cmp	r3, #8
 800370e:	d828      	bhi.n	8003762 <UART_SetConfig+0x56a>
 8003710:	a201      	add	r2, pc, #4	@ (adr r2, 8003718 <UART_SetConfig+0x520>)
 8003712:	f852 f023 	ldr.w	pc, [r2, r3, lsl #2]
 8003716:	bf00      	nop
 8003718:	0800373d 	.word	0x0800373d
 800371c:	08003745 	.word	0x08003745
 8003720:	0800374d 	.word	0x0800374d
 8003724:	08003763 	.word	0x08003763
 8003728:	08003753 	.word	0x08003753
 800372c:	08003763 	.word	0x08003763
 8003730:	08003763 	.word	0x08003763
 8003734:	08003763 	.word	0x08003763
 8003738:	0800375b 	.word	0x0800375b
    {
      case UART_CLOCKSOURCE_PCLK1:
        pclk = HAL_RCC_GetPCLK1Freq();
 800373c:	f7ff f95e 	bl	80029fc <HAL_RCC_GetPCLK1Freq>
 8003740:	6278      	str	r0, [r7, #36]	@ 0x24
        break;
 8003742:	e014      	b.n	800376e <UART_SetConfig+0x576>
      case UART_CLOCKSOURCE_PCLK2:
        pclk = HAL_RCC_GetPCLK2Freq();
 8003744:	f7ff f970 	bl	8002a28 <HAL_RCC_GetPCLK2Freq>
 8003748:	6278      	str	r0, [r7, #36]	@ 0x24
        break;
 800374a:	e010      	b.n	800376e <UART_SetConfig+0x576>
      case UART_CLOCKSOURCE_HSI:
        pclk = (uint32_t) HSI_VALUE;
 800374c:	4b1a      	ldr	r3, [pc, #104]	@ (80037b8 <UART_SetConfig+0x5c0>)
 800374e:	627b      	str	r3, [r7, #36]	@ 0x24
        break;
 8003750:	e00d      	b.n	800376e <UART_SetConfig+0x576>
      case UART_CLOCKSOURCE_SYSCLK:
        pclk = HAL_RCC_GetSysClockFreq();
 8003752:	f7ff f8e5 	bl	8002920 <HAL_RCC_GetSysClockFreq>
 8003756:	6278      	str	r0, [r7, #36]	@ 0x24
        break;
 8003758:	e009      	b.n	800376e <UART_SetConfig+0x576>
      case UART_CLOCKSOURCE_LSE:
        pclk = (uint32_t) LSE_VALUE;
 800375a:	f44f 4300 	mov.w	r3, #32768	@ 0x8000
 800375e:	627b      	str	r3, [r7, #36]	@ 0x24
        break;
 8003760:	e005      	b.n	800376e <UART_SetConfig+0x576>
      default:
        pclk = 0U;
 8003762:	2300      	movs	r3, #0
 8003764:	627b      	str	r3, [r7, #36]	@ 0x24
        ret = HAL_ERROR;
 8003766:	2301      	movs	r3, #1
 8003768:	f887 302a 	strb.w	r3, [r7, #42]	@ 0x2a
        break;
 800376c:	bf00      	nop
    }

    if (pclk != 0U)
 800376e:	6a7b      	ldr	r3, [r7, #36]	@ 0x24
 8003770:	2b00      	cmp	r3, #0
 8003772:	d028      	beq.n	80037c6 <UART_SetConfig+0x5ce>
    {
      /* USARTDIV must be greater than or equal to 0d16 */
      usartdiv = (uint32_t)(UART_DIV_SAMPLING16(pclk, huart->Init.BaudRate, huart->Init.ClockPrescaler));
 8003774:	697b      	ldr	r3, [r7, #20]
 8003776:	6a5b      	ldr	r3, [r3, #36]	@ 0x24
 8003778:	4a10      	ldr	r2, [pc, #64]	@ (80037bc <UART_SetConfig+0x5c4>)
 800377a:	f832 3013 	ldrh.w	r3, [r2, r3, lsl #1]
 800377e:	461a      	mov	r2, r3
 8003780:	6a7b      	ldr	r3, [r7, #36]	@ 0x24
 8003782:	fbb3 f2f2 	udiv	r2, r3, r2
 8003786:	697b      	ldr	r3, [r7, #20]
 8003788:	685b      	ldr	r3, [r3, #4]
 800378a:	085b      	lsrs	r3, r3, #1
 800378c:	441a      	add	r2, r3
 800378e:	697b      	ldr	r3, [r7, #20]
 8003790:	685b      	ldr	r3, [r3, #4]
 8003792:	fbb2 f3f3 	udiv	r3, r2, r3
 8003796:	623b      	str	r3, [r7, #32]
      if ((usartdiv >= UART_BRR_MIN) && (usartdiv <= UART_BRR_MAX))
 8003798:	6a3b      	ldr	r3, [r7, #32]
 800379a:	2b0f      	cmp	r3, #15
 800379c:	d910      	bls.n	80037c0 <UART_SetConfig+0x5c8>
 800379e:	6a3b      	ldr	r3, [r7, #32]
 80037a0:	f5b3 3f80 	cmp.w	r3, #65536	@ 0x10000
 80037a4:	d20c      	bcs.n	80037c0 <UART_SetConfig+0x5c8>
      {
        huart->Instance->BRR = (uint16_t)usartdiv;
 80037a6:	6a3b      	ldr	r3, [r7, #32]
 80037a8:	b29a      	uxth	r2, r3
 80037aa:	697b      	ldr	r3, [r7, #20]
 80037ac:	681b      	ldr	r3, [r3, #0]
 80037ae:	60da      	str	r2, [r3, #12]
 80037b0:	e009      	b.n	80037c6 <UART_SetConfig+0x5ce>
 80037b2:	bf00      	nop
 80037b4:	40008000 	.word	0x40008000
 80037b8:	00f42400 	.word	0x00f42400
 80037bc:	080072a4 	.word	0x080072a4
      }
      else
      {
        ret = HAL_ERROR;
 80037c0:	2301      	movs	r3, #1
 80037c2:	f887 302a 	strb.w	r3, [r7, #42]	@ 0x2a
      }
    }
  }

  /* Initialize the number of data to process during RX/TX ISR execution */
  huart->NbTxDataToProcess = 1;
 80037c6:	697b      	ldr	r3, [r7, #20]
 80037c8:	2201      	movs	r2, #1
 80037ca:	f8a3 206a 	strh.w	r2, [r3, #106]	@ 0x6a
  huart->NbRxDataToProcess = 1;
 80037ce:	697b      	ldr	r3, [r7, #20]
 80037d0:	2201      	movs	r2, #1
 80037d2:	f8a3 2068 	strh.w	r2, [r3, #104]	@ 0x68

  /* Clear ISR function pointers */
  huart->RxISR = NULL;
 80037d6:	697b      	ldr	r3, [r7, #20]
 80037d8:	2200      	movs	r2, #0
 80037da:	675a      	str	r2, [r3, #116]	@ 0x74
  huart->TxISR = NULL;
 80037dc:	697b      	ldr	r3, [r7, #20]
 80037de:	2200      	movs	r2, #0
 80037e0:	679a      	str	r2, [r3, #120]	@ 0x78

  return ret;
 80037e2:	f897 302a 	ldrb.w	r3, [r7, #42]	@ 0x2a
}
 80037e6:	4618      	mov	r0, r3
 80037e8:	3730      	adds	r7, #48	@ 0x30
 80037ea:	46bd      	mov	sp, r7
 80037ec:	e8bd 8fb0 	ldmia.w	sp!, {r4, r5, r7, r8, r9, sl, fp, pc}

080037f0 <UART_AdvFeatureConfig>:
  * @brief Configure the UART peripheral advanced features.
  * @param huart UART handle.
  * @retval None
  */
void UART_AdvFeatureConfig(UART_HandleTypeDef *huart)
{
 80037f0:	b480      	push	{r7}
 80037f2:	b083      	sub	sp, #12
 80037f4:	af00      	add	r7, sp, #0
 80037f6:	6078      	str	r0, [r7, #4]
  /* Check whether the set of advanced features to configure is properly set */
  assert_param(IS_UART_ADVFEATURE_INIT(huart->AdvancedInit.AdvFeatureInit));

  /* if required, configure RX/TX pins swap */
  if (HAL_IS_BIT_SET(huart->AdvancedInit.AdvFeatureInit, UART_ADVFEATURE_SWAP_INIT))
 80037f8:	687b      	ldr	r3, [r7, #4]
 80037fa:	6a9b      	ldr	r3, [r3, #40]	@ 0x28
 80037fc:	f003 0308 	and.w	r3, r3, #8
 8003800:	2b00      	cmp	r3, #0
 8003802:	d00a      	beq.n	800381a <UART_AdvFeatureConfig+0x2a>
  {
    assert_param(IS_UART_ADVFEATURE_SWAP(huart->AdvancedInit.Swap));
    MODIFY_REG(huart->Instance->CR2, USART_CR2_SWAP, huart->AdvancedInit.Swap);
 8003804:	687b      	ldr	r3, [r7, #4]
 8003806:	681b      	ldr	r3, [r3, #0]
 8003808:	685b      	ldr	r3, [r3, #4]
 800380a:	f423 4100 	bic.w	r1, r3, #32768	@ 0x8000
 800380e:	687b      	ldr	r3, [r7, #4]
 8003810:	6b9a      	ldr	r2, [r3, #56]	@ 0x38
 8003812:	687b      	ldr	r3, [r7, #4]
 8003814:	681b      	ldr	r3, [r3, #0]
 8003816:	430a      	orrs	r2, r1
 8003818:	605a      	str	r2, [r3, #4]
  }

  /* if required, configure TX pin active level inversion */
  if (HAL_IS_BIT_SET(huart->AdvancedInit.AdvFeatureInit, UART_ADVFEATURE_TXINVERT_INIT))
 800381a:	687b      	ldr	r3, [r7, #4]
 800381c:	6a9b      	ldr	r3, [r3, #40]	@ 0x28
 800381e:	f003 0301 	and.w	r3, r3, #1
 8003822:	2b00      	cmp	r3, #0
 8003824:	d00a      	beq.n	800383c <UART_AdvFeatureConfig+0x4c>
  {
    assert_param(IS_UART_ADVFEATURE_TXINV(huart->AdvancedInit.TxPinLevelInvert));
    MODIFY_REG(huart->Instance->CR2, USART_CR2_TXINV, huart->AdvancedInit.TxPinLevelInvert);
 8003826:	687b      	ldr	r3, [r7, #4]
 8003828:	681b      	ldr	r3, [r3, #0]
 800382a:	685b      	ldr	r3, [r3, #4]
 800382c:	f423 3100 	bic.w	r1, r3, #131072	@ 0x20000
 8003830:	687b      	ldr	r3, [r7, #4]
 8003832:	6ada      	ldr	r2, [r3, #44]	@ 0x2c
 8003834:	687b      	ldr	r3, [r7, #4]
 8003836:	681b      	ldr	r3, [r3, #0]
 8003838:	430a      	orrs	r2, r1
 800383a:	605a      	str	r2, [r3, #4]
  }

  /* if required, configure RX pin active level inversion */
  if (HAL_IS_BIT_SET(huart->AdvancedInit.AdvFeatureInit, UART_ADVFEATURE_RXINVERT_INIT))
 800383c:	687b      	ldr	r3, [r7, #4]
 800383e:	6a9b      	ldr	r3, [r3, #40]	@ 0x28
 8003840:	f003 0302 	and.w	r3, r3, #2
 8003844:	2b00      	cmp	r3, #0
 8003846:	d00a      	beq.n	800385e <UART_AdvFeatureConfig+0x6e>
  {
    assert_param(IS_UART_ADVFEATURE_RXINV(huart->AdvancedInit.RxPinLevelInvert));
    MODIFY_REG(huart->Instance->CR2, USART_CR2_RXINV, huart->AdvancedInit.RxPinLevelInvert);
 8003848:	687b      	ldr	r3, [r7, #4]
 800384a:	681b      	ldr	r3, [r3, #0]
 800384c:	685b      	ldr	r3, [r3, #4]
 800384e:	f423 3180 	bic.w	r1, r3, #65536	@ 0x10000
 8003852:	687b      	ldr	r3, [r7, #4]
 8003854:	6b1a      	ldr	r2, [r3, #48]	@ 0x30
 8003856:	687b      	ldr	r3, [r7, #4]
 8003858:	681b      	ldr	r3, [r3, #0]
 800385a:	430a      	orrs	r2, r1
 800385c:	605a      	str	r2, [r3, #4]
  }

  /* if required, configure data inversion */
  if (HAL_IS_BIT_SET(huart->AdvancedInit.AdvFeatureInit, UART_ADVFEATURE_DATAINVERT_INIT))
 800385e:	687b      	ldr	r3, [r7, #4]
 8003860:	6a9b      	ldr	r3, [r3, #40]	@ 0x28
 8003862:	f003 0304 	and.w	r3, r3, #4
 8003866:	2b00      	cmp	r3, #0
 8003868:	d00a      	beq.n	8003880 <UART_AdvFeatureConfig+0x90>
  {
    assert_param(IS_UART_ADVFEATURE_DATAINV(huart->AdvancedInit.DataInvert));
    MODIFY_REG(huart->Instance->CR2, USART_CR2_DATAINV, huart->AdvancedInit.DataInvert);
 800386a:	687b      	ldr	r3, [r7, #4]
 800386c:	681b      	ldr	r3, [r3, #0]
 800386e:	685b      	ldr	r3, [r3, #4]
 8003870:	f423 2180 	bic.w	r1, r3, #262144	@ 0x40000
 8003874:	687b      	ldr	r3, [r7, #4]
 8003876:	6b5a      	ldr	r2, [r3, #52]	@ 0x34
 8003878:	687b      	ldr	r3, [r7, #4]
 800387a:	681b      	ldr	r3, [r3, #0]
 800387c:	430a      	orrs	r2, r1
 800387e:	605a      	str	r2, [r3, #4]
  }

  /* if required, configure RX overrun detection disabling */
  if (HAL_IS_BIT_SET(huart->AdvancedInit.AdvFeatureInit, UART_ADVFEATURE_RXOVERRUNDISABLE_INIT))
 8003880:	687b      	ldr	r3, [r7, #4]
 8003882:	6a9b      	ldr	r3, [r3, #40]	@ 0x28
 8003884:	f003 0310 	and.w	r3, r3, #16
 8003888:	2b00      	cmp	r3, #0
 800388a:	d00a      	beq.n	80038a2 <UART_AdvFeatureConfig+0xb2>
  {
    assert_param(IS_UART_OVERRUN(huart->AdvancedInit.OverrunDisable));
    MODIFY_REG(huart->Instance->CR3, USART_CR3_OVRDIS, huart->AdvancedInit.OverrunDisable);
 800388c:	687b      	ldr	r3, [r7, #4]
 800388e:	681b      	ldr	r3, [r3, #0]
 8003890:	689b      	ldr	r3, [r3, #8]
 8003892:	f423 5180 	bic.w	r1, r3, #4096	@ 0x1000
 8003896:	687b      	ldr	r3, [r7, #4]
 8003898:	6bda      	ldr	r2, [r3, #60]	@ 0x3c
 800389a:	687b      	ldr	r3, [r7, #4]
 800389c:	681b      	ldr	r3, [r3, #0]
 800389e:	430a      	orrs	r2, r1
 80038a0:	609a      	str	r2, [r3, #8]
  }

  /* if required, configure DMA disabling on reception error */
  if (HAL_IS_BIT_SET(huart->AdvancedInit.AdvFeatureInit, UART_ADVFEATURE_DMADISABLEONERROR_INIT))
 80038a2:	687b      	ldr	r3, [r7, #4]
 80038a4:	6a9b      	ldr	r3, [r3, #40]	@ 0x28
 80038a6:	f003 0320 	and.w	r3, r3, #32
 80038aa:	2b00      	cmp	r3, #0
 80038ac:	d00a      	beq.n	80038c4 <UART_AdvFeatureConfig+0xd4>
  {
    assert_param(IS_UART_ADVFEATURE_DMAONRXERROR(huart->AdvancedInit.DMADisableonRxError));
    MODIFY_REG(huart->Instance->CR3, USART_CR3_DDRE, huart->AdvancedInit.DMADisableonRxError);
 80038ae:	687b      	ldr	r3, [r7, #4]
 80038b0:	681b      	ldr	r3, [r3, #0]
 80038b2:	689b      	ldr	r3, [r3, #8]
 80038b4:	f423 5100 	bic.w	r1, r3, #8192	@ 0x2000
 80038b8:	687b      	ldr	r3, [r7, #4]
 80038ba:	6c1a      	ldr	r2, [r3, #64]	@ 0x40
 80038bc:	687b      	ldr	r3, [r7, #4]
 80038be:	681b      	ldr	r3, [r3, #0]
 80038c0:	430a      	orrs	r2, r1
 80038c2:	609a      	str	r2, [r3, #8]
  }

  /* if required, configure auto Baud rate detection scheme */
  if (HAL_IS_BIT_SET(huart->AdvancedInit.AdvFeatureInit, UART_ADVFEATURE_AUTOBAUDRATE_INIT))
 80038c4:	687b      	ldr	r3, [r7, #4]
 80038c6:	6a9b      	ldr	r3, [r3, #40]	@ 0x28
 80038c8:	f003 0340 	and.w	r3, r3, #64	@ 0x40
 80038cc:	2b00      	cmp	r3, #0
 80038ce:	d01a      	beq.n	8003906 <UART_AdvFeatureConfig+0x116>
  {
    assert_param(IS_USART_AUTOBAUDRATE_DETECTION_INSTANCE(huart->Instance));
    assert_param(IS_UART_ADVFEATURE_AUTOBAUDRATE(huart->AdvancedInit.AutoBaudRateEnable));
    MODIFY_REG(huart->Instance->CR2, USART_CR2_ABREN, huart->AdvancedInit.AutoBaudRateEnable);
 80038d0:	687b      	ldr	r3, [r7, #4]
 80038d2:	681b      	ldr	r3, [r3, #0]
 80038d4:	685b      	ldr	r3, [r3, #4]
 80038d6:	f423 1180 	bic.w	r1, r3, #1048576	@ 0x100000
 80038da:	687b      	ldr	r3, [r7, #4]
 80038dc:	6c5a      	ldr	r2, [r3, #68]	@ 0x44
 80038de:	687b      	ldr	r3, [r7, #4]
 80038e0:	681b      	ldr	r3, [r3, #0]
 80038e2:	430a      	orrs	r2, r1
 80038e4:	605a      	str	r2, [r3, #4]
    /* set auto Baudrate detection parameters if detection is enabled */
    if (huart->AdvancedInit.AutoBaudRateEnable == UART_ADVFEATURE_AUTOBAUDRATE_ENABLE)
 80038e6:	687b      	ldr	r3, [r7, #4]
 80038e8:	6c5b      	ldr	r3, [r3, #68]	@ 0x44
 80038ea:	f5b3 1f80 	cmp.w	r3, #1048576	@ 0x100000
 80038ee:	d10a      	bne.n	8003906 <UART_AdvFeatureConfig+0x116>
    {
      assert_param(IS_UART_ADVFEATURE_AUTOBAUDRATEMODE(huart->AdvancedInit.AutoBaudRateMode));
      MODIFY_REG(huart->Instance->CR2, USART_CR2_ABRMODE, huart->AdvancedInit.AutoBaudRateMode);
 80038f0:	687b      	ldr	r3, [r7, #4]
 80038f2:	681b      	ldr	r3, [r3, #0]
 80038f4:	685b      	ldr	r3, [r3, #4]
 80038f6:	f423 01c0 	bic.w	r1, r3, #6291456	@ 0x600000
 80038fa:	687b      	ldr	r3, [r7, #4]
 80038fc:	6c9a      	ldr	r2, [r3, #72]	@ 0x48
 80038fe:	687b      	ldr	r3, [r7, #4]
 8003900:	681b      	ldr	r3, [r3, #0]
 8003902:	430a      	orrs	r2, r1
 8003904:	605a      	str	r2, [r3, #4]
    }
  }

  /* if required, configure MSB first on communication line */
  if (HAL_IS_BIT_SET(huart->AdvancedInit.AdvFeatureInit, UART_ADVFEATURE_MSBFIRST_INIT))
 8003906:	687b      	ldr	r3, [r7, #4]
 8003908:	6a9b      	ldr	r3, [r3, #40]	@ 0x28
 800390a:	f003 0380 	and.w	r3, r3, #128	@ 0x80
 800390e:	2b00      	cmp	r3, #0
 8003910:	d00a      	beq.n	8003928 <UART_AdvFeatureConfig+0x138>
  {
    assert_param(IS_UART_ADVFEATURE_MSBFIRST(huart->AdvancedInit.MSBFirst));
    MODIFY_REG(huart->Instance->CR2, USART_CR2_MSBFIRST, huart->AdvancedInit.MSBFirst);
 8003912:	687b      	ldr	r3, [r7, #4]
 8003914:	681b      	ldr	r3, [r3, #0]
 8003916:	685b      	ldr	r3, [r3, #4]
 8003918:	f423 2100 	bic.w	r1, r3, #524288	@ 0x80000
 800391c:	687b      	ldr	r3, [r7, #4]
 800391e:	6cda      	ldr	r2, [r3, #76]	@ 0x4c
 8003920:	687b      	ldr	r3, [r7, #4]
 8003922:	681b      	ldr	r3, [r3, #0]
 8003924:	430a      	orrs	r2, r1
 8003926:	605a      	str	r2, [r3, #4]
  }
}
 8003928:	bf00      	nop
 800392a:	370c      	adds	r7, #12
 800392c:	46bd      	mov	sp, r7
 800392e:	f85d 7b04 	ldr.w	r7, [sp], #4
 8003932:	4770      	bx	lr

08003934 <UART_CheckIdleState>:
  * @brief Check the UART Idle State.
  * @param huart UART handle.
  * @retval HAL status
  */
HAL_StatusTypeDef UART_CheckIdleState(UART_HandleTypeDef *huart)
{
 8003934:	b580      	push	{r7, lr}
 8003936:	b098      	sub	sp, #96	@ 0x60
 8003938:	af02      	add	r7, sp, #8
 800393a:	6078      	str	r0, [r7, #4]
  uint32_t tickstart;

  /* Initialize the UART ErrorCode */
  huart->ErrorCode = HAL_UART_ERROR_NONE;
 800393c:	687b      	ldr	r3, [r7, #4]
 800393e:	2200      	movs	r2, #0
 8003940:	f8c3 2090 	str.w	r2, [r3, #144]	@ 0x90

  /* Init tickstart for timeout management */
  tickstart = HAL_GetTick();
 8003944:	f7fe fd1a 	bl	800237c <HAL_GetTick>
 8003948:	6578      	str	r0, [r7, #84]	@ 0x54

  /* Check if the Transmitter is enabled */
  if ((huart->Instance->CR1 & USART_CR1_TE) == USART_CR1_TE)
 800394a:	687b      	ldr	r3, [r7, #4]
 800394c:	681b      	ldr	r3, [r3, #0]
 800394e:	681b      	ldr	r3, [r3, #0]
 8003950:	f003 0308 	and.w	r3, r3, #8
 8003954:	2b08      	cmp	r3, #8
 8003956:	d12f      	bne.n	80039b8 <UART_CheckIdleState+0x84>
  {
    /* Wait until TEACK flag is set */
    if (UART_WaitOnFlagUntilTimeout(huart, USART_ISR_TEACK, RESET, tickstart, HAL_UART_TIMEOUT_VALUE) != HAL_OK)
 8003958:	f06f 437e 	mvn.w	r3, #4261412864	@ 0xfe000000
 800395c:	9300      	str	r3, [sp, #0]
 800395e:	6d7b      	ldr	r3, [r7, #84]	@ 0x54
 8003960:	2200      	movs	r2, #0
 8003962:	f44f 1100 	mov.w	r1, #2097152	@ 0x200000
 8003966:	6878      	ldr	r0, [r7, #4]
 8003968:	f000 f88e 	bl	8003a88 <UART_WaitOnFlagUntilTimeout>
 800396c:	4603      	mov	r3, r0
 800396e:	2b00      	cmp	r3, #0
 8003970:	d022      	beq.n	80039b8 <UART_CheckIdleState+0x84>
    {
      /* Disable TXE interrupt for the interrupt process */
      ATOMIC_CLEAR_BIT(huart->Instance->CR1, (USART_CR1_TXEIE_TXFNFIE));
 8003972:	687b      	ldr	r3, [r7, #4]
 8003974:	681b      	ldr	r3, [r3, #0]
 8003976:	63bb      	str	r3, [r7, #56]	@ 0x38
   __ASM volatile ("ldrex %0, %1" : "=r" (result) : "Q" (*addr) );
 8003978:	6bbb      	ldr	r3, [r7, #56]	@ 0x38
 800397a:	e853 3f00 	ldrex	r3, [r3]
 800397e:	637b      	str	r3, [r7, #52]	@ 0x34
   return(result);
 8003980:	6b7b      	ldr	r3, [r7, #52]	@ 0x34
 8003982:	f023 0380 	bic.w	r3, r3, #128	@ 0x80
 8003986:	653b      	str	r3, [r7, #80]	@ 0x50
 8003988:	687b      	ldr	r3, [r7, #4]
 800398a:	681b      	ldr	r3, [r3, #0]
 800398c:	461a      	mov	r2, r3
 800398e:	6d3b      	ldr	r3, [r7, #80]	@ 0x50
 8003990:	647b      	str	r3, [r7, #68]	@ 0x44
 8003992:	643a      	str	r2, [r7, #64]	@ 0x40
   __ASM volatile ("strex %0, %2, %1" : "=&r" (result), "=Q" (*addr) : "r" (value) );
 8003994:	6c39      	ldr	r1, [r7, #64]	@ 0x40
 8003996:	6c7a      	ldr	r2, [r7, #68]	@ 0x44
 8003998:	e841 2300 	strex	r3, r2, [r1]
 800399c:	63fb      	str	r3, [r7, #60]	@ 0x3c
   return(result);
 800399e:	6bfb      	ldr	r3, [r7, #60]	@ 0x3c
 80039a0:	2b00      	cmp	r3, #0
 80039a2:	d1e6      	bne.n	8003972 <UART_CheckIdleState+0x3e>

      huart->gState = HAL_UART_STATE_READY;
 80039a4:	687b      	ldr	r3, [r7, #4]
 80039a6:	2220      	movs	r2, #32
 80039a8:	f8c3 2088 	str.w	r2, [r3, #136]	@ 0x88

      __HAL_UNLOCK(huart);
 80039ac:	687b      	ldr	r3, [r7, #4]
 80039ae:	2200      	movs	r2, #0
 80039b0:	f883 2084 	strb.w	r2, [r3, #132]	@ 0x84

      /* Timeout occurred */
      return HAL_TIMEOUT;
 80039b4:	2303      	movs	r3, #3
 80039b6:	e063      	b.n	8003a80 <UART_CheckIdleState+0x14c>
    }
  }

  /* Check if the Receiver is enabled */
  if ((huart->Instance->CR1 & USART_CR1_RE) == USART_CR1_RE)
 80039b8:	687b      	ldr	r3, [r7, #4]
 80039ba:	681b      	ldr	r3, [r3, #0]
 80039bc:	681b      	ldr	r3, [r3, #0]
 80039be:	f003 0304 	and.w	r3, r3, #4
 80039c2:	2b04      	cmp	r3, #4
 80039c4:	d149      	bne.n	8003a5a <UART_CheckIdleState+0x126>
  {
    /* Wait until REACK flag is set */
    if (UART_WaitOnFlagUntilTimeout(huart, USART_ISR_REACK, RESET, tickstart, HAL_UART_TIMEOUT_VALUE) != HAL_OK)
 80039c6:	f06f 437e 	mvn.w	r3, #4261412864	@ 0xfe000000
 80039ca:	9300      	str	r3, [sp, #0]
 80039cc:	6d7b      	ldr	r3, [r7, #84]	@ 0x54
 80039ce:	2200      	movs	r2, #0
 80039d0:	f44f 0180 	mov.w	r1, #4194304	@ 0x400000
 80039d4:	6878      	ldr	r0, [r7, #4]
 80039d6:	f000 f857 	bl	8003a88 <UART_WaitOnFlagUntilTimeout>
 80039da:	4603      	mov	r3, r0
 80039dc:	2b00      	cmp	r3, #0
 80039de:	d03c      	beq.n	8003a5a <UART_CheckIdleState+0x126>
    {
      /* Disable RXNE, PE and ERR (Frame error, noise error, overrun error)
      interrupts for the interrupt process */
      ATOMIC_CLEAR_BIT(huart->Instance->CR1, (USART_CR1_RXNEIE_RXFNEIE | USART_CR1_PEIE));
 80039e0:	687b      	ldr	r3, [r7, #4]
 80039e2:	681b      	ldr	r3, [r3, #0]
 80039e4:	627b      	str	r3, [r7, #36]	@ 0x24
   __ASM volatile ("ldrex %0, %1" : "=r" (result) : "Q" (*addr) );
 80039e6:	6a7b      	ldr	r3, [r7, #36]	@ 0x24
 80039e8:	e853 3f00 	ldrex	r3, [r3]
 80039ec:	623b      	str	r3, [r7, #32]
   return(result);
 80039ee:	6a3b      	ldr	r3, [r7, #32]
 80039f0:	f423 7390 	bic.w	r3, r3, #288	@ 0x120
 80039f4:	64fb      	str	r3, [r7, #76]	@ 0x4c
 80039f6:	687b      	ldr	r3, [r7, #4]
 80039f8:	681b      	ldr	r3, [r3, #0]
 80039fa:	461a      	mov	r2, r3
 80039fc:	6cfb      	ldr	r3, [r7, #76]	@ 0x4c
 80039fe:	633b      	str	r3, [r7, #48]	@ 0x30
 8003a00:	62fa      	str	r2, [r7, #44]	@ 0x2c
   __ASM volatile ("strex %0, %2, %1" : "=&r" (result), "=Q" (*addr) : "r" (value) );
 8003a02:	6af9      	ldr	r1, [r7, #44]	@ 0x2c
 8003a04:	6b3a      	ldr	r2, [r7, #48]	@ 0x30
 8003a06:	e841 2300 	strex	r3, r2, [r1]
 8003a0a:	62bb      	str	r3, [r7, #40]	@ 0x28
   return(result);
 8003a0c:	6abb      	ldr	r3, [r7, #40]	@ 0x28
 8003a0e:	2b00      	cmp	r3, #0
 8003a10:	d1e6      	bne.n	80039e0 <UART_CheckIdleState+0xac>
      ATOMIC_CLEAR_BIT(huart->Instance->CR3, USART_CR3_EIE);
 8003a12:	687b      	ldr	r3, [r7, #4]
 8003a14:	681b      	ldr	r3, [r3, #0]
 8003a16:	3308      	adds	r3, #8
 8003a18:	613b      	str	r3, [r7, #16]
   __ASM volatile ("ldrex %0, %1" : "=r" (result) : "Q" (*addr) );
 8003a1a:	693b      	ldr	r3, [r7, #16]
 8003a1c:	e853 3f00 	ldrex	r3, [r3]
 8003a20:	60fb      	str	r3, [r7, #12]
   return(result);
 8003a22:	68fb      	ldr	r3, [r7, #12]
 8003a24:	f023 0301 	bic.w	r3, r3, #1
 8003a28:	64bb      	str	r3, [r7, #72]	@ 0x48
 8003a2a:	687b      	ldr	r3, [r7, #4]
 8003a2c:	681b      	ldr	r3, [r3, #0]
 8003a2e:	3308      	adds	r3, #8
 8003a30:	6cba      	ldr	r2, [r7, #72]	@ 0x48
 8003a32:	61fa      	str	r2, [r7, #28]
 8003a34:	61bb      	str	r3, [r7, #24]
   __ASM volatile ("strex %0, %2, %1" : "=&r" (result), "=Q" (*addr) : "r" (value) );
 8003a36:	69b9      	ldr	r1, [r7, #24]
 8003a38:	69fa      	ldr	r2, [r7, #28]
 8003a3a:	e841 2300 	strex	r3, r2, [r1]
 8003a3e:	617b      	str	r3, [r7, #20]
   return(result);
 8003a40:	697b      	ldr	r3, [r7, #20]
 8003a42:	2b00      	cmp	r3, #0
 8003a44:	d1e5      	bne.n	8003a12 <UART_CheckIdleState+0xde>

      huart->RxState = HAL_UART_STATE_READY;
 8003a46:	687b      	ldr	r3, [r7, #4]
 8003a48:	2220      	movs	r2, #32
 8003a4a:	f8c3 208c 	str.w	r2, [r3, #140]	@ 0x8c

      __HAL_UNLOCK(huart);
 8003a4e:	687b      	ldr	r3, [r7, #4]
 8003a50:	2200      	movs	r2, #0
 8003a52:	f883 2084 	strb.w	r2, [r3, #132]	@ 0x84

      /* Timeout occurred */
      return HAL_TIMEOUT;
 8003a56:	2303      	movs	r3, #3
 8003a58:	e012      	b.n	8003a80 <UART_CheckIdleState+0x14c>
    }
  }

  /* Initialize the UART State */
  huart->gState = HAL_UART_STATE_READY;
 8003a5a:	687b      	ldr	r3, [r7, #4]
 8003a5c:	2220      	movs	r2, #32
 8003a5e:	f8c3 2088 	str.w	r2, [r3, #136]	@ 0x88
  huart->RxState = HAL_UART_STATE_READY;
 8003a62:	687b      	ldr	r3, [r7, #4]
 8003a64:	2220      	movs	r2, #32
 8003a66:	f8c3 208c 	str.w	r2, [r3, #140]	@ 0x8c
  huart->ReceptionType = HAL_UART_RECEPTION_STANDARD;
 8003a6a:	687b      	ldr	r3, [r7, #4]
 8003a6c:	2200      	movs	r2, #0
 8003a6e:	66da      	str	r2, [r3, #108]	@ 0x6c
  huart->RxEventType = HAL_UART_RXEVENT_TC;
 8003a70:	687b      	ldr	r3, [r7, #4]
 8003a72:	2200      	movs	r2, #0
 8003a74:	671a      	str	r2, [r3, #112]	@ 0x70

  __HAL_UNLOCK(huart);
 8003a76:	687b      	ldr	r3, [r7, #4]
 8003a78:	2200      	movs	r2, #0
 8003a7a:	f883 2084 	strb.w	r2, [r3, #132]	@ 0x84

  return HAL_OK;
 8003a7e:	2300      	movs	r3, #0
}
 8003a80:	4618      	mov	r0, r3
 8003a82:	3758      	adds	r7, #88	@ 0x58
 8003a84:	46bd      	mov	sp, r7
 8003a86:	bd80      	pop	{r7, pc}

08003a88 <UART_WaitOnFlagUntilTimeout>:
  * @param Timeout   Timeout duration
  * @retval HAL status
  */
HAL_StatusTypeDef UART_WaitOnFlagUntilTimeout(UART_HandleTypeDef *huart, uint32_t Flag, FlagStatus Status,
                                              uint32_t Tickstart, uint32_t Timeout)
{
 8003a88:	b580      	push	{r7, lr}
 8003a8a:	b084      	sub	sp, #16
 8003a8c:	af00      	add	r7, sp, #0
 8003a8e:	60f8      	str	r0, [r7, #12]
 8003a90:	60b9      	str	r1, [r7, #8]
 8003a92:	603b      	str	r3, [r7, #0]
 8003a94:	4613      	mov	r3, r2
 8003a96:	71fb      	strb	r3, [r7, #7]
  /* Wait until flag is set */
  while ((__HAL_UART_GET_FLAG(huart, Flag) ? SET : RESET) == Status)
 8003a98:	e04f      	b.n	8003b3a <UART_WaitOnFlagUntilTimeout+0xb2>
  {
    /* Check for the Timeout */
    if (Timeout != HAL_MAX_DELAY)
 8003a9a:	69bb      	ldr	r3, [r7, #24]
 8003a9c:	f1b3 3fff 	cmp.w	r3, #4294967295
 8003aa0:	d04b      	beq.n	8003b3a <UART_WaitOnFlagUntilTimeout+0xb2>
    {
      if (((HAL_GetTick() - Tickstart) > Timeout) || (Timeout == 0U))
 8003aa2:	f7fe fc6b 	bl	800237c <HAL_GetTick>
 8003aa6:	4602      	mov	r2, r0
 8003aa8:	683b      	ldr	r3, [r7, #0]
 8003aaa:	1ad3      	subs	r3, r2, r3
 8003aac:	69ba      	ldr	r2, [r7, #24]
 8003aae:	429a      	cmp	r2, r3
 8003ab0:	d302      	bcc.n	8003ab8 <UART_WaitOnFlagUntilTimeout+0x30>
 8003ab2:	69bb      	ldr	r3, [r7, #24]
 8003ab4:	2b00      	cmp	r3, #0
 8003ab6:	d101      	bne.n	8003abc <UART_WaitOnFlagUntilTimeout+0x34>
      {

        return HAL_TIMEOUT;
 8003ab8:	2303      	movs	r3, #3
 8003aba:	e04e      	b.n	8003b5a <UART_WaitOnFlagUntilTimeout+0xd2>
      }

      if ((READ_BIT(huart->Instance->CR1, USART_CR1_RE) != 0U) && (Flag != UART_FLAG_TXE) && (Flag != UART_FLAG_TC))
 8003abc:	68fb      	ldr	r3, [r7, #12]
 8003abe:	681b      	ldr	r3, [r3, #0]
 8003ac0:	681b      	ldr	r3, [r3, #0]
 8003ac2:	f003 0304 	and.w	r3, r3, #4
 8003ac6:	2b00      	cmp	r3, #0
 8003ac8:	d037      	beq.n	8003b3a <UART_WaitOnFlagUntilTimeout+0xb2>
 8003aca:	68bb      	ldr	r3, [r7, #8]
 8003acc:	2b80      	cmp	r3, #128	@ 0x80
 8003ace:	d034      	beq.n	8003b3a <UART_WaitOnFlagUntilTimeout+0xb2>
 8003ad0:	68bb      	ldr	r3, [r7, #8]
 8003ad2:	2b40      	cmp	r3, #64	@ 0x40
 8003ad4:	d031      	beq.n	8003b3a <UART_WaitOnFlagUntilTimeout+0xb2>
      {
        if (__HAL_UART_GET_FLAG(huart, UART_FLAG_ORE) == SET)
 8003ad6:	68fb      	ldr	r3, [r7, #12]
 8003ad8:	681b      	ldr	r3, [r3, #0]
 8003ada:	69db      	ldr	r3, [r3, #28]
 8003adc:	f003 0308 	and.w	r3, r3, #8
 8003ae0:	2b08      	cmp	r3, #8
 8003ae2:	d110      	bne.n	8003b06 <UART_WaitOnFlagUntilTimeout+0x7e>
        {
          /* Clear Overrun Error flag*/
          __HAL_UART_CLEAR_FLAG(huart, UART_CLEAR_OREF);
 8003ae4:	68fb      	ldr	r3, [r7, #12]
 8003ae6:	681b      	ldr	r3, [r3, #0]
 8003ae8:	2208      	movs	r2, #8
 8003aea:	621a      	str	r2, [r3, #32]

          /* Blocking error : transfer is aborted
          Set the UART state ready to be able to start again the process,
          Disable Rx Interrupts if ongoing */
          UART_EndRxTransfer(huart);
 8003aec:	68f8      	ldr	r0, [r7, #12]
 8003aee:	f000 f838 	bl	8003b62 <UART_EndRxTransfer>

          huart->ErrorCode = HAL_UART_ERROR_ORE;
 8003af2:	68fb      	ldr	r3, [r7, #12]
 8003af4:	2208      	movs	r2, #8
 8003af6:	f8c3 2090 	str.w	r2, [r3, #144]	@ 0x90

          /* Process Unlocked */
          __HAL_UNLOCK(huart);
 8003afa:	68fb      	ldr	r3, [r7, #12]
 8003afc:	2200      	movs	r2, #0
 8003afe:	f883 2084 	strb.w	r2, [r3, #132]	@ 0x84

          return HAL_ERROR;
 8003b02:	2301      	movs	r3, #1
 8003b04:	e029      	b.n	8003b5a <UART_WaitOnFlagUntilTimeout+0xd2>
        }
        if (__HAL_UART_GET_FLAG(huart, UART_FLAG_RTOF) == SET)
 8003b06:	68fb      	ldr	r3, [r7, #12]
 8003b08:	681b      	ldr	r3, [r3, #0]
 8003b0a:	69db      	ldr	r3, [r3, #28]
 8003b0c:	f403 6300 	and.w	r3, r3, #2048	@ 0x800
 8003b10:	f5b3 6f00 	cmp.w	r3, #2048	@ 0x800
 8003b14:	d111      	bne.n	8003b3a <UART_WaitOnFlagUntilTimeout+0xb2>
        {
          /* Clear Receiver Timeout flag*/
          __HAL_UART_CLEAR_FLAG(huart, UART_CLEAR_RTOF);
 8003b16:	68fb      	ldr	r3, [r7, #12]
 8003b18:	681b      	ldr	r3, [r3, #0]
 8003b1a:	f44f 6200 	mov.w	r2, #2048	@ 0x800
 8003b1e:	621a      	str	r2, [r3, #32]

          /* Blocking error : transfer is aborted
          Set the UART state ready to be able to start again the process,
          Disable Rx Interrupts if ongoing */
          UART_EndRxTransfer(huart);
 8003b20:	68f8      	ldr	r0, [r7, #12]
 8003b22:	f000 f81e 	bl	8003b62 <UART_EndRxTransfer>

          huart->ErrorCode = HAL_UART_ERROR_RTO;
 8003b26:	68fb      	ldr	r3, [r7, #12]
 8003b28:	2220      	movs	r2, #32
 8003b2a:	f8c3 2090 	str.w	r2, [r3, #144]	@ 0x90

          /* Process Unlocked */
          __HAL_UNLOCK(huart);
 8003b2e:	68fb      	ldr	r3, [r7, #12]
 8003b30:	2200      	movs	r2, #0
 8003b32:	f883 2084 	strb.w	r2, [r3, #132]	@ 0x84

          return HAL_TIMEOUT;
 8003b36:	2303      	movs	r3, #3
 8003b38:	e00f      	b.n	8003b5a <UART_WaitOnFlagUntilTimeout+0xd2>
  while ((__HAL_UART_GET_FLAG(huart, Flag) ? SET : RESET) == Status)
 8003b3a:	68fb      	ldr	r3, [r7, #12]
 8003b3c:	681b      	ldr	r3, [r3, #0]
 8003b3e:	69da      	ldr	r2, [r3, #28]
 8003b40:	68bb      	ldr	r3, [r7, #8]
 8003b42:	4013      	ands	r3, r2
 8003b44:	68ba      	ldr	r2, [r7, #8]
 8003b46:	429a      	cmp	r2, r3
 8003b48:	bf0c      	ite	eq
 8003b4a:	2301      	moveq	r3, #1
 8003b4c:	2300      	movne	r3, #0
 8003b4e:	b2db      	uxtb	r3, r3
 8003b50:	461a      	mov	r2, r3
 8003b52:	79fb      	ldrb	r3, [r7, #7]
 8003b54:	429a      	cmp	r2, r3
 8003b56:	d0a0      	beq.n	8003a9a <UART_WaitOnFlagUntilTimeout+0x12>
        }
      }
    }
  }
  return HAL_OK;
 8003b58:	2300      	movs	r3, #0
}
 8003b5a:	4618      	mov	r0, r3
 8003b5c:	3710      	adds	r7, #16
 8003b5e:	46bd      	mov	sp, r7
 8003b60:	bd80      	pop	{r7, pc}

08003b62 <UART_EndRxTransfer>:
  * @brief  End ongoing Rx transfer on UART peripheral (following error detection or Reception completion).
  * @param  huart UART handle.
  * @retval None
  */
static void UART_EndRxTransfer(UART_HandleTypeDef *huart)
{
 8003b62:	b480      	push	{r7}
 8003b64:	b095      	sub	sp, #84	@ 0x54
 8003b66:	af00      	add	r7, sp, #0
 8003b68:	6078      	str	r0, [r7, #4]
  /* Disable RXNE, PE and ERR (Frame error, noise error, overrun error) interrupts */
  ATOMIC_CLEAR_BIT(huart->Instance->CR1, (USART_CR1_RXNEIE_RXFNEIE | USART_CR1_PEIE));
 8003b6a:	687b      	ldr	r3, [r7, #4]
 8003b6c:	681b      	ldr	r3, [r3, #0]
 8003b6e:	637b      	str	r3, [r7, #52]	@ 0x34
   __ASM volatile ("ldrex %0, %1" : "=r" (result) : "Q" (*addr) );
 8003b70:	6b7b      	ldr	r3, [r7, #52]	@ 0x34
 8003b72:	e853 3f00 	ldrex	r3, [r3]
 8003b76:	633b      	str	r3, [r7, #48]	@ 0x30
   return(result);
 8003b78:	6b3b      	ldr	r3, [r7, #48]	@ 0x30
 8003b7a:	f423 7390 	bic.w	r3, r3, #288	@ 0x120
 8003b7e:	64fb      	str	r3, [r7, #76]	@ 0x4c
 8003b80:	687b      	ldr	r3, [r7, #4]
 8003b82:	681b      	ldr	r3, [r3, #0]
 8003b84:	461a      	mov	r2, r3
 8003b86:	6cfb      	ldr	r3, [r7, #76]	@ 0x4c
 8003b88:	643b      	str	r3, [r7, #64]	@ 0x40
 8003b8a:	63fa      	str	r2, [r7, #60]	@ 0x3c
   __ASM volatile ("strex %0, %2, %1" : "=&r" (result), "=Q" (*addr) : "r" (value) );
 8003b8c:	6bf9      	ldr	r1, [r7, #60]	@ 0x3c
 8003b8e:	6c3a      	ldr	r2, [r7, #64]	@ 0x40
 8003b90:	e841 2300 	strex	r3, r2, [r1]
 8003b94:	63bb      	str	r3, [r7, #56]	@ 0x38
   return(result);
 8003b96:	6bbb      	ldr	r3, [r7, #56]	@ 0x38
 8003b98:	2b00      	cmp	r3, #0
 8003b9a:	d1e6      	bne.n	8003b6a <UART_EndRxTransfer+0x8>
  ATOMIC_CLEAR_BIT(huart->Instance->CR3, (USART_CR3_EIE | USART_CR3_RXFTIE));
 8003b9c:	687b      	ldr	r3, [r7, #4]
 8003b9e:	681b      	ldr	r3, [r3, #0]
 8003ba0:	3308      	adds	r3, #8
 8003ba2:	623b      	str	r3, [r7, #32]
   __ASM volatile ("ldrex %0, %1" : "=r" (result) : "Q" (*addr) );
 8003ba4:	6a3b      	ldr	r3, [r7, #32]
 8003ba6:	e853 3f00 	ldrex	r3, [r3]
 8003baa:	61fb      	str	r3, [r7, #28]
   return(result);
 8003bac:	69fb      	ldr	r3, [r7, #28]
 8003bae:	f023 5380 	bic.w	r3, r3, #268435456	@ 0x10000000
 8003bb2:	f023 0301 	bic.w	r3, r3, #1
 8003bb6:	64bb      	str	r3, [r7, #72]	@ 0x48
 8003bb8:	687b      	ldr	r3, [r7, #4]
 8003bba:	681b      	ldr	r3, [r3, #0]
 8003bbc:	3308      	adds	r3, #8
 8003bbe:	6cba      	ldr	r2, [r7, #72]	@ 0x48
 8003bc0:	62fa      	str	r2, [r7, #44]	@ 0x2c
 8003bc2:	62bb      	str	r3, [r7, #40]	@ 0x28
   __ASM volatile ("strex %0, %2, %1" : "=&r" (result), "=Q" (*addr) : "r" (value) );
 8003bc4:	6ab9      	ldr	r1, [r7, #40]	@ 0x28
 8003bc6:	6afa      	ldr	r2, [r7, #44]	@ 0x2c
 8003bc8:	e841 2300 	strex	r3, r2, [r1]
 8003bcc:	627b      	str	r3, [r7, #36]	@ 0x24
   return(result);
 8003bce:	6a7b      	ldr	r3, [r7, #36]	@ 0x24
 8003bd0:	2b00      	cmp	r3, #0
 8003bd2:	d1e3      	bne.n	8003b9c <UART_EndRxTransfer+0x3a>

  /* In case of reception waiting for IDLE event, disable also the IDLE IE interrupt source */
  if (huart->ReceptionType == HAL_UART_RECEPTION_TOIDLE)
 8003bd4:	687b      	ldr	r3, [r7, #4]
 8003bd6:	6edb      	ldr	r3, [r3, #108]	@ 0x6c
 8003bd8:	2b01      	cmp	r3, #1
 8003bda:	d118      	bne.n	8003c0e <UART_EndRxTransfer+0xac>
  {
    ATOMIC_CLEAR_BIT(huart->Instance->CR1, USART_CR1_IDLEIE);
 8003bdc:	687b      	ldr	r3, [r7, #4]
 8003bde:	681b      	ldr	r3, [r3, #0]
 8003be0:	60fb      	str	r3, [r7, #12]
   __ASM volatile ("ldrex %0, %1" : "=r" (result) : "Q" (*addr) );
 8003be2:	68fb      	ldr	r3, [r7, #12]
 8003be4:	e853 3f00 	ldrex	r3, [r3]
 8003be8:	60bb      	str	r3, [r7, #8]
   return(result);
 8003bea:	68bb      	ldr	r3, [r7, #8]
 8003bec:	f023 0310 	bic.w	r3, r3, #16
 8003bf0:	647b      	str	r3, [r7, #68]	@ 0x44
 8003bf2:	687b      	ldr	r3, [r7, #4]
 8003bf4:	681b      	ldr	r3, [r3, #0]
 8003bf6:	461a      	mov	r2, r3
 8003bf8:	6c7b      	ldr	r3, [r7, #68]	@ 0x44
 8003bfa:	61bb      	str	r3, [r7, #24]
 8003bfc:	617a      	str	r2, [r7, #20]
   __ASM volatile ("strex %0, %2, %1" : "=&r" (result), "=Q" (*addr) : "r" (value) );
 8003bfe:	6979      	ldr	r1, [r7, #20]
 8003c00:	69ba      	ldr	r2, [r7, #24]
 8003c02:	e841 2300 	strex	r3, r2, [r1]
 8003c06:	613b      	str	r3, [r7, #16]
   return(result);
 8003c08:	693b      	ldr	r3, [r7, #16]
 8003c0a:	2b00      	cmp	r3, #0
 8003c0c:	d1e6      	bne.n	8003bdc <UART_EndRxTransfer+0x7a>
  }

  /* At end of Rx process, restore huart->RxState to Ready */
  huart->RxState = HAL_UART_STATE_READY;
 8003c0e:	687b      	ldr	r3, [r7, #4]
 8003c10:	2220      	movs	r2, #32
 8003c12:	f8c3 208c 	str.w	r2, [r3, #140]	@ 0x8c
  huart->ReceptionType = HAL_UART_RECEPTION_STANDARD;
 8003c16:	687b      	ldr	r3, [r7, #4]
 8003c18:	2200      	movs	r2, #0
 8003c1a:	66da      	str	r2, [r3, #108]	@ 0x6c

  /* Reset RxIsr function pointer */
  huart->RxISR = NULL;
 8003c1c:	687b      	ldr	r3, [r7, #4]
 8003c1e:	2200      	movs	r2, #0
 8003c20:	675a      	str	r2, [r3, #116]	@ 0x74
}
 8003c22:	bf00      	nop
 8003c24:	3754      	adds	r7, #84	@ 0x54
 8003c26:	46bd      	mov	sp, r7
 8003c28:	f85d 7b04 	ldr.w	r7, [sp], #4
 8003c2c:	4770      	bx	lr

08003c2e <LL_ADC_REG_SetSequencerLength>:
{
 8003c2e:	b480      	push	{r7}
 8003c30:	b083      	sub	sp, #12
 8003c32:	af00      	add	r7, sp, #0
 8003c34:	6078      	str	r0, [r7, #4]
 8003c36:	6039      	str	r1, [r7, #0]
  MODIFY_REG(ADCx->SQR1, ADC_SQR1_L, SequencerNbRanks);
 8003c38:	687b      	ldr	r3, [r7, #4]
 8003c3a:	6b1b      	ldr	r3, [r3, #48]	@ 0x30
 8003c3c:	f023 020f 	bic.w	r2, r3, #15
 8003c40:	683b      	ldr	r3, [r7, #0]
 8003c42:	431a      	orrs	r2, r3
 8003c44:	687b      	ldr	r3, [r7, #4]
 8003c46:	631a      	str	r2, [r3, #48]	@ 0x30
}
 8003c48:	bf00      	nop
 8003c4a:	370c      	adds	r7, #12
 8003c4c:	46bd      	mov	sp, r7
 8003c4e:	f85d 7b04 	ldr.w	r7, [sp], #4
 8003c52:	4770      	bx	lr

08003c54 <LL_ADC_IsEnabled>:
{
 8003c54:	b480      	push	{r7}
 8003c56:	b083      	sub	sp, #12
 8003c58:	af00      	add	r7, sp, #0
 8003c5a:	6078      	str	r0, [r7, #4]
  return ((READ_BIT(ADCx->CR, ADC_CR_ADEN) == (ADC_CR_ADEN)) ? 1UL : 0UL);
 8003c5c:	687b      	ldr	r3, [r7, #4]
 8003c5e:	689b      	ldr	r3, [r3, #8]
 8003c60:	f003 0301 	and.w	r3, r3, #1
 8003c64:	2b01      	cmp	r3, #1
 8003c66:	d101      	bne.n	8003c6c <LL_ADC_IsEnabled+0x18>
 8003c68:	2301      	movs	r3, #1
 8003c6a:	e000      	b.n	8003c6e <LL_ADC_IsEnabled+0x1a>
 8003c6c:	2300      	movs	r3, #0
}
 8003c6e:	4618      	mov	r0, r3
 8003c70:	370c      	adds	r7, #12
 8003c72:	46bd      	mov	sp, r7
 8003c74:	f85d 7b04 	ldr.w	r7, [sp], #4
 8003c78:	4770      	bx	lr
	...

08003c7c <LL_ADC_CommonInit>:
  * @retval An ErrorStatus enumeration value:
  *          - SUCCESS: ADC common registers are initialized
  *          - ERROR: ADC common registers are not initialized
  */
ErrorStatus LL_ADC_CommonInit(ADC_Common_TypeDef *ADCxy_COMMON, const LL_ADC_CommonInitTypeDef *pADC_CommonInitStruct)
{
 8003c7c:	b590      	push	{r4, r7, lr}
 8003c7e:	b085      	sub	sp, #20
 8003c80:	af00      	add	r7, sp, #0
 8003c82:	6078      	str	r0, [r7, #4]
 8003c84:	6039      	str	r1, [r7, #0]
  ErrorStatus status = SUCCESS;
 8003c86:	2300      	movs	r3, #0
 8003c88:	73fb      	strb	r3, [r7, #15]
  /* Note: Hardware constraint (refer to description of functions             */
  /*       "LL_ADC_SetCommonXXX()" and "LL_ADC_SetMultiXXX()"):               */
  /*       On this STM32 series, setting of these features is conditioned to  */
  /*       ADC state:                                                         */
  /*       All ADC instances of the ADC common group must be disabled.        */
  if (__LL_ADC_IS_ENABLED_ALL_COMMON_INSTANCE(ADCxy_COMMON) == 0UL)
 8003c8a:	687b      	ldr	r3, [r7, #4]
 8003c8c:	4a27      	ldr	r2, [pc, #156]	@ (8003d2c <LL_ADC_CommonInit+0xb0>)
 8003c8e:	4293      	cmp	r3, r2
 8003c90:	d10f      	bne.n	8003cb2 <LL_ADC_CommonInit+0x36>
 8003c92:	f04f 40a0 	mov.w	r0, #1342177280	@ 0x50000000
 8003c96:	f7ff ffdd 	bl	8003c54 <LL_ADC_IsEnabled>
 8003c9a:	4604      	mov	r4, r0
 8003c9c:	4824      	ldr	r0, [pc, #144]	@ (8003d30 <LL_ADC_CommonInit+0xb4>)
 8003c9e:	f7ff ffd9 	bl	8003c54 <LL_ADC_IsEnabled>
 8003ca2:	4603      	mov	r3, r0
 8003ca4:	4323      	orrs	r3, r4
 8003ca6:	2b00      	cmp	r3, #0
 8003ca8:	bf0c      	ite	eq
 8003caa:	2301      	moveq	r3, #1
 8003cac:	2300      	movne	r3, #0
 8003cae:	b2db      	uxtb	r3, r3
 8003cb0:	e012      	b.n	8003cd8 <LL_ADC_CommonInit+0x5c>
 8003cb2:	4820      	ldr	r0, [pc, #128]	@ (8003d34 <LL_ADC_CommonInit+0xb8>)
 8003cb4:	f7ff ffce 	bl	8003c54 <LL_ADC_IsEnabled>
 8003cb8:	4604      	mov	r4, r0
 8003cba:	481f      	ldr	r0, [pc, #124]	@ (8003d38 <LL_ADC_CommonInit+0xbc>)
 8003cbc:	f7ff ffca 	bl	8003c54 <LL_ADC_IsEnabled>
 8003cc0:	4603      	mov	r3, r0
 8003cc2:	431c      	orrs	r4, r3
 8003cc4:	481d      	ldr	r0, [pc, #116]	@ (8003d3c <LL_ADC_CommonInit+0xc0>)
 8003cc6:	f7ff ffc5 	bl	8003c54 <LL_ADC_IsEnabled>
 8003cca:	4603      	mov	r3, r0
 8003ccc:	4323      	orrs	r3, r4
 8003cce:	2b00      	cmp	r3, #0
 8003cd0:	bf0c      	ite	eq
 8003cd2:	2301      	moveq	r3, #1
 8003cd4:	2300      	movne	r3, #0
 8003cd6:	b2db      	uxtb	r3, r3
 8003cd8:	2b00      	cmp	r3, #0
 8003cda:	d020      	beq.n	8003d1e <LL_ADC_CommonInit+0xa2>
    /*    selected device)                                                    */
    /*    - Set ADC multimode configuration                                   */
    /*    - Set ADC multimode DMA transfer                                    */
    /*    - Set ADC multimode: delay between 2 sampling phases                */
#if defined(ADC_MULTIMODE_SUPPORT)
    if (pADC_CommonInitStruct->Multimode != LL_ADC_MULTI_INDEPENDENT)
 8003cdc:	683b      	ldr	r3, [r7, #0]
 8003cde:	685b      	ldr	r3, [r3, #4]
 8003ce0:	2b00      	cmp	r3, #0
 8003ce2:	d012      	beq.n	8003d0a <LL_ADC_CommonInit+0x8e>
    {
      MODIFY_REG(ADCxy_COMMON->CCR,
 8003ce4:	687b      	ldr	r3, [r7, #4]
 8003ce6:	689a      	ldr	r2, [r3, #8]
 8003ce8:	4b15      	ldr	r3, [pc, #84]	@ (8003d40 <LL_ADC_CommonInit+0xc4>)
 8003cea:	4013      	ands	r3, r2
 8003cec:	683a      	ldr	r2, [r7, #0]
 8003cee:	6811      	ldr	r1, [r2, #0]
 8003cf0:	683a      	ldr	r2, [r7, #0]
 8003cf2:	6852      	ldr	r2, [r2, #4]
 8003cf4:	4311      	orrs	r1, r2
 8003cf6:	683a      	ldr	r2, [r7, #0]
 8003cf8:	6892      	ldr	r2, [r2, #8]
 8003cfa:	4311      	orrs	r1, r2
 8003cfc:	683a      	ldr	r2, [r7, #0]
 8003cfe:	68d2      	ldr	r2, [r2, #12]
 8003d00:	430a      	orrs	r2, r1
 8003d02:	431a      	orrs	r2, r3
 8003d04:	687b      	ldr	r3, [r7, #4]
 8003d06:	609a      	str	r2, [r3, #8]
 8003d08:	e00b      	b.n	8003d22 <LL_ADC_CommonInit+0xa6>
                 | pADC_CommonInitStruct->MultiTwoSamplingDelay
                );
    }
    else
    {
      MODIFY_REG(ADCxy_COMMON->CCR,
 8003d0a:	687b      	ldr	r3, [r7, #4]
 8003d0c:	689a      	ldr	r2, [r3, #8]
 8003d0e:	4b0c      	ldr	r3, [pc, #48]	@ (8003d40 <LL_ADC_CommonInit+0xc4>)
 8003d10:	4013      	ands	r3, r2
 8003d12:	683a      	ldr	r2, [r7, #0]
 8003d14:	6812      	ldr	r2, [r2, #0]
 8003d16:	431a      	orrs	r2, r3
 8003d18:	687b      	ldr	r3, [r7, #4]
 8003d1a:	609a      	str	r2, [r3, #8]
 8003d1c:	e001      	b.n	8003d22 <LL_ADC_CommonInit+0xa6>
  }
  else
  {
    /* Initialization error: One or several ADC instances belonging to        */
    /* the same ADC common instance are not disabled.                         */
    status = ERROR;
 8003d1e:	2301      	movs	r3, #1
 8003d20:	73fb      	strb	r3, [r7, #15]
  }

  return status;
 8003d22:	7bfb      	ldrb	r3, [r7, #15]
}
 8003d24:	4618      	mov	r0, r3
 8003d26:	3714      	adds	r7, #20
 8003d28:	46bd      	mov	sp, r7
 8003d2a:	bd90      	pop	{r4, r7, pc}
 8003d2c:	50000300 	.word	0x50000300
 8003d30:	50000100 	.word	0x50000100
 8003d34:	50000400 	.word	0x50000400
 8003d38:	50000500 	.word	0x50000500
 8003d3c:	50000600 	.word	0x50000600
 8003d40:	ffc030e0 	.word	0xffc030e0

08003d44 <LL_ADC_Init>:
  * @retval An ErrorStatus enumeration value:
  *          - SUCCESS: ADC registers are initialized
  *          - ERROR: ADC registers are not initialized
  */
ErrorStatus LL_ADC_Init(ADC_TypeDef *ADCx, const LL_ADC_InitTypeDef *pADC_InitStruct)
{
 8003d44:	b580      	push	{r7, lr}
 8003d46:	b084      	sub	sp, #16
 8003d48:	af00      	add	r7, sp, #0
 8003d4a:	6078      	str	r0, [r7, #4]
 8003d4c:	6039      	str	r1, [r7, #0]
  ErrorStatus status = SUCCESS;
 8003d4e:	2300      	movs	r3, #0
 8003d50:	73fb      	strb	r3, [r7, #15]
  assert_param(IS_LL_ADC_DATA_ALIGN(pADC_InitStruct->DataAlignment));
  assert_param(IS_LL_ADC_LOW_POWER(pADC_InitStruct->LowPowerMode));

  /* Note: Hardware constraint (refer to description of this function):       */
  /*       ADC instance must be disabled.                                     */
  if (LL_ADC_IsEnabled(ADCx) == 0UL)
 8003d52:	6878      	ldr	r0, [r7, #4]
 8003d54:	f7ff ff7e 	bl	8003c54 <LL_ADC_IsEnabled>
 8003d58:	4603      	mov	r3, r0
 8003d5a:	2b00      	cmp	r3, #0
 8003d5c:	d111      	bne.n	8003d82 <LL_ADC_Init+0x3e>
    /* Configuration of ADC hierarchical scope:                               */
    /*  - ADC instance                                                        */
    /*    - Set ADC data resolution                                           */
    /*    - Set ADC conversion data alignment                                 */
    /*    - Set ADC low power mode                                            */
    MODIFY_REG(ADCx->CFGR,
 8003d5e:	687b      	ldr	r3, [r7, #4]
 8003d60:	68db      	ldr	r3, [r3, #12]
 8003d62:	f423 4340 	bic.w	r3, r3, #49152	@ 0xc000
 8003d66:	f023 0318 	bic.w	r3, r3, #24
 8003d6a:	683a      	ldr	r2, [r7, #0]
 8003d6c:	6811      	ldr	r1, [r2, #0]
 8003d6e:	683a      	ldr	r2, [r7, #0]
 8003d70:	6852      	ldr	r2, [r2, #4]
 8003d72:	4311      	orrs	r1, r2
 8003d74:	683a      	ldr	r2, [r7, #0]
 8003d76:	6892      	ldr	r2, [r2, #8]
 8003d78:	430a      	orrs	r2, r1
 8003d7a:	431a      	orrs	r2, r3
 8003d7c:	687b      	ldr	r3, [r7, #4]
 8003d7e:	60da      	str	r2, [r3, #12]
 8003d80:	e001      	b.n	8003d86 <LL_ADC_Init+0x42>

  }
  else
  {
    /* Initialization error: ADC instance is not disabled. */
    status = ERROR;
 8003d82:	2301      	movs	r3, #1
 8003d84:	73fb      	strb	r3, [r7, #15]
  }

  return status;
 8003d86:	7bfb      	ldrb	r3, [r7, #15]
}
 8003d88:	4618      	mov	r0, r3
 8003d8a:	3710      	adds	r7, #16
 8003d8c:	46bd      	mov	sp, r7
 8003d8e:	bd80      	pop	{r7, pc}

08003d90 <LL_ADC_REG_Init>:
  * @retval An ErrorStatus enumeration value:
  *          - SUCCESS: ADC registers are initialized
  *          - ERROR: ADC registers are not initialized
  */
ErrorStatus LL_ADC_REG_Init(ADC_TypeDef *ADCx, const LL_ADC_REG_InitTypeDef *pADC_RegInitStruct)
{
 8003d90:	b580      	push	{r7, lr}
 8003d92:	b084      	sub	sp, #16
 8003d94:	af00      	add	r7, sp, #0
 8003d96:	6078      	str	r0, [r7, #4]
 8003d98:	6039      	str	r1, [r7, #0]
  ErrorStatus status = SUCCESS;
 8003d9a:	2300      	movs	r3, #0
 8003d9c:	73fb      	strb	r3, [r7, #15]
  assert_param(IS_LL_ADC_REG_DMA_TRANSFER(pADC_RegInitStruct->DMATransfer));
  assert_param(IS_LL_ADC_REG_OVR_DATA_BEHAVIOR(pADC_RegInitStruct->Overrun));

  /* Note: Hardware constraint (refer to description of this function):       */
  /*       ADC instance must be disabled.                                     */
  if (LL_ADC_IsEnabled(ADCx) == 0UL)
 8003d9e:	6878      	ldr	r0, [r7, #4]
 8003da0:	f7ff ff58 	bl	8003c54 <LL_ADC_IsEnabled>
 8003da4:	4603      	mov	r3, r0
 8003da6:	2b00      	cmp	r3, #0
 8003da8:	d132      	bne.n	8003e10 <LL_ADC_REG_Init+0x80>
    /*    - Set ADC group regular conversion data transfer: no transfer or    */
    /*      transfer by DMA, and DMA requests mode                            */
    /*    - Set ADC group regular overrun behavior                            */
    /* Note: On this STM32 series, ADC trigger edge is set to value 0x0 by    */
    /*       setting of trigger source to SW start.                           */
    if (pADC_RegInitStruct->SequencerLength != LL_ADC_REG_SEQ_SCAN_DISABLE)
 8003daa:	683b      	ldr	r3, [r7, #0]
 8003dac:	685b      	ldr	r3, [r3, #4]
 8003dae:	2b00      	cmp	r3, #0
 8003db0:	d015      	beq.n	8003dde <LL_ADC_REG_Init+0x4e>
    {
      MODIFY_REG(ADCx->CFGR,
 8003db2:	687b      	ldr	r3, [r7, #4]
 8003db4:	68da      	ldr	r2, [r3, #12]
 8003db6:	4b1a      	ldr	r3, [pc, #104]	@ (8003e20 <LL_ADC_REG_Init+0x90>)
 8003db8:	4013      	ands	r3, r2
 8003dba:	683a      	ldr	r2, [r7, #0]
 8003dbc:	6811      	ldr	r1, [r2, #0]
 8003dbe:	683a      	ldr	r2, [r7, #0]
 8003dc0:	6892      	ldr	r2, [r2, #8]
 8003dc2:	4311      	orrs	r1, r2
 8003dc4:	683a      	ldr	r2, [r7, #0]
 8003dc6:	68d2      	ldr	r2, [r2, #12]
 8003dc8:	4311      	orrs	r1, r2
 8003dca:	683a      	ldr	r2, [r7, #0]
 8003dcc:	6912      	ldr	r2, [r2, #16]
 8003dce:	4311      	orrs	r1, r2
 8003dd0:	683a      	ldr	r2, [r7, #0]
 8003dd2:	6952      	ldr	r2, [r2, #20]
 8003dd4:	430a      	orrs	r2, r1
 8003dd6:	431a      	orrs	r2, r3
 8003dd8:	687b      	ldr	r3, [r7, #4]
 8003dda:	60da      	str	r2, [r3, #12]
 8003ddc:	e011      	b.n	8003e02 <LL_ADC_REG_Init+0x72>
                 | pADC_RegInitStruct->Overrun
                );
    }
    else
    {
      MODIFY_REG(ADCx->CFGR,
 8003dde:	687b      	ldr	r3, [r7, #4]
 8003de0:	68da      	ldr	r2, [r3, #12]
 8003de2:	4b0f      	ldr	r3, [pc, #60]	@ (8003e20 <LL_ADC_REG_Init+0x90>)
 8003de4:	4013      	ands	r3, r2
 8003de6:	683a      	ldr	r2, [r7, #0]
 8003de8:	6811      	ldr	r1, [r2, #0]
 8003dea:	683a      	ldr	r2, [r7, #0]
 8003dec:	68d2      	ldr	r2, [r2, #12]
 8003dee:	4311      	orrs	r1, r2
 8003df0:	683a      	ldr	r2, [r7, #0]
 8003df2:	6912      	ldr	r2, [r2, #16]
 8003df4:	4311      	orrs	r1, r2
 8003df6:	683a      	ldr	r2, [r7, #0]
 8003df8:	6952      	ldr	r2, [r2, #20]
 8003dfa:	430a      	orrs	r2, r1
 8003dfc:	431a      	orrs	r2, r3
 8003dfe:	687b      	ldr	r3, [r7, #4]
 8003e00:	60da      	str	r2, [r3, #12]
                 | pADC_RegInitStruct->Overrun
                );
    }

    /* Set ADC group regular sequencer length and scan direction */
    LL_ADC_REG_SetSequencerLength(ADCx, pADC_RegInitStruct->SequencerLength);
 8003e02:	683b      	ldr	r3, [r7, #0]
 8003e04:	685b      	ldr	r3, [r3, #4]
 8003e06:	4619      	mov	r1, r3
 8003e08:	6878      	ldr	r0, [r7, #4]
 8003e0a:	f7ff ff10 	bl	8003c2e <LL_ADC_REG_SetSequencerLength>
 8003e0e:	e001      	b.n	8003e14 <LL_ADC_REG_Init+0x84>
  }
  else
  {
    /* Initialization error: ADC instance is not disabled. */
    status = ERROR;
 8003e10:	2301      	movs	r3, #1
 8003e12:	73fb      	strb	r3, [r7, #15]
  }
  return status;
 8003e14:	7bfb      	ldrb	r3, [r7, #15]
}
 8003e16:	4618      	mov	r0, r3
 8003e18:	3710      	adds	r7, #16
 8003e1a:	46bd      	mov	sp, r7
 8003e1c:	bd80      	pop	{r7, pc}
 8003e1e:	bf00      	nop
 8003e20:	fff0c01c 	.word	0xfff0c01c

08003e24 <LL_GPIO_SetPinMode>:
  *         @arg @ref LL_GPIO_MODE_ALTERNATE
  *         @arg @ref LL_GPIO_MODE_ANALOG
  * @retval None
  */
__STATIC_INLINE void LL_GPIO_SetPinMode(GPIO_TypeDef *GPIOx, uint32_t Pin, uint32_t Mode)
{
 8003e24:	b480      	push	{r7}
 8003e26:	b08b      	sub	sp, #44	@ 0x2c
 8003e28:	af00      	add	r7, sp, #0
 8003e2a:	60f8      	str	r0, [r7, #12]
 8003e2c:	60b9      	str	r1, [r7, #8]
 8003e2e:	607a      	str	r2, [r7, #4]
  MODIFY_REG(GPIOx->MODER, (GPIO_MODER_MODE0 << (POSITION_VAL(Pin) * 2U)), (Mode << (POSITION_VAL(Pin) * 2U)));
 8003e30:	68fb      	ldr	r3, [r7, #12]
 8003e32:	681a      	ldr	r2, [r3, #0]
 8003e34:	68bb      	ldr	r3, [r7, #8]
 8003e36:	617b      	str	r3, [r7, #20]
   __ASM volatile ("rbit %0, %1" : "=r" (result) : "r" (value) );
 8003e38:	697b      	ldr	r3, [r7, #20]
 8003e3a:	fa93 f3a3 	rbit	r3, r3
 8003e3e:	613b      	str	r3, [r7, #16]
  return result;
 8003e40:	693b      	ldr	r3, [r7, #16]
 8003e42:	61bb      	str	r3, [r7, #24]
  if (value == 0U)
 8003e44:	69bb      	ldr	r3, [r7, #24]
 8003e46:	2b00      	cmp	r3, #0
 8003e48:	d101      	bne.n	8003e4e <LL_GPIO_SetPinMode+0x2a>
    return 32U;
 8003e4a:	2320      	movs	r3, #32
 8003e4c:	e003      	b.n	8003e56 <LL_GPIO_SetPinMode+0x32>
  return __builtin_clz(value);
 8003e4e:	69bb      	ldr	r3, [r7, #24]
 8003e50:	fab3 f383 	clz	r3, r3
 8003e54:	b2db      	uxtb	r3, r3
 8003e56:	005b      	lsls	r3, r3, #1
 8003e58:	2103      	movs	r1, #3
 8003e5a:	fa01 f303 	lsl.w	r3, r1, r3
 8003e5e:	43db      	mvns	r3, r3
 8003e60:	401a      	ands	r2, r3
 8003e62:	68bb      	ldr	r3, [r7, #8]
 8003e64:	623b      	str	r3, [r7, #32]
   __ASM volatile ("rbit %0, %1" : "=r" (result) : "r" (value) );
 8003e66:	6a3b      	ldr	r3, [r7, #32]
 8003e68:	fa93 f3a3 	rbit	r3, r3
 8003e6c:	61fb      	str	r3, [r7, #28]
  return result;
 8003e6e:	69fb      	ldr	r3, [r7, #28]
 8003e70:	627b      	str	r3, [r7, #36]	@ 0x24
  if (value == 0U)
 8003e72:	6a7b      	ldr	r3, [r7, #36]	@ 0x24
 8003e74:	2b00      	cmp	r3, #0
 8003e76:	d101      	bne.n	8003e7c <LL_GPIO_SetPinMode+0x58>
    return 32U;
 8003e78:	2320      	movs	r3, #32
 8003e7a:	e003      	b.n	8003e84 <LL_GPIO_SetPinMode+0x60>
  return __builtin_clz(value);
 8003e7c:	6a7b      	ldr	r3, [r7, #36]	@ 0x24
 8003e7e:	fab3 f383 	clz	r3, r3
 8003e82:	b2db      	uxtb	r3, r3
 8003e84:	005b      	lsls	r3, r3, #1
 8003e86:	6879      	ldr	r1, [r7, #4]
 8003e88:	fa01 f303 	lsl.w	r3, r1, r3
 8003e8c:	431a      	orrs	r2, r3
 8003e8e:	68fb      	ldr	r3, [r7, #12]
 8003e90:	601a      	str	r2, [r3, #0]
}
 8003e92:	bf00      	nop
 8003e94:	372c      	adds	r7, #44	@ 0x2c
 8003e96:	46bd      	mov	sp, r7
 8003e98:	f85d 7b04 	ldr.w	r7, [sp], #4
 8003e9c:	4770      	bx	lr

08003e9e <LL_GPIO_SetPinOutputType>:
  *         @arg @ref LL_GPIO_OUTPUT_PUSHPULL
  *         @arg @ref LL_GPIO_OUTPUT_OPENDRAIN
  * @retval None
  */
__STATIC_INLINE void LL_GPIO_SetPinOutputType(GPIO_TypeDef *GPIOx, uint32_t PinMask, uint32_t OutputType)
{
 8003e9e:	b480      	push	{r7}
 8003ea0:	b085      	sub	sp, #20
 8003ea2:	af00      	add	r7, sp, #0
 8003ea4:	60f8      	str	r0, [r7, #12]
 8003ea6:	60b9      	str	r1, [r7, #8]
 8003ea8:	607a      	str	r2, [r7, #4]
  MODIFY_REG(GPIOx->OTYPER, PinMask, (PinMask * OutputType));
 8003eaa:	68fb      	ldr	r3, [r7, #12]
 8003eac:	685a      	ldr	r2, [r3, #4]
 8003eae:	68bb      	ldr	r3, [r7, #8]
 8003eb0:	43db      	mvns	r3, r3
 8003eb2:	401a      	ands	r2, r3
 8003eb4:	68bb      	ldr	r3, [r7, #8]
 8003eb6:	6879      	ldr	r1, [r7, #4]
 8003eb8:	fb01 f303 	mul.w	r3, r1, r3
 8003ebc:	431a      	orrs	r2, r3
 8003ebe:	68fb      	ldr	r3, [r7, #12]
 8003ec0:	605a      	str	r2, [r3, #4]
}
 8003ec2:	bf00      	nop
 8003ec4:	3714      	adds	r7, #20
 8003ec6:	46bd      	mov	sp, r7
 8003ec8:	f85d 7b04 	ldr.w	r7, [sp], #4
 8003ecc:	4770      	bx	lr

08003ece <LL_GPIO_SetPinSpeed>:
  *         @arg @ref LL_GPIO_SPEED_FREQ_HIGH
  *         @arg @ref LL_GPIO_SPEED_FREQ_VERY_HIGH
  * @retval None
  */
__STATIC_INLINE void LL_GPIO_SetPinSpeed(GPIO_TypeDef *GPIOx, uint32_t Pin, uint32_t  Speed)
{
 8003ece:	b480      	push	{r7}
 8003ed0:	b08b      	sub	sp, #44	@ 0x2c
 8003ed2:	af00      	add	r7, sp, #0
 8003ed4:	60f8      	str	r0, [r7, #12]
 8003ed6:	60b9      	str	r1, [r7, #8]
 8003ed8:	607a      	str	r2, [r7, #4]
  MODIFY_REG(GPIOx->OSPEEDR, (GPIO_OSPEEDR_OSPEED0 << (POSITION_VAL(Pin) * 2U)),
 8003eda:	68fb      	ldr	r3, [r7, #12]
 8003edc:	689a      	ldr	r2, [r3, #8]
 8003ede:	68bb      	ldr	r3, [r7, #8]
 8003ee0:	617b      	str	r3, [r7, #20]
   __ASM volatile ("rbit %0, %1" : "=r" (result) : "r" (value) );
 8003ee2:	697b      	ldr	r3, [r7, #20]
 8003ee4:	fa93 f3a3 	rbit	r3, r3
 8003ee8:	613b      	str	r3, [r7, #16]
  return result;
 8003eea:	693b      	ldr	r3, [r7, #16]
 8003eec:	61bb      	str	r3, [r7, #24]
  if (value == 0U)
 8003eee:	69bb      	ldr	r3, [r7, #24]
 8003ef0:	2b00      	cmp	r3, #0
 8003ef2:	d101      	bne.n	8003ef8 <LL_GPIO_SetPinSpeed+0x2a>
    return 32U;
 8003ef4:	2320      	movs	r3, #32
 8003ef6:	e003      	b.n	8003f00 <LL_GPIO_SetPinSpeed+0x32>
  return __builtin_clz(value);
 8003ef8:	69bb      	ldr	r3, [r7, #24]
 8003efa:	fab3 f383 	clz	r3, r3
 8003efe:	b2db      	uxtb	r3, r3
 8003f00:	005b      	lsls	r3, r3, #1
 8003f02:	2103      	movs	r1, #3
 8003f04:	fa01 f303 	lsl.w	r3, r1, r3
 8003f08:	43db      	mvns	r3, r3
 8003f0a:	401a      	ands	r2, r3
 8003f0c:	68bb      	ldr	r3, [r7, #8]
 8003f0e:	623b      	str	r3, [r7, #32]
   __ASM volatile ("rbit %0, %1" : "=r" (result) : "r" (value) );
 8003f10:	6a3b      	ldr	r3, [r7, #32]
 8003f12:	fa93 f3a3 	rbit	r3, r3
 8003f16:	61fb      	str	r3, [r7, #28]
  return result;
 8003f18:	69fb      	ldr	r3, [r7, #28]
 8003f1a:	627b      	str	r3, [r7, #36]	@ 0x24
  if (value == 0U)
 8003f1c:	6a7b      	ldr	r3, [r7, #36]	@ 0x24
 8003f1e:	2b00      	cmp	r3, #0
 8003f20:	d101      	bne.n	8003f26 <LL_GPIO_SetPinSpeed+0x58>
    return 32U;
 8003f22:	2320      	movs	r3, #32
 8003f24:	e003      	b.n	8003f2e <LL_GPIO_SetPinSpeed+0x60>
  return __builtin_clz(value);
 8003f26:	6a7b      	ldr	r3, [r7, #36]	@ 0x24
 8003f28:	fab3 f383 	clz	r3, r3
 8003f2c:	b2db      	uxtb	r3, r3
 8003f2e:	005b      	lsls	r3, r3, #1
 8003f30:	6879      	ldr	r1, [r7, #4]
 8003f32:	fa01 f303 	lsl.w	r3, r1, r3
 8003f36:	431a      	orrs	r2, r3
 8003f38:	68fb      	ldr	r3, [r7, #12]
 8003f3a:	609a      	str	r2, [r3, #8]
             (Speed << (POSITION_VAL(Pin) * 2U)));
}
 8003f3c:	bf00      	nop
 8003f3e:	372c      	adds	r7, #44	@ 0x2c
 8003f40:	46bd      	mov	sp, r7
 8003f42:	f85d 7b04 	ldr.w	r7, [sp], #4
 8003f46:	4770      	bx	lr

08003f48 <LL_GPIO_SetPinPull>:
  *         @arg @ref LL_GPIO_PULL_UP
  *         @arg @ref LL_GPIO_PULL_DOWN
  * @retval None
  */
__STATIC_INLINE void LL_GPIO_SetPinPull(GPIO_TypeDef *GPIOx, uint32_t Pin, uint32_t Pull)
{
 8003f48:	b480      	push	{r7}
 8003f4a:	b08b      	sub	sp, #44	@ 0x2c
 8003f4c:	af00      	add	r7, sp, #0
 8003f4e:	60f8      	str	r0, [r7, #12]
 8003f50:	60b9      	str	r1, [r7, #8]
 8003f52:	607a      	str	r2, [r7, #4]
  MODIFY_REG(GPIOx->PUPDR, (GPIO_PUPDR_PUPD0 << (POSITION_VAL(Pin) * 2U)), (Pull << (POSITION_VAL(Pin) * 2U)));
 8003f54:	68fb      	ldr	r3, [r7, #12]
 8003f56:	68da      	ldr	r2, [r3, #12]
 8003f58:	68bb      	ldr	r3, [r7, #8]
 8003f5a:	617b      	str	r3, [r7, #20]
   __ASM volatile ("rbit %0, %1" : "=r" (result) : "r" (value) );
 8003f5c:	697b      	ldr	r3, [r7, #20]
 8003f5e:	fa93 f3a3 	rbit	r3, r3
 8003f62:	613b      	str	r3, [r7, #16]
  return result;
 8003f64:	693b      	ldr	r3, [r7, #16]
 8003f66:	61bb      	str	r3, [r7, #24]
  if (value == 0U)
 8003f68:	69bb      	ldr	r3, [r7, #24]
 8003f6a:	2b00      	cmp	r3, #0
 8003f6c:	d101      	bne.n	8003f72 <LL_GPIO_SetPinPull+0x2a>
    return 32U;
 8003f6e:	2320      	movs	r3, #32
 8003f70:	e003      	b.n	8003f7a <LL_GPIO_SetPinPull+0x32>
  return __builtin_clz(value);
 8003f72:	69bb      	ldr	r3, [r7, #24]
 8003f74:	fab3 f383 	clz	r3, r3
 8003f78:	b2db      	uxtb	r3, r3
 8003f7a:	005b      	lsls	r3, r3, #1
 8003f7c:	2103      	movs	r1, #3
 8003f7e:	fa01 f303 	lsl.w	r3, r1, r3
 8003f82:	43db      	mvns	r3, r3
 8003f84:	401a      	ands	r2, r3
 8003f86:	68bb      	ldr	r3, [r7, #8]
 8003f88:	623b      	str	r3, [r7, #32]
   __ASM volatile ("rbit %0, %1" : "=r" (result) : "r" (value) );
 8003f8a:	6a3b      	ldr	r3, [r7, #32]
 8003f8c:	fa93 f3a3 	rbit	r3, r3
 8003f90:	61fb      	str	r3, [r7, #28]
  return result;
 8003f92:	69fb      	ldr	r3, [r7, #28]
 8003f94:	627b      	str	r3, [r7, #36]	@ 0x24
  if (value == 0U)
 8003f96:	6a7b      	ldr	r3, [r7, #36]	@ 0x24
 8003f98:	2b00      	cmp	r3, #0
 8003f9a:	d101      	bne.n	8003fa0 <LL_GPIO_SetPinPull+0x58>
    return 32U;
 8003f9c:	2320      	movs	r3, #32
 8003f9e:	e003      	b.n	8003fa8 <LL_GPIO_SetPinPull+0x60>
  return __builtin_clz(value);
 8003fa0:	6a7b      	ldr	r3, [r7, #36]	@ 0x24
 8003fa2:	fab3 f383 	clz	r3, r3
 8003fa6:	b2db      	uxtb	r3, r3
 8003fa8:	005b      	lsls	r3, r3, #1
 8003faa:	6879      	ldr	r1, [r7, #4]
 8003fac:	fa01 f303 	lsl.w	r3, r1, r3
 8003fb0:	431a      	orrs	r2, r3
 8003fb2:	68fb      	ldr	r3, [r7, #12]
 8003fb4:	60da      	str	r2, [r3, #12]
}
 8003fb6:	bf00      	nop
 8003fb8:	372c      	adds	r7, #44	@ 0x2c
 8003fba:	46bd      	mov	sp, r7
 8003fbc:	f85d 7b04 	ldr.w	r7, [sp], #4
 8003fc0:	4770      	bx	lr

08003fc2 <LL_GPIO_SetAFPin_0_7>:
  *         @arg @ref LL_GPIO_AF_14
  *         @arg @ref LL_GPIO_AF_15
  * @retval None
  */
__STATIC_INLINE void LL_GPIO_SetAFPin_0_7(GPIO_TypeDef *GPIOx, uint32_t Pin, uint32_t Alternate)
{
 8003fc2:	b480      	push	{r7}
 8003fc4:	b08b      	sub	sp, #44	@ 0x2c
 8003fc6:	af00      	add	r7, sp, #0
 8003fc8:	60f8      	str	r0, [r7, #12]
 8003fca:	60b9      	str	r1, [r7, #8]
 8003fcc:	607a      	str	r2, [r7, #4]
  MODIFY_REG(GPIOx->AFR[0], (GPIO_AFRL_AFSEL0 << (POSITION_VAL(Pin) * 4U)),
 8003fce:	68fb      	ldr	r3, [r7, #12]
 8003fd0:	6a1a      	ldr	r2, [r3, #32]
 8003fd2:	68bb      	ldr	r3, [r7, #8]
 8003fd4:	617b      	str	r3, [r7, #20]
   __ASM volatile ("rbit %0, %1" : "=r" (result) : "r" (value) );
 8003fd6:	697b      	ldr	r3, [r7, #20]
 8003fd8:	fa93 f3a3 	rbit	r3, r3
 8003fdc:	613b      	str	r3, [r7, #16]
  return result;
 8003fde:	693b      	ldr	r3, [r7, #16]
 8003fe0:	61bb      	str	r3, [r7, #24]
  if (value == 0U)
 8003fe2:	69bb      	ldr	r3, [r7, #24]
 8003fe4:	2b00      	cmp	r3, #0
 8003fe6:	d101      	bne.n	8003fec <LL_GPIO_SetAFPin_0_7+0x2a>
    return 32U;
 8003fe8:	2320      	movs	r3, #32
 8003fea:	e003      	b.n	8003ff4 <LL_GPIO_SetAFPin_0_7+0x32>
  return __builtin_clz(value);
 8003fec:	69bb      	ldr	r3, [r7, #24]
 8003fee:	fab3 f383 	clz	r3, r3
 8003ff2:	b2db      	uxtb	r3, r3
 8003ff4:	009b      	lsls	r3, r3, #2
 8003ff6:	210f      	movs	r1, #15
 8003ff8:	fa01 f303 	lsl.w	r3, r1, r3
 8003ffc:	43db      	mvns	r3, r3
 8003ffe:	401a      	ands	r2, r3
 8004000:	68bb      	ldr	r3, [r7, #8]
 8004002:	623b      	str	r3, [r7, #32]
   __ASM volatile ("rbit %0, %1" : "=r" (result) : "r" (value) );
 8004004:	6a3b      	ldr	r3, [r7, #32]
 8004006:	fa93 f3a3 	rbit	r3, r3
 800400a:	61fb      	str	r3, [r7, #28]
  return result;
 800400c:	69fb      	ldr	r3, [r7, #28]
 800400e:	627b      	str	r3, [r7, #36]	@ 0x24
  if (value == 0U)
 8004010:	6a7b      	ldr	r3, [r7, #36]	@ 0x24
 8004012:	2b00      	cmp	r3, #0
 8004014:	d101      	bne.n	800401a <LL_GPIO_SetAFPin_0_7+0x58>
    return 32U;
 8004016:	2320      	movs	r3, #32
 8004018:	e003      	b.n	8004022 <LL_GPIO_SetAFPin_0_7+0x60>
  return __builtin_clz(value);
 800401a:	6a7b      	ldr	r3, [r7, #36]	@ 0x24
 800401c:	fab3 f383 	clz	r3, r3
 8004020:	b2db      	uxtb	r3, r3
 8004022:	009b      	lsls	r3, r3, #2
 8004024:	6879      	ldr	r1, [r7, #4]
 8004026:	fa01 f303 	lsl.w	r3, r1, r3
 800402a:	431a      	orrs	r2, r3
 800402c:	68fb      	ldr	r3, [r7, #12]
 800402e:	621a      	str	r2, [r3, #32]
             (Alternate << (POSITION_VAL(Pin) * 4U)));
}
 8004030:	bf00      	nop
 8004032:	372c      	adds	r7, #44	@ 0x2c
 8004034:	46bd      	mov	sp, r7
 8004036:	f85d 7b04 	ldr.w	r7, [sp], #4
 800403a:	4770      	bx	lr

0800403c <LL_GPIO_SetAFPin_8_15>:
  *         @arg @ref LL_GPIO_AF_14
  *         @arg @ref LL_GPIO_AF_15
  * @retval None
  */
__STATIC_INLINE void LL_GPIO_SetAFPin_8_15(GPIO_TypeDef *GPIOx, uint32_t Pin, uint32_t Alternate)
{
 800403c:	b480      	push	{r7}
 800403e:	b08b      	sub	sp, #44	@ 0x2c
 8004040:	af00      	add	r7, sp, #0
 8004042:	60f8      	str	r0, [r7, #12]
 8004044:	60b9      	str	r1, [r7, #8]
 8004046:	607a      	str	r2, [r7, #4]
  MODIFY_REG(GPIOx->AFR[1], (GPIO_AFRH_AFSEL8 << (POSITION_VAL(Pin >> 8U) * 4U)),
 8004048:	68fb      	ldr	r3, [r7, #12]
 800404a:	6a5a      	ldr	r2, [r3, #36]	@ 0x24
 800404c:	68bb      	ldr	r3, [r7, #8]
 800404e:	0a1b      	lsrs	r3, r3, #8
 8004050:	617b      	str	r3, [r7, #20]
   __ASM volatile ("rbit %0, %1" : "=r" (result) : "r" (value) );
 8004052:	697b      	ldr	r3, [r7, #20]
 8004054:	fa93 f3a3 	rbit	r3, r3
 8004058:	613b      	str	r3, [r7, #16]
  return result;
 800405a:	693b      	ldr	r3, [r7, #16]
 800405c:	61bb      	str	r3, [r7, #24]
  if (value == 0U)
 800405e:	69bb      	ldr	r3, [r7, #24]
 8004060:	2b00      	cmp	r3, #0
 8004062:	d101      	bne.n	8004068 <LL_GPIO_SetAFPin_8_15+0x2c>
    return 32U;
 8004064:	2320      	movs	r3, #32
 8004066:	e003      	b.n	8004070 <LL_GPIO_SetAFPin_8_15+0x34>
  return __builtin_clz(value);
 8004068:	69bb      	ldr	r3, [r7, #24]
 800406a:	fab3 f383 	clz	r3, r3
 800406e:	b2db      	uxtb	r3, r3
 8004070:	009b      	lsls	r3, r3, #2
 8004072:	210f      	movs	r1, #15
 8004074:	fa01 f303 	lsl.w	r3, r1, r3
 8004078:	43db      	mvns	r3, r3
 800407a:	401a      	ands	r2, r3
 800407c:	68bb      	ldr	r3, [r7, #8]
 800407e:	0a1b      	lsrs	r3, r3, #8
 8004080:	623b      	str	r3, [r7, #32]
   __ASM volatile ("rbit %0, %1" : "=r" (result) : "r" (value) );
 8004082:	6a3b      	ldr	r3, [r7, #32]
 8004084:	fa93 f3a3 	rbit	r3, r3
 8004088:	61fb      	str	r3, [r7, #28]
  return result;
 800408a:	69fb      	ldr	r3, [r7, #28]
 800408c:	627b      	str	r3, [r7, #36]	@ 0x24
  if (value == 0U)
 800408e:	6a7b      	ldr	r3, [r7, #36]	@ 0x24
 8004090:	2b00      	cmp	r3, #0
 8004092:	d101      	bne.n	8004098 <LL_GPIO_SetAFPin_8_15+0x5c>
    return 32U;
 8004094:	2320      	movs	r3, #32
 8004096:	e003      	b.n	80040a0 <LL_GPIO_SetAFPin_8_15+0x64>
  return __builtin_clz(value);
 8004098:	6a7b      	ldr	r3, [r7, #36]	@ 0x24
 800409a:	fab3 f383 	clz	r3, r3
 800409e:	b2db      	uxtb	r3, r3
 80040a0:	009b      	lsls	r3, r3, #2
 80040a2:	6879      	ldr	r1, [r7, #4]
 80040a4:	fa01 f303 	lsl.w	r3, r1, r3
 80040a8:	431a      	orrs	r2, r3
 80040aa:	68fb      	ldr	r3, [r7, #12]
 80040ac:	625a      	str	r2, [r3, #36]	@ 0x24
             (Alternate << (POSITION_VAL(Pin >> 8U) * 4U)));
}
 80040ae:	bf00      	nop
 80040b0:	372c      	adds	r7, #44	@ 0x2c
 80040b2:	46bd      	mov	sp, r7
 80040b4:	f85d 7b04 	ldr.w	r7, [sp], #4
 80040b8:	4770      	bx	lr

080040ba <LL_GPIO_Init>:
  * @retval An ErrorStatus enumeration value:
  *          - SUCCESS: GPIO registers are initialized according to GPIO_InitStruct content
  *          - ERROR:   Not applicable
  */
ErrorStatus LL_GPIO_Init(GPIO_TypeDef *GPIOx, LL_GPIO_InitTypeDef *GPIO_InitStruct)
{
 80040ba:	b580      	push	{r7, lr}
 80040bc:	b088      	sub	sp, #32
 80040be:	af00      	add	r7, sp, #0
 80040c0:	6078      	str	r0, [r7, #4]
 80040c2:	6039      	str	r1, [r7, #0]
  assert_param(IS_LL_GPIO_MODE(GPIO_InitStruct->Mode));
  assert_param(IS_LL_GPIO_PULL(GPIO_InitStruct->Pull));

  /* ------------------------- Configure the port pins ---------------- */
  /* Initialize  pinpos on first pin set */
  pinpos = POSITION_VAL(GPIO_InitStruct->Pin);
 80040c4:	683b      	ldr	r3, [r7, #0]
 80040c6:	681b      	ldr	r3, [r3, #0]
 80040c8:	613b      	str	r3, [r7, #16]
   __ASM volatile ("rbit %0, %1" : "=r" (result) : "r" (value) );
 80040ca:	693b      	ldr	r3, [r7, #16]
 80040cc:	fa93 f3a3 	rbit	r3, r3
 80040d0:	60fb      	str	r3, [r7, #12]
  return result;
 80040d2:	68fb      	ldr	r3, [r7, #12]
 80040d4:	617b      	str	r3, [r7, #20]
  if (value == 0U)
 80040d6:	697b      	ldr	r3, [r7, #20]
 80040d8:	2b00      	cmp	r3, #0
 80040da:	d101      	bne.n	80040e0 <LL_GPIO_Init+0x26>
    return 32U;
 80040dc:	2320      	movs	r3, #32
 80040de:	e003      	b.n	80040e8 <LL_GPIO_Init+0x2e>
  return __builtin_clz(value);
 80040e0:	697b      	ldr	r3, [r7, #20]
 80040e2:	fab3 f383 	clz	r3, r3
 80040e6:	b2db      	uxtb	r3, r3
 80040e8:	61fb      	str	r3, [r7, #28]

  /* Configure the port pins */
  while (((GPIO_InitStruct->Pin) >> pinpos) != 0x00000000U)
 80040ea:	e048      	b.n	800417e <LL_GPIO_Init+0xc4>
  {
    /* Get current io position */
    currentpin = (GPIO_InitStruct->Pin) & (0x00000001UL << pinpos);
 80040ec:	683b      	ldr	r3, [r7, #0]
 80040ee:	681a      	ldr	r2, [r3, #0]
 80040f0:	2101      	movs	r1, #1
 80040f2:	69fb      	ldr	r3, [r7, #28]
 80040f4:	fa01 f303 	lsl.w	r3, r1, r3
 80040f8:	4013      	ands	r3, r2
 80040fa:	61bb      	str	r3, [r7, #24]

    if (currentpin != 0x00u)
 80040fc:	69bb      	ldr	r3, [r7, #24]
 80040fe:	2b00      	cmp	r3, #0
 8004100:	d03a      	beq.n	8004178 <LL_GPIO_Init+0xbe>
    {
      if ((GPIO_InitStruct->Mode == LL_GPIO_MODE_OUTPUT) || (GPIO_InitStruct->Mode == LL_GPIO_MODE_ALTERNATE))
 8004102:	683b      	ldr	r3, [r7, #0]
 8004104:	685b      	ldr	r3, [r3, #4]
 8004106:	2b01      	cmp	r3, #1
 8004108:	d003      	beq.n	8004112 <LL_GPIO_Init+0x58>
 800410a:	683b      	ldr	r3, [r7, #0]
 800410c:	685b      	ldr	r3, [r3, #4]
 800410e:	2b02      	cmp	r3, #2
 8004110:	d10e      	bne.n	8004130 <LL_GPIO_Init+0x76>
      {
        /* Check Speed mode parameters */
        assert_param(IS_LL_GPIO_SPEED(GPIO_InitStruct->Speed));

        /* Speed mode configuration */
        LL_GPIO_SetPinSpeed(GPIOx, currentpin, GPIO_InitStruct->Speed);
 8004112:	683b      	ldr	r3, [r7, #0]
 8004114:	689b      	ldr	r3, [r3, #8]
 8004116:	461a      	mov	r2, r3
 8004118:	69b9      	ldr	r1, [r7, #24]
 800411a:	6878      	ldr	r0, [r7, #4]
 800411c:	f7ff fed7 	bl	8003ece <LL_GPIO_SetPinSpeed>

        /* Check Output mode parameters */
        assert_param(IS_LL_GPIO_OUTPUT_TYPE(GPIO_InitStruct->OutputType));

        /* Output mode configuration*/
        LL_GPIO_SetPinOutputType(GPIOx, GPIO_InitStruct->Pin, GPIO_InitStruct->OutputType);
 8004120:	683b      	ldr	r3, [r7, #0]
 8004122:	6819      	ldr	r1, [r3, #0]
 8004124:	683b      	ldr	r3, [r7, #0]
 8004126:	68db      	ldr	r3, [r3, #12]
 8004128:	461a      	mov	r2, r3
 800412a:	6878      	ldr	r0, [r7, #4]
 800412c:	f7ff feb7 	bl	8003e9e <LL_GPIO_SetPinOutputType>
      }

      /* Pull-up Pull down resistor configuration*/
      LL_GPIO_SetPinPull(GPIOx, currentpin, GPIO_InitStruct->Pull);
 8004130:	683b      	ldr	r3, [r7, #0]
 8004132:	691b      	ldr	r3, [r3, #16]
 8004134:	461a      	mov	r2, r3
 8004136:	69b9      	ldr	r1, [r7, #24]
 8004138:	6878      	ldr	r0, [r7, #4]
 800413a:	f7ff ff05 	bl	8003f48 <LL_GPIO_SetPinPull>

      if (GPIO_InitStruct->Mode == LL_GPIO_MODE_ALTERNATE)
 800413e:	683b      	ldr	r3, [r7, #0]
 8004140:	685b      	ldr	r3, [r3, #4]
 8004142:	2b02      	cmp	r3, #2
 8004144:	d111      	bne.n	800416a <LL_GPIO_Init+0xb0>
      {
        /* Check Alternate parameter */
        assert_param(IS_LL_GPIO_ALTERNATE(GPIO_InitStruct->Alternate));

        /* Speed mode configuration */
        if (currentpin < LL_GPIO_PIN_8)
 8004146:	69bb      	ldr	r3, [r7, #24]
 8004148:	2bff      	cmp	r3, #255	@ 0xff
 800414a:	d807      	bhi.n	800415c <LL_GPIO_Init+0xa2>
        {
          LL_GPIO_SetAFPin_0_7(GPIOx, currentpin, GPIO_InitStruct->Alternate);
 800414c:	683b      	ldr	r3, [r7, #0]
 800414e:	695b      	ldr	r3, [r3, #20]
 8004150:	461a      	mov	r2, r3
 8004152:	69b9      	ldr	r1, [r7, #24]
 8004154:	6878      	ldr	r0, [r7, #4]
 8004156:	f7ff ff34 	bl	8003fc2 <LL_GPIO_SetAFPin_0_7>
 800415a:	e006      	b.n	800416a <LL_GPIO_Init+0xb0>
        }
        else
        {
          LL_GPIO_SetAFPin_8_15(GPIOx, currentpin, GPIO_InitStruct->Alternate);
 800415c:	683b      	ldr	r3, [r7, #0]
 800415e:	695b      	ldr	r3, [r3, #20]
 8004160:	461a      	mov	r2, r3
 8004162:	69b9      	ldr	r1, [r7, #24]
 8004164:	6878      	ldr	r0, [r7, #4]
 8004166:	f7ff ff69 	bl	800403c <LL_GPIO_SetAFPin_8_15>
        }
      }

      /* Pin Mode configuration */
      LL_GPIO_SetPinMode(GPIOx, currentpin, GPIO_InitStruct->Mode);
 800416a:	683b      	ldr	r3, [r7, #0]
 800416c:	685b      	ldr	r3, [r3, #4]
 800416e:	461a      	mov	r2, r3
 8004170:	69b9      	ldr	r1, [r7, #24]
 8004172:	6878      	ldr	r0, [r7, #4]
 8004174:	f7ff fe56 	bl	8003e24 <LL_GPIO_SetPinMode>
    }
    pinpos++;
 8004178:	69fb      	ldr	r3, [r7, #28]
 800417a:	3301      	adds	r3, #1
 800417c:	61fb      	str	r3, [r7, #28]
  while (((GPIO_InitStruct->Pin) >> pinpos) != 0x00000000U)
 800417e:	683b      	ldr	r3, [r7, #0]
 8004180:	681a      	ldr	r2, [r3, #0]
 8004182:	69fb      	ldr	r3, [r7, #28]
 8004184:	fa22 f303 	lsr.w	r3, r2, r3
 8004188:	2b00      	cmp	r3, #0
 800418a:	d1af      	bne.n	80040ec <LL_GPIO_Init+0x32>
  }
  return (SUCCESS);
 800418c:	2300      	movs	r3, #0
}
 800418e:	4618      	mov	r0, r3
 8004190:	3720      	adds	r7, #32
 8004192:	46bd      	mov	sp, r7
 8004194:	bd80      	pop	{r7, pc}
	...

08004198 <LL_RCC_HSI_IsReady>:
{
 8004198:	b480      	push	{r7}
 800419a:	af00      	add	r7, sp, #0
  return ((READ_BIT(RCC->CR, RCC_CR_HSIRDY) == (RCC_CR_HSIRDY)) ? 1UL : 0UL);
 800419c:	4b07      	ldr	r3, [pc, #28]	@ (80041bc <LL_RCC_HSI_IsReady+0x24>)
 800419e:	681b      	ldr	r3, [r3, #0]
 80041a0:	f403 6380 	and.w	r3, r3, #1024	@ 0x400
 80041a4:	f5b3 6f80 	cmp.w	r3, #1024	@ 0x400
 80041a8:	d101      	bne.n	80041ae <LL_RCC_HSI_IsReady+0x16>
 80041aa:	2301      	movs	r3, #1
 80041ac:	e000      	b.n	80041b0 <LL_RCC_HSI_IsReady+0x18>
 80041ae:	2300      	movs	r3, #0
}
 80041b0:	4618      	mov	r0, r3
 80041b2:	46bd      	mov	sp, r7
 80041b4:	f85d 7b04 	ldr.w	r7, [sp], #4
 80041b8:	4770      	bx	lr
 80041ba:	bf00      	nop
 80041bc:	40021000 	.word	0x40021000

080041c0 <LL_RCC_LSE_IsReady>:
{
 80041c0:	b480      	push	{r7}
 80041c2:	af00      	add	r7, sp, #0
  return ((READ_BIT(RCC->BDCR, RCC_BDCR_LSERDY) == (RCC_BDCR_LSERDY)) ? 1UL : 0UL);
 80041c4:	4b07      	ldr	r3, [pc, #28]	@ (80041e4 <LL_RCC_LSE_IsReady+0x24>)
 80041c6:	f8d3 3090 	ldr.w	r3, [r3, #144]	@ 0x90
 80041ca:	f003 0302 	and.w	r3, r3, #2
 80041ce:	2b02      	cmp	r3, #2
 80041d0:	d101      	bne.n	80041d6 <LL_RCC_LSE_IsReady+0x16>
 80041d2:	2301      	movs	r3, #1
 80041d4:	e000      	b.n	80041d8 <LL_RCC_LSE_IsReady+0x18>
 80041d6:	2300      	movs	r3, #0
}
 80041d8:	4618      	mov	r0, r3
 80041da:	46bd      	mov	sp, r7
 80041dc:	f85d 7b04 	ldr.w	r7, [sp], #4
 80041e0:	4770      	bx	lr
 80041e2:	bf00      	nop
 80041e4:	40021000 	.word	0x40021000

080041e8 <LL_RCC_GetSysClkSource>:
{
 80041e8:	b480      	push	{r7}
 80041ea:	af00      	add	r7, sp, #0
  return (uint32_t)(READ_BIT(RCC->CFGR, RCC_CFGR_SWS));
 80041ec:	4b04      	ldr	r3, [pc, #16]	@ (8004200 <LL_RCC_GetSysClkSource+0x18>)
 80041ee:	689b      	ldr	r3, [r3, #8]
 80041f0:	f003 030c 	and.w	r3, r3, #12
}
 80041f4:	4618      	mov	r0, r3
 80041f6:	46bd      	mov	sp, r7
 80041f8:	f85d 7b04 	ldr.w	r7, [sp], #4
 80041fc:	4770      	bx	lr
 80041fe:	bf00      	nop
 8004200:	40021000 	.word	0x40021000

08004204 <LL_RCC_GetAHBPrescaler>:
{
 8004204:	b480      	push	{r7}
 8004206:	af00      	add	r7, sp, #0
  return (uint32_t)(READ_BIT(RCC->CFGR, RCC_CFGR_HPRE));
 8004208:	4b04      	ldr	r3, [pc, #16]	@ (800421c <LL_RCC_GetAHBPrescaler+0x18>)
 800420a:	689b      	ldr	r3, [r3, #8]
 800420c:	f003 03f0 	and.w	r3, r3, #240	@ 0xf0
}
 8004210:	4618      	mov	r0, r3
 8004212:	46bd      	mov	sp, r7
 8004214:	f85d 7b04 	ldr.w	r7, [sp], #4
 8004218:	4770      	bx	lr
 800421a:	bf00      	nop
 800421c:	40021000 	.word	0x40021000

08004220 <LL_RCC_GetAPB1Prescaler>:
{
 8004220:	b480      	push	{r7}
 8004222:	af00      	add	r7, sp, #0
  return (uint32_t)(READ_BIT(RCC->CFGR, RCC_CFGR_PPRE1));
 8004224:	4b04      	ldr	r3, [pc, #16]	@ (8004238 <LL_RCC_GetAPB1Prescaler+0x18>)
 8004226:	689b      	ldr	r3, [r3, #8]
 8004228:	f403 63e0 	and.w	r3, r3, #1792	@ 0x700
}
 800422c:	4618      	mov	r0, r3
 800422e:	46bd      	mov	sp, r7
 8004230:	f85d 7b04 	ldr.w	r7, [sp], #4
 8004234:	4770      	bx	lr
 8004236:	bf00      	nop
 8004238:	40021000 	.word	0x40021000

0800423c <LL_RCC_GetAPB2Prescaler>:
{
 800423c:	b480      	push	{r7}
 800423e:	af00      	add	r7, sp, #0
  return (uint32_t)(READ_BIT(RCC->CFGR, RCC_CFGR_PPRE2));
 8004240:	4b04      	ldr	r3, [pc, #16]	@ (8004254 <LL_RCC_GetAPB2Prescaler+0x18>)
 8004242:	689b      	ldr	r3, [r3, #8]
 8004244:	f403 5360 	and.w	r3, r3, #14336	@ 0x3800
}
 8004248:	4618      	mov	r0, r3
 800424a:	46bd      	mov	sp, r7
 800424c:	f85d 7b04 	ldr.w	r7, [sp], #4
 8004250:	4770      	bx	lr
 8004252:	bf00      	nop
 8004254:	40021000 	.word	0x40021000

08004258 <LL_RCC_GetUSARTClockSource>:
{
 8004258:	b480      	push	{r7}
 800425a:	b083      	sub	sp, #12
 800425c:	af00      	add	r7, sp, #0
 800425e:	6078      	str	r0, [r7, #4]
  return (uint32_t)(READ_BIT(RCC->CCIPR, USARTx) | (USARTx << 16U));
 8004260:	4b06      	ldr	r3, [pc, #24]	@ (800427c <LL_RCC_GetUSARTClockSource+0x24>)
 8004262:	f8d3 2088 	ldr.w	r2, [r3, #136]	@ 0x88
 8004266:	687b      	ldr	r3, [r7, #4]
 8004268:	401a      	ands	r2, r3
 800426a:	687b      	ldr	r3, [r7, #4]
 800426c:	041b      	lsls	r3, r3, #16
 800426e:	4313      	orrs	r3, r2
}
 8004270:	4618      	mov	r0, r3
 8004272:	370c      	adds	r7, #12
 8004274:	46bd      	mov	sp, r7
 8004276:	f85d 7b04 	ldr.w	r7, [sp], #4
 800427a:	4770      	bx	lr
 800427c:	40021000 	.word	0x40021000

08004280 <LL_RCC_GetUARTClockSource>:
{
 8004280:	b480      	push	{r7}
 8004282:	b083      	sub	sp, #12
 8004284:	af00      	add	r7, sp, #0
 8004286:	6078      	str	r0, [r7, #4]
  return (uint32_t)(READ_BIT(RCC->CCIPR, UARTx) | (UARTx << 16U));
 8004288:	4b06      	ldr	r3, [pc, #24]	@ (80042a4 <LL_RCC_GetUARTClockSource+0x24>)
 800428a:	f8d3 2088 	ldr.w	r2, [r3, #136]	@ 0x88
 800428e:	687b      	ldr	r3, [r7, #4]
 8004290:	401a      	ands	r2, r3
 8004292:	687b      	ldr	r3, [r7, #4]
 8004294:	041b      	lsls	r3, r3, #16
 8004296:	4313      	orrs	r3, r2
}
 8004298:	4618      	mov	r0, r3
 800429a:	370c      	adds	r7, #12
 800429c:	46bd      	mov	sp, r7
 800429e:	f85d 7b04 	ldr.w	r7, [sp], #4
 80042a2:	4770      	bx	lr
 80042a4:	40021000 	.word	0x40021000

080042a8 <LL_RCC_PLL_GetMainSource>:
{
 80042a8:	b480      	push	{r7}
 80042aa:	af00      	add	r7, sp, #0
  return (uint32_t)(READ_BIT(RCC->PLLCFGR, RCC_PLLCFGR_PLLSRC));
 80042ac:	4b04      	ldr	r3, [pc, #16]	@ (80042c0 <LL_RCC_PLL_GetMainSource+0x18>)
 80042ae:	68db      	ldr	r3, [r3, #12]
 80042b0:	f003 0303 	and.w	r3, r3, #3
}
 80042b4:	4618      	mov	r0, r3
 80042b6:	46bd      	mov	sp, r7
 80042b8:	f85d 7b04 	ldr.w	r7, [sp], #4
 80042bc:	4770      	bx	lr
 80042be:	bf00      	nop
 80042c0:	40021000 	.word	0x40021000

080042c4 <LL_RCC_PLL_GetN>:
{
 80042c4:	b480      	push	{r7}
 80042c6:	af00      	add	r7, sp, #0
  return (uint32_t)(READ_BIT(RCC->PLLCFGR, RCC_PLLCFGR_PLLN) >>  RCC_PLLCFGR_PLLN_Pos);
 80042c8:	4b04      	ldr	r3, [pc, #16]	@ (80042dc <LL_RCC_PLL_GetN+0x18>)
 80042ca:	68db      	ldr	r3, [r3, #12]
 80042cc:	0a1b      	lsrs	r3, r3, #8
 80042ce:	f003 037f 	and.w	r3, r3, #127	@ 0x7f
}
 80042d2:	4618      	mov	r0, r3
 80042d4:	46bd      	mov	sp, r7
 80042d6:	f85d 7b04 	ldr.w	r7, [sp], #4
 80042da:	4770      	bx	lr
 80042dc:	40021000 	.word	0x40021000

080042e0 <LL_RCC_PLL_GetR>:
{
 80042e0:	b480      	push	{r7}
 80042e2:	af00      	add	r7, sp, #0
  return (uint32_t)(READ_BIT(RCC->PLLCFGR, RCC_PLLCFGR_PLLR));
 80042e4:	4b04      	ldr	r3, [pc, #16]	@ (80042f8 <LL_RCC_PLL_GetR+0x18>)
 80042e6:	68db      	ldr	r3, [r3, #12]
 80042e8:	f003 63c0 	and.w	r3, r3, #100663296	@ 0x6000000
}
 80042ec:	4618      	mov	r0, r3
 80042ee:	46bd      	mov	sp, r7
 80042f0:	f85d 7b04 	ldr.w	r7, [sp], #4
 80042f4:	4770      	bx	lr
 80042f6:	bf00      	nop
 80042f8:	40021000 	.word	0x40021000

080042fc <LL_RCC_PLL_GetDivider>:
{
 80042fc:	b480      	push	{r7}
 80042fe:	af00      	add	r7, sp, #0
  return (uint32_t)(READ_BIT(RCC->PLLCFGR, RCC_PLLCFGR_PLLM));
 8004300:	4b04      	ldr	r3, [pc, #16]	@ (8004314 <LL_RCC_PLL_GetDivider+0x18>)
 8004302:	68db      	ldr	r3, [r3, #12]
 8004304:	f003 03f0 	and.w	r3, r3, #240	@ 0xf0
}
 8004308:	4618      	mov	r0, r3
 800430a:	46bd      	mov	sp, r7
 800430c:	f85d 7b04 	ldr.w	r7, [sp], #4
 8004310:	4770      	bx	lr
 8004312:	bf00      	nop
 8004314:	40021000 	.word	0x40021000

08004318 <LL_RCC_GetUSARTClockFreq>:
  *
  * @retval USART clock frequency (in Hz)
  *         - @ref  LL_RCC_PERIPH_FREQUENCY_NO indicates that oscillator (HSI or LSE) is not ready
  */
uint32_t LL_RCC_GetUSARTClockFreq(uint32_t USARTxSource)
{
 8004318:	b580      	push	{r7, lr}
 800431a:	b084      	sub	sp, #16
 800431c:	af00      	add	r7, sp, #0
 800431e:	6078      	str	r0, [r7, #4]
  uint32_t usart_frequency = LL_RCC_PERIPH_FREQUENCY_NO;
 8004320:	2300      	movs	r3, #0
 8004322:	60fb      	str	r3, [r7, #12]

  /* Check parameter */
  assert_param(IS_LL_RCC_USART_CLKSOURCE(USARTxSource));

  if (USARTxSource == LL_RCC_USART1_CLKSOURCE)
 8004324:	687b      	ldr	r3, [r7, #4]
 8004326:	2b03      	cmp	r3, #3
 8004328:	d132      	bne.n	8004390 <LL_RCC_GetUSARTClockFreq+0x78>
  {
    /* USART1CLK clock frequency */
    switch (LL_RCC_GetUSARTClockSource(USARTxSource))
 800432a:	6878      	ldr	r0, [r7, #4]
 800432c:	f7ff ff94 	bl	8004258 <LL_RCC_GetUSARTClockSource>
 8004330:	4603      	mov	r3, r0
 8004332:	f1b3 1f03 	cmp.w	r3, #196611	@ 0x30003
 8004336:	d016      	beq.n	8004366 <LL_RCC_GetUSARTClockFreq+0x4e>
 8004338:	f1b3 1f03 	cmp.w	r3, #196611	@ 0x30003
 800433c:	d81c      	bhi.n	8004378 <LL_RCC_GetUSARTClockFreq+0x60>
 800433e:	4a51      	ldr	r2, [pc, #324]	@ (8004484 <LL_RCC_GetUSARTClockFreq+0x16c>)
 8004340:	4293      	cmp	r3, r2
 8004342:	d003      	beq.n	800434c <LL_RCC_GetUSARTClockFreq+0x34>
 8004344:	4a50      	ldr	r2, [pc, #320]	@ (8004488 <LL_RCC_GetUSARTClockFreq+0x170>)
 8004346:	4293      	cmp	r3, r2
 8004348:	d004      	beq.n	8004354 <LL_RCC_GetUSARTClockFreq+0x3c>
 800434a:	e015      	b.n	8004378 <LL_RCC_GetUSARTClockFreq+0x60>
    {
      case LL_RCC_USART1_CLKSOURCE_SYSCLK: /* USART1 Clock is System Clock */
        usart_frequency = RCC_GetSystemClockFreq();
 800434c:	f000 f92e 	bl	80045ac <RCC_GetSystemClockFreq>
 8004350:	60f8      	str	r0, [r7, #12]
        break;
 8004352:	e092      	b.n	800447a <LL_RCC_GetUSARTClockFreq+0x162>

      case LL_RCC_USART1_CLKSOURCE_HSI:    /* USART1 Clock is HSI Osc. */
        if (LL_RCC_HSI_IsReady() != 0U)
 8004354:	f7ff ff20 	bl	8004198 <LL_RCC_HSI_IsReady>
 8004358:	4603      	mov	r3, r0
 800435a:	2b00      	cmp	r3, #0
 800435c:	f000 8082 	beq.w	8004464 <LL_RCC_GetUSARTClockFreq+0x14c>
        {
          usart_frequency = HSI_VALUE;
 8004360:	4b4a      	ldr	r3, [pc, #296]	@ (800448c <LL_RCC_GetUSARTClockFreq+0x174>)
 8004362:	60fb      	str	r3, [r7, #12]
        }
        break;
 8004364:	e07e      	b.n	8004464 <LL_RCC_GetUSARTClockFreq+0x14c>

      case LL_RCC_USART1_CLKSOURCE_LSE:    /* USART1 Clock is LSE Osc. */
        if (LL_RCC_LSE_IsReady() != 0U)
 8004366:	f7ff ff2b 	bl	80041c0 <LL_RCC_LSE_IsReady>
 800436a:	4603      	mov	r3, r0
 800436c:	2b00      	cmp	r3, #0
 800436e:	d07b      	beq.n	8004468 <LL_RCC_GetUSARTClockFreq+0x150>
        {
          usart_frequency = LSE_VALUE;
 8004370:	f44f 4300 	mov.w	r3, #32768	@ 0x8000
 8004374:	60fb      	str	r3, [r7, #12]
        }
        break;
 8004376:	e077      	b.n	8004468 <LL_RCC_GetUSARTClockFreq+0x150>

      case LL_RCC_USART1_CLKSOURCE_PCLK2:  /* USART1 Clock is PCLK2 */
      default:
        usart_frequency = RCC_GetPCLK2ClockFreq(RCC_GetHCLKClockFreq(RCC_GetSystemClockFreq()));
 8004378:	f000 f918 	bl	80045ac <RCC_GetSystemClockFreq>
 800437c:	4603      	mov	r3, r0
 800437e:	4618      	mov	r0, r3
 8004380:	f000 f93a 	bl	80045f8 <RCC_GetHCLKClockFreq>
 8004384:	4603      	mov	r3, r0
 8004386:	4618      	mov	r0, r3
 8004388:	f000 f964 	bl	8004654 <RCC_GetPCLK2ClockFreq>
 800438c:	60f8      	str	r0, [r7, #12]
        break;
 800438e:	e074      	b.n	800447a <LL_RCC_GetUSARTClockFreq+0x162>
    }
  }
  else if (USARTxSource == LL_RCC_USART2_CLKSOURCE)
 8004390:	687b      	ldr	r3, [r7, #4]
 8004392:	2b0c      	cmp	r3, #12
 8004394:	d131      	bne.n	80043fa <LL_RCC_GetUSARTClockFreq+0xe2>
  {
    /* USART2CLK clock frequency */
    switch (LL_RCC_GetUSARTClockSource(USARTxSource))
 8004396:	6878      	ldr	r0, [r7, #4]
 8004398:	f7ff ff5e 	bl	8004258 <LL_RCC_GetUSARTClockSource>
 800439c:	4603      	mov	r3, r0
 800439e:	f1b3 1f0c 	cmp.w	r3, #786444	@ 0xc000c
 80043a2:	d015      	beq.n	80043d0 <LL_RCC_GetUSARTClockFreq+0xb8>
 80043a4:	f1b3 1f0c 	cmp.w	r3, #786444	@ 0xc000c
 80043a8:	d81b      	bhi.n	80043e2 <LL_RCC_GetUSARTClockFreq+0xca>
 80043aa:	4a39      	ldr	r2, [pc, #228]	@ (8004490 <LL_RCC_GetUSARTClockFreq+0x178>)
 80043ac:	4293      	cmp	r3, r2
 80043ae:	d003      	beq.n	80043b8 <LL_RCC_GetUSARTClockFreq+0xa0>
 80043b0:	4a38      	ldr	r2, [pc, #224]	@ (8004494 <LL_RCC_GetUSARTClockFreq+0x17c>)
 80043b2:	4293      	cmp	r3, r2
 80043b4:	d004      	beq.n	80043c0 <LL_RCC_GetUSARTClockFreq+0xa8>
 80043b6:	e014      	b.n	80043e2 <LL_RCC_GetUSARTClockFreq+0xca>
    {
      case LL_RCC_USART2_CLKSOURCE_SYSCLK: /* USART2 Clock is System Clock */
        usart_frequency = RCC_GetSystemClockFreq();
 80043b8:	f000 f8f8 	bl	80045ac <RCC_GetSystemClockFreq>
 80043bc:	60f8      	str	r0, [r7, #12]
        break;
 80043be:	e05c      	b.n	800447a <LL_RCC_GetUSARTClockFreq+0x162>

      case LL_RCC_USART2_CLKSOURCE_HSI:    /* USART2 Clock is HSI Osc. */
        if (LL_RCC_HSI_IsReady() != 0U)
 80043c0:	f7ff feea 	bl	8004198 <LL_RCC_HSI_IsReady>
 80043c4:	4603      	mov	r3, r0
 80043c6:	2b00      	cmp	r3, #0
 80043c8:	d050      	beq.n	800446c <LL_RCC_GetUSARTClockFreq+0x154>
        {
          usart_frequency = HSI_VALUE;
 80043ca:	4b30      	ldr	r3, [pc, #192]	@ (800448c <LL_RCC_GetUSARTClockFreq+0x174>)
 80043cc:	60fb      	str	r3, [r7, #12]
        }
        break;
 80043ce:	e04d      	b.n	800446c <LL_RCC_GetUSARTClockFreq+0x154>

      case LL_RCC_USART2_CLKSOURCE_LSE:    /* USART2 Clock is LSE Osc. */
        if (LL_RCC_LSE_IsReady() != 0U)
 80043d0:	f7ff fef6 	bl	80041c0 <LL_RCC_LSE_IsReady>
 80043d4:	4603      	mov	r3, r0
 80043d6:	2b00      	cmp	r3, #0
 80043d8:	d04a      	beq.n	8004470 <LL_RCC_GetUSARTClockFreq+0x158>
        {
          usart_frequency = LSE_VALUE;
 80043da:	f44f 4300 	mov.w	r3, #32768	@ 0x8000
 80043de:	60fb      	str	r3, [r7, #12]
        }
        break;
 80043e0:	e046      	b.n	8004470 <LL_RCC_GetUSARTClockFreq+0x158>

      case LL_RCC_USART2_CLKSOURCE_PCLK1:  /* USART2 Clock is PCLK1 */
      default:
        usart_frequency = RCC_GetPCLK1ClockFreq(RCC_GetHCLKClockFreq(RCC_GetSystemClockFreq()));
 80043e2:	f000 f8e3 	bl	80045ac <RCC_GetSystemClockFreq>
 80043e6:	4603      	mov	r3, r0
 80043e8:	4618      	mov	r0, r3
 80043ea:	f000 f905 	bl	80045f8 <RCC_GetHCLKClockFreq>
 80043ee:	4603      	mov	r3, r0
 80043f0:	4618      	mov	r0, r3
 80043f2:	f000 f919 	bl	8004628 <RCC_GetPCLK1ClockFreq>
 80043f6:	60f8      	str	r0, [r7, #12]
        break;
 80043f8:	e03f      	b.n	800447a <LL_RCC_GetUSARTClockFreq+0x162>
    }
  }
  else
  {
#if defined(RCC_CCIPR_USART3SEL)
    if (USARTxSource == LL_RCC_USART3_CLKSOURCE)
 80043fa:	687b      	ldr	r3, [r7, #4]
 80043fc:	2b30      	cmp	r3, #48	@ 0x30
 80043fe:	d13c      	bne.n	800447a <LL_RCC_GetUSARTClockFreq+0x162>
    {
      /* USART3CLK clock frequency */
      switch (LL_RCC_GetUSARTClockSource(USARTxSource))
 8004400:	6878      	ldr	r0, [r7, #4]
 8004402:	f7ff ff29 	bl	8004258 <LL_RCC_GetUSARTClockSource>
 8004406:	4603      	mov	r3, r0
 8004408:	f1b3 1f30 	cmp.w	r3, #3145776	@ 0x300030
 800440c:	d015      	beq.n	800443a <LL_RCC_GetUSARTClockFreq+0x122>
 800440e:	f1b3 1f30 	cmp.w	r3, #3145776	@ 0x300030
 8004412:	d81b      	bhi.n	800444c <LL_RCC_GetUSARTClockFreq+0x134>
 8004414:	4a20      	ldr	r2, [pc, #128]	@ (8004498 <LL_RCC_GetUSARTClockFreq+0x180>)
 8004416:	4293      	cmp	r3, r2
 8004418:	d003      	beq.n	8004422 <LL_RCC_GetUSARTClockFreq+0x10a>
 800441a:	4a20      	ldr	r2, [pc, #128]	@ (800449c <LL_RCC_GetUSARTClockFreq+0x184>)
 800441c:	4293      	cmp	r3, r2
 800441e:	d004      	beq.n	800442a <LL_RCC_GetUSARTClockFreq+0x112>
 8004420:	e014      	b.n	800444c <LL_RCC_GetUSARTClockFreq+0x134>
      {
        case LL_RCC_USART3_CLKSOURCE_SYSCLK: /* USART3 Clock is System Clock */
          usart_frequency = RCC_GetSystemClockFreq();
 8004422:	f000 f8c3 	bl	80045ac <RCC_GetSystemClockFreq>
 8004426:	60f8      	str	r0, [r7, #12]
          break;
 8004428:	e027      	b.n	800447a <LL_RCC_GetUSARTClockFreq+0x162>

        case LL_RCC_USART3_CLKSOURCE_HSI:    /* USART3 Clock is HSI Osc. */
          if (LL_RCC_HSI_IsReady() != 0U)
 800442a:	f7ff feb5 	bl	8004198 <LL_RCC_HSI_IsReady>
 800442e:	4603      	mov	r3, r0
 8004430:	2b00      	cmp	r3, #0
 8004432:	d01f      	beq.n	8004474 <LL_RCC_GetUSARTClockFreq+0x15c>
          {
            usart_frequency = HSI_VALUE;
 8004434:	4b15      	ldr	r3, [pc, #84]	@ (800448c <LL_RCC_GetUSARTClockFreq+0x174>)
 8004436:	60fb      	str	r3, [r7, #12]
          }
          break;
 8004438:	e01c      	b.n	8004474 <LL_RCC_GetUSARTClockFreq+0x15c>

        case LL_RCC_USART3_CLKSOURCE_LSE:    /* USART3 Clock is LSE Osc. */
          if (LL_RCC_LSE_IsReady() != 0U)
 800443a:	f7ff fec1 	bl	80041c0 <LL_RCC_LSE_IsReady>
 800443e:	4603      	mov	r3, r0
 8004440:	2b00      	cmp	r3, #0
 8004442:	d019      	beq.n	8004478 <LL_RCC_GetUSARTClockFreq+0x160>
          {
            usart_frequency = LSE_VALUE;
 8004444:	f44f 4300 	mov.w	r3, #32768	@ 0x8000
 8004448:	60fb      	str	r3, [r7, #12]
          }
          break;
 800444a:	e015      	b.n	8004478 <LL_RCC_GetUSARTClockFreq+0x160>

        case LL_RCC_USART3_CLKSOURCE_PCLK1:  /* USART3 Clock is PCLK1 */
        default:
          usart_frequency = RCC_GetPCLK1ClockFreq(RCC_GetHCLKClockFreq(RCC_GetSystemClockFreq()));
 800444c:	f000 f8ae 	bl	80045ac <RCC_GetSystemClockFreq>
 8004450:	4603      	mov	r3, r0
 8004452:	4618      	mov	r0, r3
 8004454:	f000 f8d0 	bl	80045f8 <RCC_GetHCLKClockFreq>
 8004458:	4603      	mov	r3, r0
 800445a:	4618      	mov	r0, r3
 800445c:	f000 f8e4 	bl	8004628 <RCC_GetPCLK1ClockFreq>
 8004460:	60f8      	str	r0, [r7, #12]
          break;
 8004462:	e00a      	b.n	800447a <LL_RCC_GetUSARTClockFreq+0x162>
        break;
 8004464:	bf00      	nop
 8004466:	e008      	b.n	800447a <LL_RCC_GetUSARTClockFreq+0x162>
        break;
 8004468:	bf00      	nop
 800446a:	e006      	b.n	800447a <LL_RCC_GetUSARTClockFreq+0x162>
        break;
 800446c:	bf00      	nop
 800446e:	e004      	b.n	800447a <LL_RCC_GetUSARTClockFreq+0x162>
        break;
 8004470:	bf00      	nop
 8004472:	e002      	b.n	800447a <LL_RCC_GetUSARTClockFreq+0x162>
          break;
 8004474:	bf00      	nop
 8004476:	e000      	b.n	800447a <LL_RCC_GetUSARTClockFreq+0x162>
          break;
 8004478:	bf00      	nop
      }
    }
#endif /* RCC_CCIPR_USART3SEL */
  }
  return usart_frequency;
 800447a:	68fb      	ldr	r3, [r7, #12]
}
 800447c:	4618      	mov	r0, r3
 800447e:	3710      	adds	r7, #16
 8004480:	46bd      	mov	sp, r7
 8004482:	bd80      	pop	{r7, pc}
 8004484:	00030001 	.word	0x00030001
 8004488:	00030002 	.word	0x00030002
 800448c:	00f42400 	.word	0x00f42400
 8004490:	000c0004 	.word	0x000c0004
 8004494:	000c0008 	.word	0x000c0008
 8004498:	00300010 	.word	0x00300010
 800449c:	00300020 	.word	0x00300020

080044a0 <LL_RCC_GetUARTClockFreq>:
  *         (*) value not defined in all devices.
  * @retval UART clock frequency (in Hz)
  *         - @ref  LL_RCC_PERIPH_FREQUENCY_NO indicates that oscillator (HSI or LSE) is not ready
  */
uint32_t LL_RCC_GetUARTClockFreq(uint32_t UARTxSource)
{
 80044a0:	b580      	push	{r7, lr}
 80044a2:	b084      	sub	sp, #16
 80044a4:	af00      	add	r7, sp, #0
 80044a6:	6078      	str	r0, [r7, #4]
  uint32_t uart_frequency = LL_RCC_PERIPH_FREQUENCY_NO;
 80044a8:	2300      	movs	r3, #0
 80044aa:	60fb      	str	r3, [r7, #12]

  /* Check parameter */
  assert_param(IS_LL_RCC_UART_CLKSOURCE(UARTxSource));

  if (UARTxSource == LL_RCC_UART4_CLKSOURCE)
 80044ac:	687b      	ldr	r3, [r7, #4]
 80044ae:	2bc0      	cmp	r3, #192	@ 0xc0
 80044b0:	d134      	bne.n	800451c <LL_RCC_GetUARTClockFreq+0x7c>
  {
    /* UART4CLK clock frequency */
    switch (LL_RCC_GetUARTClockSource(UARTxSource))
 80044b2:	6878      	ldr	r0, [r7, #4]
 80044b4:	f7ff fee4 	bl	8004280 <LL_RCC_GetUARTClockSource>
 80044b8:	4603      	mov	r3, r0
 80044ba:	f1b3 1fc0 	cmp.w	r3, #12583104	@ 0xc000c0
 80044be:	d015      	beq.n	80044ec <LL_RCC_GetUARTClockFreq+0x4c>
 80044c0:	f1b3 1fc0 	cmp.w	r3, #12583104	@ 0xc000c0
 80044c4:	d81b      	bhi.n	80044fe <LL_RCC_GetUARTClockFreq+0x5e>
 80044c6:	4a34      	ldr	r2, [pc, #208]	@ (8004598 <LL_RCC_GetUARTClockFreq+0xf8>)
 80044c8:	4293      	cmp	r3, r2
 80044ca:	d003      	beq.n	80044d4 <LL_RCC_GetUARTClockFreq+0x34>
 80044cc:	4a33      	ldr	r2, [pc, #204]	@ (800459c <LL_RCC_GetUARTClockFreq+0xfc>)
 80044ce:	4293      	cmp	r3, r2
 80044d0:	d004      	beq.n	80044dc <LL_RCC_GetUARTClockFreq+0x3c>
 80044d2:	e014      	b.n	80044fe <LL_RCC_GetUARTClockFreq+0x5e>
    {
      case LL_RCC_UART4_CLKSOURCE_SYSCLK: /* UART4 Clock is System Clock */
        uart_frequency = RCC_GetSystemClockFreq();
 80044d4:	f000 f86a 	bl	80045ac <RCC_GetSystemClockFreq>
 80044d8:	60f8      	str	r0, [r7, #12]
        break;
 80044da:	e01f      	b.n	800451c <LL_RCC_GetUARTClockFreq+0x7c>

      case LL_RCC_UART4_CLKSOURCE_HSI:    /* UART4 Clock is HSI Osc. */
        if (LL_RCC_HSI_IsReady() != 0U)
 80044dc:	f7ff fe5c 	bl	8004198 <LL_RCC_HSI_IsReady>
 80044e0:	4603      	mov	r3, r0
 80044e2:	2b00      	cmp	r3, #0
 80044e4:	d017      	beq.n	8004516 <LL_RCC_GetUARTClockFreq+0x76>
        {
          uart_frequency = HSI_VALUE;
 80044e6:	4b2e      	ldr	r3, [pc, #184]	@ (80045a0 <LL_RCC_GetUARTClockFreq+0x100>)
 80044e8:	60fb      	str	r3, [r7, #12]
        }
        break;
 80044ea:	e014      	b.n	8004516 <LL_RCC_GetUARTClockFreq+0x76>

      case LL_RCC_UART4_CLKSOURCE_LSE:    /* UART4 Clock is LSE Osc. */
        if (LL_RCC_LSE_IsReady() != 0U)
 80044ec:	f7ff fe68 	bl	80041c0 <LL_RCC_LSE_IsReady>
 80044f0:	4603      	mov	r3, r0
 80044f2:	2b00      	cmp	r3, #0
 80044f4:	d011      	beq.n	800451a <LL_RCC_GetUARTClockFreq+0x7a>
        {
          uart_frequency = LSE_VALUE;
 80044f6:	f44f 4300 	mov.w	r3, #32768	@ 0x8000
 80044fa:	60fb      	str	r3, [r7, #12]
        }
        break;
 80044fc:	e00d      	b.n	800451a <LL_RCC_GetUARTClockFreq+0x7a>

      case LL_RCC_UART4_CLKSOURCE_PCLK1:  /* UART4 Clock is PCLK1 */
      default:
        uart_frequency = RCC_GetPCLK1ClockFreq(RCC_GetHCLKClockFreq(RCC_GetSystemClockFreq()));
 80044fe:	f000 f855 	bl	80045ac <RCC_GetSystemClockFreq>
 8004502:	4603      	mov	r3, r0
 8004504:	4618      	mov	r0, r3
 8004506:	f000 f877 	bl	80045f8 <RCC_GetHCLKClockFreq>
 800450a:	4603      	mov	r3, r0
 800450c:	4618      	mov	r0, r3
 800450e:	f000 f88b 	bl	8004628 <RCC_GetPCLK1ClockFreq>
 8004512:	60f8      	str	r0, [r7, #12]
        break;
 8004514:	e002      	b.n	800451c <LL_RCC_GetUARTClockFreq+0x7c>
        break;
 8004516:	bf00      	nop
 8004518:	e000      	b.n	800451c <LL_RCC_GetUARTClockFreq+0x7c>
        break;
 800451a:	bf00      	nop
    }
  }

#if defined(RCC_CCIPR_UART5SEL)
  if (UARTxSource == LL_RCC_UART5_CLKSOURCE)
 800451c:	687b      	ldr	r3, [r7, #4]
 800451e:	f5b3 7f40 	cmp.w	r3, #768	@ 0x300
 8004522:	d134      	bne.n	800458e <LL_RCC_GetUARTClockFreq+0xee>
  {
    /* UART5CLK clock frequency */
    switch (LL_RCC_GetUARTClockSource(UARTxSource))
 8004524:	6878      	ldr	r0, [r7, #4]
 8004526:	f7ff feab 	bl	8004280 <LL_RCC_GetUARTClockSource>
 800452a:	4603      	mov	r3, r0
 800452c:	f1b3 2f03 	cmp.w	r3, #50332416	@ 0x3000300
 8004530:	d015      	beq.n	800455e <LL_RCC_GetUARTClockFreq+0xbe>
 8004532:	f1b3 2f03 	cmp.w	r3, #50332416	@ 0x3000300
 8004536:	d81b      	bhi.n	8004570 <LL_RCC_GetUARTClockFreq+0xd0>
 8004538:	4a1a      	ldr	r2, [pc, #104]	@ (80045a4 <LL_RCC_GetUARTClockFreq+0x104>)
 800453a:	4293      	cmp	r3, r2
 800453c:	d003      	beq.n	8004546 <LL_RCC_GetUARTClockFreq+0xa6>
 800453e:	4a1a      	ldr	r2, [pc, #104]	@ (80045a8 <LL_RCC_GetUARTClockFreq+0x108>)
 8004540:	4293      	cmp	r3, r2
 8004542:	d004      	beq.n	800454e <LL_RCC_GetUARTClockFreq+0xae>
 8004544:	e014      	b.n	8004570 <LL_RCC_GetUARTClockFreq+0xd0>
    {
      case LL_RCC_UART5_CLKSOURCE_SYSCLK: /* UART5 Clock is System Clock */
        uart_frequency = RCC_GetSystemClockFreq();
 8004546:	f000 f831 	bl	80045ac <RCC_GetSystemClockFreq>
 800454a:	60f8      	str	r0, [r7, #12]
        break;
 800454c:	e01f      	b.n	800458e <LL_RCC_GetUARTClockFreq+0xee>

      case LL_RCC_UART5_CLKSOURCE_HSI:    /* UART5 Clock is HSI Osc. */
        if (LL_RCC_HSI_IsReady() != 0U)
 800454e:	f7ff fe23 	bl	8004198 <LL_RCC_HSI_IsReady>
 8004552:	4603      	mov	r3, r0
 8004554:	2b00      	cmp	r3, #0
 8004556:	d017      	beq.n	8004588 <LL_RCC_GetUARTClockFreq+0xe8>
        {
          uart_frequency = HSI_VALUE;
 8004558:	4b11      	ldr	r3, [pc, #68]	@ (80045a0 <LL_RCC_GetUARTClockFreq+0x100>)
 800455a:	60fb      	str	r3, [r7, #12]
        }
        break;
 800455c:	e014      	b.n	8004588 <LL_RCC_GetUARTClockFreq+0xe8>

      case LL_RCC_UART5_CLKSOURCE_LSE:    /* UART5 Clock is LSE Osc. */
        if (LL_RCC_LSE_IsReady() != 0U)
 800455e:	f7ff fe2f 	bl	80041c0 <LL_RCC_LSE_IsReady>
 8004562:	4603      	mov	r3, r0
 8004564:	2b00      	cmp	r3, #0
 8004566:	d011      	beq.n	800458c <LL_RCC_GetUARTClockFreq+0xec>
        {
          uart_frequency = LSE_VALUE;
 8004568:	f44f 4300 	mov.w	r3, #32768	@ 0x8000
 800456c:	60fb      	str	r3, [r7, #12]
        }
        break;
 800456e:	e00d      	b.n	800458c <LL_RCC_GetUARTClockFreq+0xec>

      case LL_RCC_UART5_CLKSOURCE_PCLK1:  /* UART5 Clock is PCLK1 */
      default:
        uart_frequency = RCC_GetPCLK1ClockFreq(RCC_GetHCLKClockFreq(RCC_GetSystemClockFreq()));
 8004570:	f000 f81c 	bl	80045ac <RCC_GetSystemClockFreq>
 8004574:	4603      	mov	r3, r0
 8004576:	4618      	mov	r0, r3
 8004578:	f000 f83e 	bl	80045f8 <RCC_GetHCLKClockFreq>
 800457c:	4603      	mov	r3, r0
 800457e:	4618      	mov	r0, r3
 8004580:	f000 f852 	bl	8004628 <RCC_GetPCLK1ClockFreq>
 8004584:	60f8      	str	r0, [r7, #12]
        break;
 8004586:	e002      	b.n	800458e <LL_RCC_GetUARTClockFreq+0xee>
        break;
 8004588:	bf00      	nop
 800458a:	e000      	b.n	800458e <LL_RCC_GetUARTClockFreq+0xee>
        break;
 800458c:	bf00      	nop
    }
  }
#endif /* RCC_CCIPR_UART5SEL */

  return uart_frequency;
 800458e:	68fb      	ldr	r3, [r7, #12]
}
 8004590:	4618      	mov	r0, r3
 8004592:	3710      	adds	r7, #16
 8004594:	46bd      	mov	sp, r7
 8004596:	bd80      	pop	{r7, pc}
 8004598:	00c00040 	.word	0x00c00040
 800459c:	00c00080 	.word	0x00c00080
 80045a0:	00f42400 	.word	0x00f42400
 80045a4:	03000100 	.word	0x03000100
 80045a8:	03000200 	.word	0x03000200

080045ac <RCC_GetSystemClockFreq>:
/**
  * @brief  Return SYSTEM clock frequency
  * @retval SYSTEM clock frequency (in Hz)
  */
static uint32_t RCC_GetSystemClockFreq(void)
{
 80045ac:	b580      	push	{r7, lr}
 80045ae:	b082      	sub	sp, #8
 80045b0:	af00      	add	r7, sp, #0
  uint32_t frequency;

  /* Get SYSCLK source -------------------------------------------------------*/
  switch (LL_RCC_GetSysClkSource())
 80045b2:	f7ff fe19 	bl	80041e8 <LL_RCC_GetSysClkSource>
 80045b6:	4603      	mov	r3, r0
 80045b8:	2b0c      	cmp	r3, #12
 80045ba:	d00c      	beq.n	80045d6 <RCC_GetSystemClockFreq+0x2a>
 80045bc:	2b0c      	cmp	r3, #12
 80045be:	d80e      	bhi.n	80045de <RCC_GetSystemClockFreq+0x32>
 80045c0:	2b04      	cmp	r3, #4
 80045c2:	d002      	beq.n	80045ca <RCC_GetSystemClockFreq+0x1e>
 80045c4:	2b08      	cmp	r3, #8
 80045c6:	d003      	beq.n	80045d0 <RCC_GetSystemClockFreq+0x24>
 80045c8:	e009      	b.n	80045de <RCC_GetSystemClockFreq+0x32>
  {
    case LL_RCC_SYS_CLKSOURCE_STATUS_HSI:  /* HSI used as system clock  source */
      frequency = HSI_VALUE;
 80045ca:	4b09      	ldr	r3, [pc, #36]	@ (80045f0 <RCC_GetSystemClockFreq+0x44>)
 80045cc:	607b      	str	r3, [r7, #4]
      break;
 80045ce:	e009      	b.n	80045e4 <RCC_GetSystemClockFreq+0x38>

    case LL_RCC_SYS_CLKSOURCE_STATUS_HSE:  /* HSE used as system clock  source */
      frequency = HSE_VALUE;
 80045d0:	4b08      	ldr	r3, [pc, #32]	@ (80045f4 <RCC_GetSystemClockFreq+0x48>)
 80045d2:	607b      	str	r3, [r7, #4]
      break;
 80045d4:	e006      	b.n	80045e4 <RCC_GetSystemClockFreq+0x38>

    case LL_RCC_SYS_CLKSOURCE_STATUS_PLL:  /* PLL used as system clock  source */
      frequency = RCC_PLL_GetFreqDomain_SYS();
 80045d6:	f000 f853 	bl	8004680 <RCC_PLL_GetFreqDomain_SYS>
 80045da:	6078      	str	r0, [r7, #4]
      break;
 80045dc:	e002      	b.n	80045e4 <RCC_GetSystemClockFreq+0x38>

    default:
      frequency = HSI_VALUE;
 80045de:	4b04      	ldr	r3, [pc, #16]	@ (80045f0 <RCC_GetSystemClockFreq+0x44>)
 80045e0:	607b      	str	r3, [r7, #4]
      break;
 80045e2:	bf00      	nop
  }

  return frequency;
 80045e4:	687b      	ldr	r3, [r7, #4]
}
 80045e6:	4618      	mov	r0, r3
 80045e8:	3708      	adds	r7, #8
 80045ea:	46bd      	mov	sp, r7
 80045ec:	bd80      	pop	{r7, pc}
 80045ee:	bf00      	nop
 80045f0:	00f42400 	.word	0x00f42400
 80045f4:	02dc6c00 	.word	0x02dc6c00

080045f8 <RCC_GetHCLKClockFreq>:
  * @brief  Return HCLK clock frequency
  * @param  SYSCLK_Frequency SYSCLK clock frequency
  * @retval HCLK clock frequency (in Hz)
  */
static uint32_t RCC_GetHCLKClockFreq(uint32_t SYSCLK_Frequency)
{
 80045f8:	b580      	push	{r7, lr}
 80045fa:	b082      	sub	sp, #8
 80045fc:	af00      	add	r7, sp, #0
 80045fe:	6078      	str	r0, [r7, #4]
  /* HCLK clock frequency */
  return __LL_RCC_CALC_HCLK_FREQ(SYSCLK_Frequency, LL_RCC_GetAHBPrescaler());
 8004600:	f7ff fe00 	bl	8004204 <LL_RCC_GetAHBPrescaler>
 8004604:	4603      	mov	r3, r0
 8004606:	091b      	lsrs	r3, r3, #4
 8004608:	f003 030f 	and.w	r3, r3, #15
 800460c:	4a05      	ldr	r2, [pc, #20]	@ (8004624 <RCC_GetHCLKClockFreq+0x2c>)
 800460e:	5cd3      	ldrb	r3, [r2, r3]
 8004610:	f003 031f 	and.w	r3, r3, #31
 8004614:	687a      	ldr	r2, [r7, #4]
 8004616:	fa22 f303 	lsr.w	r3, r2, r3
}
 800461a:	4618      	mov	r0, r3
 800461c:	3708      	adds	r7, #8
 800461e:	46bd      	mov	sp, r7
 8004620:	bd80      	pop	{r7, pc}
 8004622:	bf00      	nop
 8004624:	08007288 	.word	0x08007288

08004628 <RCC_GetPCLK1ClockFreq>:
  * @brief  Return PCLK1 clock frequency
  * @param  HCLK_Frequency HCLK clock frequency
  * @retval PCLK1 clock frequency (in Hz)
  */
static uint32_t RCC_GetPCLK1ClockFreq(uint32_t HCLK_Frequency)
{
 8004628:	b580      	push	{r7, lr}
 800462a:	b082      	sub	sp, #8
 800462c:	af00      	add	r7, sp, #0
 800462e:	6078      	str	r0, [r7, #4]
  /* PCLK1 clock frequency */
  return __LL_RCC_CALC_PCLK1_FREQ(HCLK_Frequency, LL_RCC_GetAPB1Prescaler());
 8004630:	f7ff fdf6 	bl	8004220 <LL_RCC_GetAPB1Prescaler>
 8004634:	4603      	mov	r3, r0
 8004636:	0a1b      	lsrs	r3, r3, #8
 8004638:	4a05      	ldr	r2, [pc, #20]	@ (8004650 <RCC_GetPCLK1ClockFreq+0x28>)
 800463a:	5cd3      	ldrb	r3, [r2, r3]
 800463c:	f003 031f 	and.w	r3, r3, #31
 8004640:	687a      	ldr	r2, [r7, #4]
 8004642:	fa22 f303 	lsr.w	r3, r2, r3
}
 8004646:	4618      	mov	r0, r3
 8004648:	3708      	adds	r7, #8
 800464a:	46bd      	mov	sp, r7
 800464c:	bd80      	pop	{r7, pc}
 800464e:	bf00      	nop
 8004650:	08007298 	.word	0x08007298

08004654 <RCC_GetPCLK2ClockFreq>:
  * @brief  Return PCLK2 clock frequency
  * @param  HCLK_Frequency HCLK clock frequency
  * @retval PCLK2 clock frequency (in Hz)
  */
static uint32_t RCC_GetPCLK2ClockFreq(uint32_t HCLK_Frequency)
{
 8004654:	b580      	push	{r7, lr}
 8004656:	b082      	sub	sp, #8
 8004658:	af00      	add	r7, sp, #0
 800465a:	6078      	str	r0, [r7, #4]
  /* PCLK2 clock frequency */
  return __LL_RCC_CALC_PCLK2_FREQ(HCLK_Frequency, LL_RCC_GetAPB2Prescaler());
 800465c:	f7ff fdee 	bl	800423c <LL_RCC_GetAPB2Prescaler>
 8004660:	4603      	mov	r3, r0
 8004662:	0adb      	lsrs	r3, r3, #11
 8004664:	4a05      	ldr	r2, [pc, #20]	@ (800467c <RCC_GetPCLK2ClockFreq+0x28>)
 8004666:	5cd3      	ldrb	r3, [r2, r3]
 8004668:	f003 031f 	and.w	r3, r3, #31
 800466c:	687a      	ldr	r2, [r7, #4]
 800466e:	fa22 f303 	lsr.w	r3, r2, r3
}
 8004672:	4618      	mov	r0, r3
 8004674:	3708      	adds	r7, #8
 8004676:	46bd      	mov	sp, r7
 8004678:	bd80      	pop	{r7, pc}
 800467a:	bf00      	nop
 800467c:	08007298 	.word	0x08007298

08004680 <RCC_PLL_GetFreqDomain_SYS>:
/**
  * @brief  Return PLL clock frequency used for system domain
  * @retval PLL clock frequency (in Hz)
  */
static uint32_t RCC_PLL_GetFreqDomain_SYS(void)
{
 8004680:	b590      	push	{r4, r7, lr}
 8004682:	b083      	sub	sp, #12
 8004684:	af00      	add	r7, sp, #0
  uint32_t pllinputfreq, pllsource;

  /* PLL_VCO = (HSE_VALUE or HSI_VALUE / PLLM) * PLLN
     SYSCLK = PLL_VCO / PLLR
  */
  pllsource = LL_RCC_PLL_GetMainSource();
 8004686:	f7ff fe0f 	bl	80042a8 <LL_RCC_PLL_GetMainSource>
 800468a:	6038      	str	r0, [r7, #0]

  switch (pllsource)
 800468c:	683b      	ldr	r3, [r7, #0]
 800468e:	2b02      	cmp	r3, #2
 8004690:	d003      	beq.n	800469a <RCC_PLL_GetFreqDomain_SYS+0x1a>
 8004692:	683b      	ldr	r3, [r7, #0]
 8004694:	2b03      	cmp	r3, #3
 8004696:	d003      	beq.n	80046a0 <RCC_PLL_GetFreqDomain_SYS+0x20>
 8004698:	e005      	b.n	80046a6 <RCC_PLL_GetFreqDomain_SYS+0x26>
  {
    case LL_RCC_PLLSOURCE_HSI:  /* HSI used as PLL clock source */
      pllinputfreq = HSI_VALUE;
 800469a:	4b11      	ldr	r3, [pc, #68]	@ (80046e0 <RCC_PLL_GetFreqDomain_SYS+0x60>)
 800469c:	607b      	str	r3, [r7, #4]
      break;
 800469e:	e005      	b.n	80046ac <RCC_PLL_GetFreqDomain_SYS+0x2c>

    case LL_RCC_PLLSOURCE_HSE:  /* HSE used as PLL clock source */
      pllinputfreq = HSE_VALUE;
 80046a0:	4b10      	ldr	r3, [pc, #64]	@ (80046e4 <RCC_PLL_GetFreqDomain_SYS+0x64>)
 80046a2:	607b      	str	r3, [r7, #4]
      break;
 80046a4:	e002      	b.n	80046ac <RCC_PLL_GetFreqDomain_SYS+0x2c>

    default:
      pllinputfreq = HSI_VALUE;
 80046a6:	4b0e      	ldr	r3, [pc, #56]	@ (80046e0 <RCC_PLL_GetFreqDomain_SYS+0x60>)
 80046a8:	607b      	str	r3, [r7, #4]
      break;
 80046aa:	bf00      	nop
  }
  return __LL_RCC_CALC_PLLCLK_FREQ(pllinputfreq, LL_RCC_PLL_GetDivider(),
 80046ac:	f7ff fe0a 	bl	80042c4 <LL_RCC_PLL_GetN>
 80046b0:	4602      	mov	r2, r0
 80046b2:	687b      	ldr	r3, [r7, #4]
 80046b4:	fb03 f402 	mul.w	r4, r3, r2
 80046b8:	f7ff fe20 	bl	80042fc <LL_RCC_PLL_GetDivider>
 80046bc:	4603      	mov	r3, r0
 80046be:	091b      	lsrs	r3, r3, #4
 80046c0:	3301      	adds	r3, #1
 80046c2:	fbb4 f4f3 	udiv	r4, r4, r3
 80046c6:	f7ff fe0b 	bl	80042e0 <LL_RCC_PLL_GetR>
 80046ca:	4603      	mov	r3, r0
 80046cc:	0e5b      	lsrs	r3, r3, #25
 80046ce:	3301      	adds	r3, #1
 80046d0:	005b      	lsls	r3, r3, #1
 80046d2:	fbb4 f3f3 	udiv	r3, r4, r3
                                   LL_RCC_PLL_GetN(), LL_RCC_PLL_GetR());
}
 80046d6:	4618      	mov	r0, r3
 80046d8:	370c      	adds	r7, #12
 80046da:	46bd      	mov	sp, r7
 80046dc:	bd90      	pop	{r4, r7, pc}
 80046de:	bf00      	nop
 80046e0:	00f42400 	.word	0x00f42400
 80046e4:	02dc6c00 	.word	0x02dc6c00

080046e8 <LL_TIM_SetPrescaler>:
{
 80046e8:	b480      	push	{r7}
 80046ea:	b083      	sub	sp, #12
 80046ec:	af00      	add	r7, sp, #0
 80046ee:	6078      	str	r0, [r7, #4]
 80046f0:	6039      	str	r1, [r7, #0]
  WRITE_REG(TIMx->PSC, Prescaler);
 80046f2:	687b      	ldr	r3, [r7, #4]
 80046f4:	683a      	ldr	r2, [r7, #0]
 80046f6:	629a      	str	r2, [r3, #40]	@ 0x28
}
 80046f8:	bf00      	nop
 80046fa:	370c      	adds	r7, #12
 80046fc:	46bd      	mov	sp, r7
 80046fe:	f85d 7b04 	ldr.w	r7, [sp], #4
 8004702:	4770      	bx	lr

08004704 <LL_TIM_SetAutoReload>:
{
 8004704:	b480      	push	{r7}
 8004706:	b083      	sub	sp, #12
 8004708:	af00      	add	r7, sp, #0
 800470a:	6078      	str	r0, [r7, #4]
 800470c:	6039      	str	r1, [r7, #0]
  WRITE_REG(TIMx->ARR, AutoReload);
 800470e:	687b      	ldr	r3, [r7, #4]
 8004710:	683a      	ldr	r2, [r7, #0]
 8004712:	62da      	str	r2, [r3, #44]	@ 0x2c
}
 8004714:	bf00      	nop
 8004716:	370c      	adds	r7, #12
 8004718:	46bd      	mov	sp, r7
 800471a:	f85d 7b04 	ldr.w	r7, [sp], #4
 800471e:	4770      	bx	lr

08004720 <LL_TIM_SetRepetitionCounter>:
{
 8004720:	b480      	push	{r7}
 8004722:	b083      	sub	sp, #12
 8004724:	af00      	add	r7, sp, #0
 8004726:	6078      	str	r0, [r7, #4]
 8004728:	6039      	str	r1, [r7, #0]
  WRITE_REG(TIMx->RCR, RepetitionCounter);
 800472a:	687b      	ldr	r3, [r7, #4]
 800472c:	683a      	ldr	r2, [r7, #0]
 800472e:	631a      	str	r2, [r3, #48]	@ 0x30
}
 8004730:	bf00      	nop
 8004732:	370c      	adds	r7, #12
 8004734:	46bd      	mov	sp, r7
 8004736:	f85d 7b04 	ldr.w	r7, [sp], #4
 800473a:	4770      	bx	lr

0800473c <LL_TIM_GenerateEvent_UPDATE>:
  * @rmtoll EGR          UG            LL_TIM_GenerateEvent_UPDATE
  * @param  TIMx Timer instance
  * @retval None
  */
__STATIC_INLINE void LL_TIM_GenerateEvent_UPDATE(TIM_TypeDef *TIMx)
{
 800473c:	b480      	push	{r7}
 800473e:	b083      	sub	sp, #12
 8004740:	af00      	add	r7, sp, #0
 8004742:	6078      	str	r0, [r7, #4]
  SET_BIT(TIMx->EGR, TIM_EGR_UG);
 8004744:	687b      	ldr	r3, [r7, #4]
 8004746:	695b      	ldr	r3, [r3, #20]
 8004748:	f043 0201 	orr.w	r2, r3, #1
 800474c:	687b      	ldr	r3, [r7, #4]
 800474e:	615a      	str	r2, [r3, #20]
}
 8004750:	bf00      	nop
 8004752:	370c      	adds	r7, #12
 8004754:	46bd      	mov	sp, r7
 8004756:	f85d 7b04 	ldr.w	r7, [sp], #4
 800475a:	4770      	bx	lr

0800475c <LL_TIM_Init>:
  * @retval An ErrorStatus enumeration value:
  *          - SUCCESS: TIMx registers are de-initialized
  *          - ERROR: not applicable
  */
ErrorStatus LL_TIM_Init(TIM_TypeDef *TIMx, const LL_TIM_InitTypeDef *TIM_InitStruct)
{
 800475c:	b580      	push	{r7, lr}
 800475e:	b084      	sub	sp, #16
 8004760:	af00      	add	r7, sp, #0
 8004762:	6078      	str	r0, [r7, #4]
 8004764:	6039      	str	r1, [r7, #0]
  /* Check the parameters */
  assert_param(IS_TIM_INSTANCE(TIMx));
  assert_param(IS_LL_TIM_COUNTERMODE(TIM_InitStruct->CounterMode));
  assert_param(IS_LL_TIM_CLOCKDIVISION(TIM_InitStruct->ClockDivision));

  tmpcr1 = LL_TIM_ReadReg(TIMx, CR1);
 8004766:	687b      	ldr	r3, [r7, #4]
 8004768:	681b      	ldr	r3, [r3, #0]
 800476a:	60fb      	str	r3, [r7, #12]

  if (IS_TIM_COUNTER_MODE_SELECT_INSTANCE(TIMx))
 800476c:	687b      	ldr	r3, [r7, #4]
 800476e:	4a43      	ldr	r2, [pc, #268]	@ (800487c <LL_TIM_Init+0x120>)
 8004770:	4293      	cmp	r3, r2
 8004772:	d017      	beq.n	80047a4 <LL_TIM_Init+0x48>
 8004774:	687b      	ldr	r3, [r7, #4]
 8004776:	f1b3 4f80 	cmp.w	r3, #1073741824	@ 0x40000000
 800477a:	d013      	beq.n	80047a4 <LL_TIM_Init+0x48>
 800477c:	687b      	ldr	r3, [r7, #4]
 800477e:	4a40      	ldr	r2, [pc, #256]	@ (8004880 <LL_TIM_Init+0x124>)
 8004780:	4293      	cmp	r3, r2
 8004782:	d00f      	beq.n	80047a4 <LL_TIM_Init+0x48>
 8004784:	687b      	ldr	r3, [r7, #4]
 8004786:	4a3f      	ldr	r2, [pc, #252]	@ (8004884 <LL_TIM_Init+0x128>)
 8004788:	4293      	cmp	r3, r2
 800478a:	d00b      	beq.n	80047a4 <LL_TIM_Init+0x48>
 800478c:	687b      	ldr	r3, [r7, #4]
 800478e:	4a3e      	ldr	r2, [pc, #248]	@ (8004888 <LL_TIM_Init+0x12c>)
 8004790:	4293      	cmp	r3, r2
 8004792:	d007      	beq.n	80047a4 <LL_TIM_Init+0x48>
 8004794:	687b      	ldr	r3, [r7, #4]
 8004796:	4a3d      	ldr	r2, [pc, #244]	@ (800488c <LL_TIM_Init+0x130>)
 8004798:	4293      	cmp	r3, r2
 800479a:	d003      	beq.n	80047a4 <LL_TIM_Init+0x48>
 800479c:	687b      	ldr	r3, [r7, #4]
 800479e:	4a3c      	ldr	r2, [pc, #240]	@ (8004890 <LL_TIM_Init+0x134>)
 80047a0:	4293      	cmp	r3, r2
 80047a2:	d106      	bne.n	80047b2 <LL_TIM_Init+0x56>
  {
    /* Select the Counter Mode */
    MODIFY_REG(tmpcr1, (TIM_CR1_DIR | TIM_CR1_CMS), TIM_InitStruct->CounterMode);
 80047a4:	68fb      	ldr	r3, [r7, #12]
 80047a6:	f023 0270 	bic.w	r2, r3, #112	@ 0x70
 80047aa:	683b      	ldr	r3, [r7, #0]
 80047ac:	685b      	ldr	r3, [r3, #4]
 80047ae:	4313      	orrs	r3, r2
 80047b0:	60fb      	str	r3, [r7, #12]
  }

  if (IS_TIM_CLOCK_DIVISION_INSTANCE(TIMx))
 80047b2:	687b      	ldr	r3, [r7, #4]
 80047b4:	4a31      	ldr	r2, [pc, #196]	@ (800487c <LL_TIM_Init+0x120>)
 80047b6:	4293      	cmp	r3, r2
 80047b8:	d023      	beq.n	8004802 <LL_TIM_Init+0xa6>
 80047ba:	687b      	ldr	r3, [r7, #4]
 80047bc:	f1b3 4f80 	cmp.w	r3, #1073741824	@ 0x40000000
 80047c0:	d01f      	beq.n	8004802 <LL_TIM_Init+0xa6>
 80047c2:	687b      	ldr	r3, [r7, #4]
 80047c4:	4a2e      	ldr	r2, [pc, #184]	@ (8004880 <LL_TIM_Init+0x124>)
 80047c6:	4293      	cmp	r3, r2
 80047c8:	d01b      	beq.n	8004802 <LL_TIM_Init+0xa6>
 80047ca:	687b      	ldr	r3, [r7, #4]
 80047cc:	4a2d      	ldr	r2, [pc, #180]	@ (8004884 <LL_TIM_Init+0x128>)
 80047ce:	4293      	cmp	r3, r2
 80047d0:	d017      	beq.n	8004802 <LL_TIM_Init+0xa6>
 80047d2:	687b      	ldr	r3, [r7, #4]
 80047d4:	4a2c      	ldr	r2, [pc, #176]	@ (8004888 <LL_TIM_Init+0x12c>)
 80047d6:	4293      	cmp	r3, r2
 80047d8:	d013      	beq.n	8004802 <LL_TIM_Init+0xa6>
 80047da:	687b      	ldr	r3, [r7, #4]
 80047dc:	4a2b      	ldr	r2, [pc, #172]	@ (800488c <LL_TIM_Init+0x130>)
 80047de:	4293      	cmp	r3, r2
 80047e0:	d00f      	beq.n	8004802 <LL_TIM_Init+0xa6>
 80047e2:	687b      	ldr	r3, [r7, #4]
 80047e4:	4a2b      	ldr	r2, [pc, #172]	@ (8004894 <LL_TIM_Init+0x138>)
 80047e6:	4293      	cmp	r3, r2
 80047e8:	d00b      	beq.n	8004802 <LL_TIM_Init+0xa6>
 80047ea:	687b      	ldr	r3, [r7, #4]
 80047ec:	4a2a      	ldr	r2, [pc, #168]	@ (8004898 <LL_TIM_Init+0x13c>)
 80047ee:	4293      	cmp	r3, r2
 80047f0:	d007      	beq.n	8004802 <LL_TIM_Init+0xa6>
 80047f2:	687b      	ldr	r3, [r7, #4]
 80047f4:	4a29      	ldr	r2, [pc, #164]	@ (800489c <LL_TIM_Init+0x140>)
 80047f6:	4293      	cmp	r3, r2
 80047f8:	d003      	beq.n	8004802 <LL_TIM_Init+0xa6>
 80047fa:	687b      	ldr	r3, [r7, #4]
 80047fc:	4a24      	ldr	r2, [pc, #144]	@ (8004890 <LL_TIM_Init+0x134>)
 80047fe:	4293      	cmp	r3, r2
 8004800:	d106      	bne.n	8004810 <LL_TIM_Init+0xb4>
  {
    /* Set the clock division */
    MODIFY_REG(tmpcr1, TIM_CR1_CKD, TIM_InitStruct->ClockDivision);
 8004802:	68fb      	ldr	r3, [r7, #12]
 8004804:	f423 7240 	bic.w	r2, r3, #768	@ 0x300
 8004808:	683b      	ldr	r3, [r7, #0]
 800480a:	68db      	ldr	r3, [r3, #12]
 800480c:	4313      	orrs	r3, r2
 800480e:	60fb      	str	r3, [r7, #12]
  }

  /* Write to TIMx CR1 */
  LL_TIM_WriteReg(TIMx, CR1, tmpcr1);
 8004810:	687b      	ldr	r3, [r7, #4]
 8004812:	68fa      	ldr	r2, [r7, #12]
 8004814:	601a      	str	r2, [r3, #0]

  /* Set the Autoreload value */
  LL_TIM_SetAutoReload(TIMx, TIM_InitStruct->Autoreload);
 8004816:	683b      	ldr	r3, [r7, #0]
 8004818:	689b      	ldr	r3, [r3, #8]
 800481a:	4619      	mov	r1, r3
 800481c:	6878      	ldr	r0, [r7, #4]
 800481e:	f7ff ff71 	bl	8004704 <LL_TIM_SetAutoReload>

  /* Set the Prescaler value */
  LL_TIM_SetPrescaler(TIMx, TIM_InitStruct->Prescaler);
 8004822:	683b      	ldr	r3, [r7, #0]
 8004824:	881b      	ldrh	r3, [r3, #0]
 8004826:	4619      	mov	r1, r3
 8004828:	6878      	ldr	r0, [r7, #4]
 800482a:	f7ff ff5d 	bl	80046e8 <LL_TIM_SetPrescaler>

  if (IS_TIM_REPETITION_COUNTER_INSTANCE(TIMx))
 800482e:	687b      	ldr	r3, [r7, #4]
 8004830:	4a12      	ldr	r2, [pc, #72]	@ (800487c <LL_TIM_Init+0x120>)
 8004832:	4293      	cmp	r3, r2
 8004834:	d013      	beq.n	800485e <LL_TIM_Init+0x102>
 8004836:	687b      	ldr	r3, [r7, #4]
 8004838:	4a14      	ldr	r2, [pc, #80]	@ (800488c <LL_TIM_Init+0x130>)
 800483a:	4293      	cmp	r3, r2
 800483c:	d00f      	beq.n	800485e <LL_TIM_Init+0x102>
 800483e:	687b      	ldr	r3, [r7, #4]
 8004840:	4a14      	ldr	r2, [pc, #80]	@ (8004894 <LL_TIM_Init+0x138>)
 8004842:	4293      	cmp	r3, r2
 8004844:	d00b      	beq.n	800485e <LL_TIM_Init+0x102>
 8004846:	687b      	ldr	r3, [r7, #4]
 8004848:	4a13      	ldr	r2, [pc, #76]	@ (8004898 <LL_TIM_Init+0x13c>)
 800484a:	4293      	cmp	r3, r2
 800484c:	d007      	beq.n	800485e <LL_TIM_Init+0x102>
 800484e:	687b      	ldr	r3, [r7, #4]
 8004850:	4a12      	ldr	r2, [pc, #72]	@ (800489c <LL_TIM_Init+0x140>)
 8004852:	4293      	cmp	r3, r2
 8004854:	d003      	beq.n	800485e <LL_TIM_Init+0x102>
 8004856:	687b      	ldr	r3, [r7, #4]
 8004858:	4a0d      	ldr	r2, [pc, #52]	@ (8004890 <LL_TIM_Init+0x134>)
 800485a:	4293      	cmp	r3, r2
 800485c:	d105      	bne.n	800486a <LL_TIM_Init+0x10e>
  {
    /* Set the Repetition Counter value */
    LL_TIM_SetRepetitionCounter(TIMx, TIM_InitStruct->RepetitionCounter);
 800485e:	683b      	ldr	r3, [r7, #0]
 8004860:	691b      	ldr	r3, [r3, #16]
 8004862:	4619      	mov	r1, r3
 8004864:	6878      	ldr	r0, [r7, #4]
 8004866:	f7ff ff5b 	bl	8004720 <LL_TIM_SetRepetitionCounter>
  }

  /* Generate an update event to reload the Prescaler
     and the repetition counter value (if applicable) immediately */
  LL_TIM_GenerateEvent_UPDATE(TIMx);
 800486a:	6878      	ldr	r0, [r7, #4]
 800486c:	f7ff ff66 	bl	800473c <LL_TIM_GenerateEvent_UPDATE>

  return SUCCESS;
 8004870:	2300      	movs	r3, #0
}
 8004872:	4618      	mov	r0, r3
 8004874:	3710      	adds	r7, #16
 8004876:	46bd      	mov	sp, r7
 8004878:	bd80      	pop	{r7, pc}
 800487a:	bf00      	nop
 800487c:	40012c00 	.word	0x40012c00
 8004880:	40000400 	.word	0x40000400
 8004884:	40000800 	.word	0x40000800
 8004888:	40000c00 	.word	0x40000c00
 800488c:	40013400 	.word	0x40013400
 8004890:	40015000 	.word	0x40015000
 8004894:	40014000 	.word	0x40014000
 8004898:	40014400 	.word	0x40014400
 800489c:	40014800 	.word	0x40014800

080048a0 <LL_USART_IsEnabled>:
{
 80048a0:	b480      	push	{r7}
 80048a2:	b083      	sub	sp, #12
 80048a4:	af00      	add	r7, sp, #0
 80048a6:	6078      	str	r0, [r7, #4]
  return ((READ_BIT(USARTx->CR1, USART_CR1_UE) == (USART_CR1_UE)) ? 1UL : 0UL);
 80048a8:	687b      	ldr	r3, [r7, #4]
 80048aa:	681b      	ldr	r3, [r3, #0]
 80048ac:	f003 0301 	and.w	r3, r3, #1
 80048b0:	2b01      	cmp	r3, #1
 80048b2:	d101      	bne.n	80048b8 <LL_USART_IsEnabled+0x18>
 80048b4:	2301      	movs	r3, #1
 80048b6:	e000      	b.n	80048ba <LL_USART_IsEnabled+0x1a>
 80048b8:	2300      	movs	r3, #0
}
 80048ba:	4618      	mov	r0, r3
 80048bc:	370c      	adds	r7, #12
 80048be:	46bd      	mov	sp, r7
 80048c0:	f85d 7b04 	ldr.w	r7, [sp], #4
 80048c4:	4770      	bx	lr

080048c6 <LL_USART_SetPrescaler>:
{
 80048c6:	b480      	push	{r7}
 80048c8:	b083      	sub	sp, #12
 80048ca:	af00      	add	r7, sp, #0
 80048cc:	6078      	str	r0, [r7, #4]
 80048ce:	6039      	str	r1, [r7, #0]
  MODIFY_REG(USARTx->PRESC, USART_PRESC_PRESCALER, (uint16_t)PrescalerValue);
 80048d0:	687b      	ldr	r3, [r7, #4]
 80048d2:	6adb      	ldr	r3, [r3, #44]	@ 0x2c
 80048d4:	f023 030f 	bic.w	r3, r3, #15
 80048d8:	683a      	ldr	r2, [r7, #0]
 80048da:	b292      	uxth	r2, r2
 80048dc:	431a      	orrs	r2, r3
 80048de:	687b      	ldr	r3, [r7, #4]
 80048e0:	62da      	str	r2, [r3, #44]	@ 0x2c
}
 80048e2:	bf00      	nop
 80048e4:	370c      	adds	r7, #12
 80048e6:	46bd      	mov	sp, r7
 80048e8:	f85d 7b04 	ldr.w	r7, [sp], #4
 80048ec:	4770      	bx	lr

080048ee <LL_USART_SetStopBitsLength>:
{
 80048ee:	b480      	push	{r7}
 80048f0:	b083      	sub	sp, #12
 80048f2:	af00      	add	r7, sp, #0
 80048f4:	6078      	str	r0, [r7, #4]
 80048f6:	6039      	str	r1, [r7, #0]
  MODIFY_REG(USARTx->CR2, USART_CR2_STOP, StopBits);
 80048f8:	687b      	ldr	r3, [r7, #4]
 80048fa:	685b      	ldr	r3, [r3, #4]
 80048fc:	f423 5240 	bic.w	r2, r3, #12288	@ 0x3000
 8004900:	683b      	ldr	r3, [r7, #0]
 8004902:	431a      	orrs	r2, r3
 8004904:	687b      	ldr	r3, [r7, #4]
 8004906:	605a      	str	r2, [r3, #4]
}
 8004908:	bf00      	nop
 800490a:	370c      	adds	r7, #12
 800490c:	46bd      	mov	sp, r7
 800490e:	f85d 7b04 	ldr.w	r7, [sp], #4
 8004912:	4770      	bx	lr

08004914 <LL_USART_SetHWFlowCtrl>:
{
 8004914:	b480      	push	{r7}
 8004916:	b083      	sub	sp, #12
 8004918:	af00      	add	r7, sp, #0
 800491a:	6078      	str	r0, [r7, #4]
 800491c:	6039      	str	r1, [r7, #0]
  MODIFY_REG(USARTx->CR3, USART_CR3_RTSE | USART_CR3_CTSE, HardwareFlowControl);
 800491e:	687b      	ldr	r3, [r7, #4]
 8004920:	689b      	ldr	r3, [r3, #8]
 8004922:	f423 7240 	bic.w	r2, r3, #768	@ 0x300
 8004926:	683b      	ldr	r3, [r7, #0]
 8004928:	431a      	orrs	r2, r3
 800492a:	687b      	ldr	r3, [r7, #4]
 800492c:	609a      	str	r2, [r3, #8]
}
 800492e:	bf00      	nop
 8004930:	370c      	adds	r7, #12
 8004932:	46bd      	mov	sp, r7
 8004934:	f85d 7b04 	ldr.w	r7, [sp], #4
 8004938:	4770      	bx	lr
	...

0800493c <LL_USART_SetBaudRate>:
{
 800493c:	b480      	push	{r7}
 800493e:	b087      	sub	sp, #28
 8004940:	af00      	add	r7, sp, #0
 8004942:	60f8      	str	r0, [r7, #12]
 8004944:	60b9      	str	r1, [r7, #8]
 8004946:	607a      	str	r2, [r7, #4]
 8004948:	603b      	str	r3, [r7, #0]
  if (PrescalerValue > LL_USART_PRESCALER_DIV256)
 800494a:	687b      	ldr	r3, [r7, #4]
 800494c:	2b0b      	cmp	r3, #11
 800494e:	d83c      	bhi.n	80049ca <LL_USART_SetBaudRate+0x8e>
  else if (BaudRate == 0U)
 8004950:	6a3b      	ldr	r3, [r7, #32]
 8004952:	2b00      	cmp	r3, #0
 8004954:	d039      	beq.n	80049ca <LL_USART_SetBaudRate+0x8e>
  else if (OverSampling == LL_USART_OVERSAMPLING_8)
 8004956:	683b      	ldr	r3, [r7, #0]
 8004958:	f5b3 4f00 	cmp.w	r3, #32768	@ 0x8000
 800495c:	d122      	bne.n	80049a4 <LL_USART_SetBaudRate+0x68>
    usartdiv = (uint16_t)(__LL_USART_DIV_SAMPLING8(PeriphClk, (uint8_t)PrescalerValue, BaudRate));
 800495e:	687b      	ldr	r3, [r7, #4]
 8004960:	b2db      	uxtb	r3, r3
 8004962:	461a      	mov	r2, r3
 8004964:	4b1c      	ldr	r3, [pc, #112]	@ (80049d8 <LL_USART_SetBaudRate+0x9c>)
 8004966:	f853 3022 	ldr.w	r3, [r3, r2, lsl #2]
 800496a:	68ba      	ldr	r2, [r7, #8]
 800496c:	fbb2 f3f3 	udiv	r3, r2, r3
 8004970:	005a      	lsls	r2, r3, #1
 8004972:	6a3b      	ldr	r3, [r7, #32]
 8004974:	085b      	lsrs	r3, r3, #1
 8004976:	441a      	add	r2, r3
 8004978:	6a3b      	ldr	r3, [r7, #32]
 800497a:	fbb2 f3f3 	udiv	r3, r2, r3
 800497e:	b29b      	uxth	r3, r3
 8004980:	617b      	str	r3, [r7, #20]
    brrtemp = usartdiv & 0xFFF0U;
 8004982:	697a      	ldr	r2, [r7, #20]
 8004984:	f64f 73f0 	movw	r3, #65520	@ 0xfff0
 8004988:	4013      	ands	r3, r2
 800498a:	613b      	str	r3, [r7, #16]
    brrtemp |= (uint16_t)((usartdiv & (uint16_t)0x000FU) >> 1U);
 800498c:	697b      	ldr	r3, [r7, #20]
 800498e:	085b      	lsrs	r3, r3, #1
 8004990:	b29b      	uxth	r3, r3
 8004992:	f003 0307 	and.w	r3, r3, #7
 8004996:	693a      	ldr	r2, [r7, #16]
 8004998:	4313      	orrs	r3, r2
 800499a:	613b      	str	r3, [r7, #16]
    USARTx->BRR = brrtemp;
 800499c:	68fb      	ldr	r3, [r7, #12]
 800499e:	693a      	ldr	r2, [r7, #16]
 80049a0:	60da      	str	r2, [r3, #12]
}
 80049a2:	e012      	b.n	80049ca <LL_USART_SetBaudRate+0x8e>
    USARTx->BRR = (uint16_t)(__LL_USART_DIV_SAMPLING16(PeriphClk, (uint8_t)PrescalerValue, BaudRate));
 80049a4:	687b      	ldr	r3, [r7, #4]
 80049a6:	b2db      	uxtb	r3, r3
 80049a8:	461a      	mov	r2, r3
 80049aa:	4b0b      	ldr	r3, [pc, #44]	@ (80049d8 <LL_USART_SetBaudRate+0x9c>)
 80049ac:	f853 3022 	ldr.w	r3, [r3, r2, lsl #2]
 80049b0:	68ba      	ldr	r2, [r7, #8]
 80049b2:	fbb2 f2f3 	udiv	r2, r2, r3
 80049b6:	6a3b      	ldr	r3, [r7, #32]
 80049b8:	085b      	lsrs	r3, r3, #1
 80049ba:	441a      	add	r2, r3
 80049bc:	6a3b      	ldr	r3, [r7, #32]
 80049be:	fbb2 f3f3 	udiv	r3, r2, r3
 80049c2:	b29b      	uxth	r3, r3
 80049c4:	461a      	mov	r2, r3
 80049c6:	68fb      	ldr	r3, [r7, #12]
 80049c8:	60da      	str	r2, [r3, #12]
}
 80049ca:	bf00      	nop
 80049cc:	371c      	adds	r7, #28
 80049ce:	46bd      	mov	sp, r7
 80049d0:	f85d 7b04 	ldr.w	r7, [sp], #4
 80049d4:	4770      	bx	lr
 80049d6:	bf00      	nop
 80049d8:	080072bc 	.word	0x080072bc

080049dc <LL_USART_Init>:
  * @retval An ErrorStatus enumeration value:
  *          - SUCCESS: USART registers are initialized according to USART_InitStruct content
  *          - ERROR: Problem occurred during USART Registers initialization
  */
ErrorStatus LL_USART_Init(USART_TypeDef *USARTx, const LL_USART_InitTypeDef *USART_InitStruct)
{
 80049dc:	b580      	push	{r7, lr}
 80049de:	b086      	sub	sp, #24
 80049e0:	af02      	add	r7, sp, #8
 80049e2:	6078      	str	r0, [r7, #4]
 80049e4:	6039      	str	r1, [r7, #0]
  ErrorStatus status = ERROR;
 80049e6:	2301      	movs	r3, #1
 80049e8:	73fb      	strb	r3, [r7, #15]
  uint32_t periphclk = LL_RCC_PERIPH_FREQUENCY_NO;
 80049ea:	2300      	movs	r3, #0
 80049ec:	60bb      	str	r3, [r7, #8]
  assert_param(IS_LL_USART_HWCONTROL(USART_InitStruct->HardwareFlowControl));
  assert_param(IS_LL_USART_OVERSAMPLING(USART_InitStruct->OverSampling));

  /* USART needs to be in disabled state, in order to be able to configure some bits in
     CRx registers */
  if (LL_USART_IsEnabled(USARTx) == 0U)
 80049ee:	6878      	ldr	r0, [r7, #4]
 80049f0:	f7ff ff56 	bl	80048a0 <LL_USART_IsEnabled>
 80049f4:	4603      	mov	r3, r0
 80049f6:	2b00      	cmp	r3, #0
 80049f8:	d165      	bne.n	8004ac6 <LL_USART_Init+0xea>
     * - DataWidth:          USART_CR1_M bits according to USART_InitStruct->DataWidth value
     * - Parity:             USART_CR1_PCE, USART_CR1_PS bits according to USART_InitStruct->Parity value
     * - TransferDirection:  USART_CR1_TE, USART_CR1_RE bits according to USART_InitStruct->TransferDirection value
     * - Oversampling:       USART_CR1_OVER8 bit according to USART_InitStruct->OverSampling value.
     */
    MODIFY_REG(USARTx->CR1,
 80049fa:	687b      	ldr	r3, [r7, #4]
 80049fc:	681a      	ldr	r2, [r3, #0]
 80049fe:	4b34      	ldr	r3, [pc, #208]	@ (8004ad0 <LL_USART_Init+0xf4>)
 8004a00:	4013      	ands	r3, r2
 8004a02:	683a      	ldr	r2, [r7, #0]
 8004a04:	6891      	ldr	r1, [r2, #8]
 8004a06:	683a      	ldr	r2, [r7, #0]
 8004a08:	6912      	ldr	r2, [r2, #16]
 8004a0a:	4311      	orrs	r1, r2
 8004a0c:	683a      	ldr	r2, [r7, #0]
 8004a0e:	6952      	ldr	r2, [r2, #20]
 8004a10:	4311      	orrs	r1, r2
 8004a12:	683a      	ldr	r2, [r7, #0]
 8004a14:	69d2      	ldr	r2, [r2, #28]
 8004a16:	430a      	orrs	r2, r1
 8004a18:	431a      	orrs	r2, r3
 8004a1a:	687b      	ldr	r3, [r7, #4]
 8004a1c:	601a      	str	r2, [r3, #0]
    /*---------------------------- USART CR2 Configuration ---------------------
     * Configure USARTx CR2 (Stop bits) with parameters:
     * - Stop Bits:          USART_CR2_STOP bits according to USART_InitStruct->StopBits value.
     * - CLKEN, CPOL, CPHA and LBCL bits are to be configured using LL_USART_ClockInit().
     */
    LL_USART_SetStopBitsLength(USARTx, USART_InitStruct->StopBits);
 8004a1e:	683b      	ldr	r3, [r7, #0]
 8004a20:	68db      	ldr	r3, [r3, #12]
 8004a22:	4619      	mov	r1, r3
 8004a24:	6878      	ldr	r0, [r7, #4]
 8004a26:	f7ff ff62 	bl	80048ee <LL_USART_SetStopBitsLength>
    /*---------------------------- USART CR3 Configuration ---------------------
     * Configure USARTx CR3 (Hardware Flow Control) with parameters:
     * - HardwareFlowControl: USART_CR3_RTSE, USART_CR3_CTSE bits according to
     *   USART_InitStruct->HardwareFlowControl value.
     */
    LL_USART_SetHWFlowCtrl(USARTx, USART_InitStruct->HardwareFlowControl);
 8004a2a:	683b      	ldr	r3, [r7, #0]
 8004a2c:	699b      	ldr	r3, [r3, #24]
 8004a2e:	4619      	mov	r1, r3
 8004a30:	6878      	ldr	r0, [r7, #4]
 8004a32:	f7ff ff6f 	bl	8004914 <LL_USART_SetHWFlowCtrl>

    /*---------------------------- USART BRR Configuration ---------------------
     * Retrieve Clock frequency used for USART Peripheral
     */
    if (USARTx == USART1)
 8004a36:	687b      	ldr	r3, [r7, #4]
 8004a38:	4a26      	ldr	r2, [pc, #152]	@ (8004ad4 <LL_USART_Init+0xf8>)
 8004a3a:	4293      	cmp	r3, r2
 8004a3c:	d104      	bne.n	8004a48 <LL_USART_Init+0x6c>
    {
      periphclk = LL_RCC_GetUSARTClockFreq(LL_RCC_USART1_CLKSOURCE);
 8004a3e:	2003      	movs	r0, #3
 8004a40:	f7ff fc6a 	bl	8004318 <LL_RCC_GetUSARTClockFreq>
 8004a44:	60b8      	str	r0, [r7, #8]
 8004a46:	e023      	b.n	8004a90 <LL_USART_Init+0xb4>
    }
    else if (USARTx == USART2)
 8004a48:	687b      	ldr	r3, [r7, #4]
 8004a4a:	4a23      	ldr	r2, [pc, #140]	@ (8004ad8 <LL_USART_Init+0xfc>)
 8004a4c:	4293      	cmp	r3, r2
 8004a4e:	d104      	bne.n	8004a5a <LL_USART_Init+0x7e>
    {
      periphclk = LL_RCC_GetUSARTClockFreq(LL_RCC_USART2_CLKSOURCE);
 8004a50:	200c      	movs	r0, #12
 8004a52:	f7ff fc61 	bl	8004318 <LL_RCC_GetUSARTClockFreq>
 8004a56:	60b8      	str	r0, [r7, #8]
 8004a58:	e01a      	b.n	8004a90 <LL_USART_Init+0xb4>
    }
#if defined(USART3)
    else if (USARTx == USART3)
 8004a5a:	687b      	ldr	r3, [r7, #4]
 8004a5c:	4a1f      	ldr	r2, [pc, #124]	@ (8004adc <LL_USART_Init+0x100>)
 8004a5e:	4293      	cmp	r3, r2
 8004a60:	d104      	bne.n	8004a6c <LL_USART_Init+0x90>
    {
      periphclk = LL_RCC_GetUSARTClockFreq(LL_RCC_USART3_CLKSOURCE);
 8004a62:	2030      	movs	r0, #48	@ 0x30
 8004a64:	f7ff fc58 	bl	8004318 <LL_RCC_GetUSARTClockFreq>
 8004a68:	60b8      	str	r0, [r7, #8]
 8004a6a:	e011      	b.n	8004a90 <LL_USART_Init+0xb4>
    }
#endif /* USART3 */
#if defined(UART4)
    else if (USARTx == UART4)
 8004a6c:	687b      	ldr	r3, [r7, #4]
 8004a6e:	4a1c      	ldr	r2, [pc, #112]	@ (8004ae0 <LL_USART_Init+0x104>)
 8004a70:	4293      	cmp	r3, r2
 8004a72:	d104      	bne.n	8004a7e <LL_USART_Init+0xa2>
    {
      periphclk = LL_RCC_GetUARTClockFreq(LL_RCC_UART4_CLKSOURCE);
 8004a74:	20c0      	movs	r0, #192	@ 0xc0
 8004a76:	f7ff fd13 	bl	80044a0 <LL_RCC_GetUARTClockFreq>
 8004a7a:	60b8      	str	r0, [r7, #8]
 8004a7c:	e008      	b.n	8004a90 <LL_USART_Init+0xb4>
    }
#endif /* UART4 */
#if defined(UART5)
    else if (USARTx == UART5)
 8004a7e:	687b      	ldr	r3, [r7, #4]
 8004a80:	4a18      	ldr	r2, [pc, #96]	@ (8004ae4 <LL_USART_Init+0x108>)
 8004a82:	4293      	cmp	r3, r2
 8004a84:	d104      	bne.n	8004a90 <LL_USART_Init+0xb4>
    {
      periphclk = LL_RCC_GetUARTClockFreq(LL_RCC_UART5_CLKSOURCE);
 8004a86:	f44f 7040 	mov.w	r0, #768	@ 0x300
 8004a8a:	f7ff fd09 	bl	80044a0 <LL_RCC_GetUARTClockFreq>
 8004a8e:	60b8      	str	r0, [r7, #8]
    /* Configure the USART Baud Rate :
       - prescaler value is required
       - valid baud rate value (different from 0) is required
       - Peripheral clock as returned by RCC service, should be valid (different from 0).
    */
    if ((periphclk != LL_RCC_PERIPH_FREQUENCY_NO)
 8004a90:	68bb      	ldr	r3, [r7, #8]
 8004a92:	2b00      	cmp	r3, #0
 8004a94:	d011      	beq.n	8004aba <LL_USART_Init+0xde>
        && (USART_InitStruct->BaudRate != 0U))
 8004a96:	683b      	ldr	r3, [r7, #0]
 8004a98:	685b      	ldr	r3, [r3, #4]
 8004a9a:	2b00      	cmp	r3, #0
 8004a9c:	d00d      	beq.n	8004aba <LL_USART_Init+0xde>
    {
      status = SUCCESS;
 8004a9e:	2300      	movs	r3, #0
 8004aa0:	73fb      	strb	r3, [r7, #15]
      LL_USART_SetBaudRate(USARTx,
                           periphclk,
                           USART_InitStruct->PrescalerValue,
 8004aa2:	683b      	ldr	r3, [r7, #0]
 8004aa4:	681a      	ldr	r2, [r3, #0]
                           USART_InitStruct->OverSampling,
 8004aa6:	683b      	ldr	r3, [r7, #0]
 8004aa8:	69d9      	ldr	r1, [r3, #28]
                           USART_InitStruct->BaudRate);
 8004aaa:	683b      	ldr	r3, [r7, #0]
 8004aac:	685b      	ldr	r3, [r3, #4]
      LL_USART_SetBaudRate(USARTx,
 8004aae:	9300      	str	r3, [sp, #0]
 8004ab0:	460b      	mov	r3, r1
 8004ab2:	68b9      	ldr	r1, [r7, #8]
 8004ab4:	6878      	ldr	r0, [r7, #4]
 8004ab6:	f7ff ff41 	bl	800493c <LL_USART_SetBaudRate>

    /*---------------------------- USART PRESC Configuration -----------------------
     * Configure USARTx PRESC (Prescaler) with parameters:
     * - PrescalerValue: USART_PRESC_PRESCALER bits according to USART_InitStruct->PrescalerValue value.
     */
    LL_USART_SetPrescaler(USARTx, USART_InitStruct->PrescalerValue);
 8004aba:	683b      	ldr	r3, [r7, #0]
 8004abc:	681b      	ldr	r3, [r3, #0]
 8004abe:	4619      	mov	r1, r3
 8004ac0:	6878      	ldr	r0, [r7, #4]
 8004ac2:	f7ff ff00 	bl	80048c6 <LL_USART_SetPrescaler>
  }
  /* Endif (=> USART not in Disabled state => return ERROR) */

  return (status);
 8004ac6:	7bfb      	ldrb	r3, [r7, #15]
}
 8004ac8:	4618      	mov	r0, r3
 8004aca:	3710      	adds	r7, #16
 8004acc:	46bd      	mov	sp, r7
 8004ace:	bd80      	pop	{r7, pc}
 8004ad0:	efff69f3 	.word	0xefff69f3
 8004ad4:	40013800 	.word	0x40013800
 8004ad8:	40004400 	.word	0x40004400
 8004adc:	40004800 	.word	0x40004800
 8004ae0:	40004c00 	.word	0x40004c00
 8004ae4:	40005000 	.word	0x40005000

08004ae8 <LL_SetSystemCoreClock>:
  * @note   Variable can be calculated also through SystemCoreClockUpdate function.
  * @param  HCLKFrequency HCLK frequency in Hz (can be calculated thanks to RCC helper macro)
  * @retval None
  */
void LL_SetSystemCoreClock(uint32_t HCLKFrequency)
{
 8004ae8:	b480      	push	{r7}
 8004aea:	b083      	sub	sp, #12
 8004aec:	af00      	add	r7, sp, #0
 8004aee:	6078      	str	r0, [r7, #4]
  /* HCLK clock frequency */
  SystemCoreClock = HCLKFrequency;
 8004af0:	4a04      	ldr	r2, [pc, #16]	@ (8004b04 <LL_SetSystemCoreClock+0x1c>)
 8004af2:	687b      	ldr	r3, [r7, #4]
 8004af4:	6013      	str	r3, [r2, #0]
}
 8004af6:	bf00      	nop
 8004af8:	370c      	adds	r7, #12
 8004afa:	46bd      	mov	sp, r7
 8004afc:	f85d 7b04 	ldr.w	r7, [sp], #4
 8004b00:	4770      	bx	lr
 8004b02:	bf00      	nop
 8004b04:	20000000 	.word	0x20000000

08004b08 <makeFreeRtosPriority>:

extern void xPortSysTickHandler(void);

/* Convert from CMSIS type osPriority to FreeRTOS priority number */
static unsigned portBASE_TYPE makeFreeRtosPriority (osPriority priority)
{
 8004b08:	b480      	push	{r7}
 8004b0a:	b085      	sub	sp, #20
 8004b0c:	af00      	add	r7, sp, #0
 8004b0e:	4603      	mov	r3, r0
 8004b10:	80fb      	strh	r3, [r7, #6]
  unsigned portBASE_TYPE fpriority = tskIDLE_PRIORITY;
 8004b12:	2300      	movs	r3, #0
 8004b14:	60fb      	str	r3, [r7, #12]
  
  if (priority != osPriorityError) {
 8004b16:	f9b7 3006 	ldrsh.w	r3, [r7, #6]
 8004b1a:	2b84      	cmp	r3, #132	@ 0x84
 8004b1c:	d005      	beq.n	8004b2a <makeFreeRtosPriority+0x22>
    fpriority += (priority - osPriorityIdle);
 8004b1e:	f9b7 2006 	ldrsh.w	r2, [r7, #6]
 8004b22:	68fb      	ldr	r3, [r7, #12]
 8004b24:	4413      	add	r3, r2
 8004b26:	3303      	adds	r3, #3
 8004b28:	60fb      	str	r3, [r7, #12]
  }
  
  return fpriority;
 8004b2a:	68fb      	ldr	r3, [r7, #12]
}
 8004b2c:	4618      	mov	r0, r3
 8004b2e:	3714      	adds	r7, #20
 8004b30:	46bd      	mov	sp, r7
 8004b32:	f85d 7b04 	ldr.w	r7, [sp], #4
 8004b36:	4770      	bx	lr

08004b38 <inHandlerMode>:
#endif


/* Determine whether we are in thread mode or handler mode. */
static int inHandlerMode (void)
{
 8004b38:	b480      	push	{r7}
 8004b3a:	b083      	sub	sp, #12
 8004b3c:	af00      	add	r7, sp, #0
  __ASM volatile ("MRS %0, ipsr" : "=r" (result) );
 8004b3e:	f3ef 8305 	mrs	r3, IPSR
 8004b42:	607b      	str	r3, [r7, #4]
  return(result);
 8004b44:	687b      	ldr	r3, [r7, #4]
  return __get_IPSR() != 0;
 8004b46:	2b00      	cmp	r3, #0
 8004b48:	bf14      	ite	ne
 8004b4a:	2301      	movne	r3, #1
 8004b4c:	2300      	moveq	r3, #0
 8004b4e:	b2db      	uxtb	r3, r3
}
 8004b50:	4618      	mov	r0, r3
 8004b52:	370c      	adds	r7, #12
 8004b54:	46bd      	mov	sp, r7
 8004b56:	f85d 7b04 	ldr.w	r7, [sp], #4
 8004b5a:	4770      	bx	lr

08004b5c <osKernelStart>:
* @param  argument      pointer that is passed to the thread function as start argument.
* @retval status code that indicates the execution status of the function
* @note   MUST REMAIN UNCHANGED: \b osKernelStart shall be consistent in every CMSIS-RTOS.
*/
osStatus osKernelStart (void)
{
 8004b5c:	b580      	push	{r7, lr}
 8004b5e:	af00      	add	r7, sp, #0
  vTaskStartScheduler();
 8004b60:	f001 f80e 	bl	8005b80 <vTaskStartScheduler>
  
  return osOK;
 8004b64:	2300      	movs	r3, #0
}
 8004b66:	4618      	mov	r0, r3
 8004b68:	bd80      	pop	{r7, pc}

08004b6a <osThreadCreate>:
* @param  argument      pointer that is passed to the thread function as start argument.
* @retval thread ID for reference by other functions or NULL in case of error.
* @note   MUST REMAIN UNCHANGED: \b osThreadCreate shall be consistent in every CMSIS-RTOS.
*/
osThreadId osThreadCreate (const osThreadDef_t *thread_def, void *argument)
{
 8004b6a:	b5f0      	push	{r4, r5, r6, r7, lr}
 8004b6c:	b087      	sub	sp, #28
 8004b6e:	af02      	add	r7, sp, #8
 8004b70:	6078      	str	r0, [r7, #4]
 8004b72:	6039      	str	r1, [r7, #0]

    handle = xTaskCreateStatic((TaskFunction_t)thread_def->pthread,(const portCHAR *)thread_def->name,
              thread_def->stacksize, argument, makeFreeRtosPriority(thread_def->tpriority),
              thread_def->buffer, thread_def->controlblock);
#else
  if (xTaskCreate((TaskFunction_t)thread_def->pthread,(const portCHAR *)thread_def->name,
 8004b74:	687b      	ldr	r3, [r7, #4]
 8004b76:	685c      	ldr	r4, [r3, #4]
 8004b78:	687b      	ldr	r3, [r7, #4]
 8004b7a:	681d      	ldr	r5, [r3, #0]
                   thread_def->stacksize, argument, makeFreeRtosPriority(thread_def->tpriority),
 8004b7c:	687b      	ldr	r3, [r7, #4]
 8004b7e:	691b      	ldr	r3, [r3, #16]
  if (xTaskCreate((TaskFunction_t)thread_def->pthread,(const portCHAR *)thread_def->name,
 8004b80:	b29e      	uxth	r6, r3
                   thread_def->stacksize, argument, makeFreeRtosPriority(thread_def->tpriority),
 8004b82:	687b      	ldr	r3, [r7, #4]
 8004b84:	f9b3 3008 	ldrsh.w	r3, [r3, #8]
  if (xTaskCreate((TaskFunction_t)thread_def->pthread,(const portCHAR *)thread_def->name,
 8004b88:	4618      	mov	r0, r3
 8004b8a:	f7ff ffbd 	bl	8004b08 <makeFreeRtosPriority>
 8004b8e:	4602      	mov	r2, r0
 8004b90:	f107 030c 	add.w	r3, r7, #12
 8004b94:	9301      	str	r3, [sp, #4]
 8004b96:	9200      	str	r2, [sp, #0]
 8004b98:	683b      	ldr	r3, [r7, #0]
 8004b9a:	4632      	mov	r2, r6
 8004b9c:	4629      	mov	r1, r5
 8004b9e:	4620      	mov	r0, r4
 8004ba0:	f000 fe6c 	bl	800587c <xTaskCreate>
 8004ba4:	4603      	mov	r3, r0
 8004ba6:	2b01      	cmp	r3, #1
 8004ba8:	d001      	beq.n	8004bae <osThreadCreate+0x44>
                   &handle) != pdPASS)  {
    return NULL;
 8004baa:	2300      	movs	r3, #0
 8004bac:	e000      	b.n	8004bb0 <osThreadCreate+0x46>
  }     
#endif
  
  return handle;
 8004bae:	68fb      	ldr	r3, [r7, #12]
}
 8004bb0:	4618      	mov	r0, r3
 8004bb2:	3714      	adds	r7, #20
 8004bb4:	46bd      	mov	sp, r7
 8004bb6:	bdf0      	pop	{r4, r5, r6, r7, pc}

08004bb8 <osDelay>:
* @brief   Wait for Timeout (Time Delay)
* @param   millisec      time delay value
* @retval  status code that indicates the execution status of the function.
*/
osStatus osDelay (uint32_t millisec)
{
 8004bb8:	b580      	push	{r7, lr}
 8004bba:	b084      	sub	sp, #16
 8004bbc:	af00      	add	r7, sp, #0
 8004bbe:	6078      	str	r0, [r7, #4]
#if INCLUDE_vTaskDelay
  TickType_t ticks = millisec / portTICK_PERIOD_MS;
 8004bc0:	687b      	ldr	r3, [r7, #4]
 8004bc2:	60fb      	str	r3, [r7, #12]
  
  vTaskDelay(ticks ? ticks : 1);          /* Minimum delay = 1 tick */
 8004bc4:	68fb      	ldr	r3, [r7, #12]
 8004bc6:	2b00      	cmp	r3, #0
 8004bc8:	d001      	beq.n	8004bce <osDelay+0x16>
 8004bca:	68fb      	ldr	r3, [r7, #12]
 8004bcc:	e000      	b.n	8004bd0 <osDelay+0x18>
 8004bce:	2301      	movs	r3, #1
 8004bd0:	4618      	mov	r0, r3
 8004bd2:	f000 ff9f 	bl	8005b14 <vTaskDelay>
  
  return osOK;
 8004bd6:	2300      	movs	r3, #0
#else
  (void) millisec;
  
  return osErrorResource;
#endif
}
 8004bd8:	4618      	mov	r0, r3
 8004bda:	3710      	adds	r7, #16
 8004bdc:	46bd      	mov	sp, r7
 8004bde:	bd80      	pop	{r7, pc}

08004be0 <osMessageCreate>:
* @param  thread_id     thread ID (obtained by \ref osThreadCreate or \ref osThreadGetId) or NULL.
* @retval  message queue ID for reference by other functions or NULL in case of error.
* @note   MUST REMAIN UNCHANGED: \b osMessageCreate shall be consistent in every CMSIS-RTOS.
*/
osMessageQId osMessageCreate (const osMessageQDef_t *queue_def, osThreadId thread_id)
{
 8004be0:	b580      	push	{r7, lr}
 8004be2:	b082      	sub	sp, #8
 8004be4:	af00      	add	r7, sp, #0
 8004be6:	6078      	str	r0, [r7, #4]
 8004be8:	6039      	str	r1, [r7, #0]
    return xQueueCreate(queue_def->queue_sz, queue_def->item_sz);
  }
#elif ( configSUPPORT_STATIC_ALLOCATION == 1 )
  return xQueueCreateStatic(queue_def->queue_sz, queue_def->item_sz, queue_def->buffer, queue_def->controlblock);
#else  
  return xQueueCreate(queue_def->queue_sz, queue_def->item_sz);
 8004bea:	687b      	ldr	r3, [r7, #4]
 8004bec:	6818      	ldr	r0, [r3, #0]
 8004bee:	687b      	ldr	r3, [r7, #4]
 8004bf0:	685b      	ldr	r3, [r3, #4]
 8004bf2:	2200      	movs	r2, #0
 8004bf4:	4619      	mov	r1, r3
 8004bf6:	f000 f9d7 	bl	8004fa8 <xQueueGenericCreate>
 8004bfa:	4603      	mov	r3, r0
#endif
}
 8004bfc:	4618      	mov	r0, r3
 8004bfe:	3708      	adds	r7, #8
 8004c00:	46bd      	mov	sp, r7
 8004c02:	bd80      	pop	{r7, pc}

08004c04 <osMessagePut>:
* @param  millisec  timeout value or 0 in case of no time-out.
* @retval status code that indicates the execution status of the function.
* @note   MUST REMAIN UNCHANGED: \b osMessagePut shall be consistent in every CMSIS-RTOS.
*/
osStatus osMessagePut (osMessageQId queue_id, uint32_t info, uint32_t millisec)
{
 8004c04:	b580      	push	{r7, lr}
 8004c06:	b086      	sub	sp, #24
 8004c08:	af00      	add	r7, sp, #0
 8004c0a:	60f8      	str	r0, [r7, #12]
 8004c0c:	60b9      	str	r1, [r7, #8]
 8004c0e:	607a      	str	r2, [r7, #4]
  portBASE_TYPE taskWoken = pdFALSE;
 8004c10:	2300      	movs	r3, #0
 8004c12:	613b      	str	r3, [r7, #16]
  TickType_t ticks;
  
  ticks = millisec / portTICK_PERIOD_MS;
 8004c14:	687b      	ldr	r3, [r7, #4]
 8004c16:	617b      	str	r3, [r7, #20]
  if (ticks == 0) {
 8004c18:	697b      	ldr	r3, [r7, #20]
 8004c1a:	2b00      	cmp	r3, #0
 8004c1c:	d101      	bne.n	8004c22 <osMessagePut+0x1e>
    ticks = 1;
 8004c1e:	2301      	movs	r3, #1
 8004c20:	617b      	str	r3, [r7, #20]
  }
  
  if (inHandlerMode()) {
 8004c22:	f7ff ff89 	bl	8004b38 <inHandlerMode>
 8004c26:	4603      	mov	r3, r0
 8004c28:	2b00      	cmp	r3, #0
 8004c2a:	d018      	beq.n	8004c5e <osMessagePut+0x5a>
    if (xQueueSendFromISR(queue_id, &info, &taskWoken) != pdTRUE) {
 8004c2c:	f107 0210 	add.w	r2, r7, #16
 8004c30:	f107 0108 	add.w	r1, r7, #8
 8004c34:	2300      	movs	r3, #0
 8004c36:	68f8      	ldr	r0, [r7, #12]
 8004c38:	f000 fb0e 	bl	8005258 <xQueueGenericSendFromISR>
 8004c3c:	4603      	mov	r3, r0
 8004c3e:	2b01      	cmp	r3, #1
 8004c40:	d001      	beq.n	8004c46 <osMessagePut+0x42>
      return osErrorOS;
 8004c42:	23ff      	movs	r3, #255	@ 0xff
 8004c44:	e018      	b.n	8004c78 <osMessagePut+0x74>
    }
    portEND_SWITCHING_ISR(taskWoken);
 8004c46:	693b      	ldr	r3, [r7, #16]
 8004c48:	2b00      	cmp	r3, #0
 8004c4a:	d014      	beq.n	8004c76 <osMessagePut+0x72>
 8004c4c:	4b0c      	ldr	r3, [pc, #48]	@ (8004c80 <osMessagePut+0x7c>)
 8004c4e:	f04f 5280 	mov.w	r2, #268435456	@ 0x10000000
 8004c52:	601a      	str	r2, [r3, #0]
 8004c54:	f3bf 8f4f 	dsb	sy
 8004c58:	f3bf 8f6f 	isb	sy
 8004c5c:	e00b      	b.n	8004c76 <osMessagePut+0x72>
  }
  else {
    if (xQueueSend(queue_id, &info, ticks) != pdTRUE) {
 8004c5e:	f107 0108 	add.w	r1, r7, #8
 8004c62:	2300      	movs	r3, #0
 8004c64:	697a      	ldr	r2, [r7, #20]
 8004c66:	68f8      	ldr	r0, [r7, #12]
 8004c68:	f000 f9f4 	bl	8005054 <xQueueGenericSend>
 8004c6c:	4603      	mov	r3, r0
 8004c6e:	2b01      	cmp	r3, #1
 8004c70:	d001      	beq.n	8004c76 <osMessagePut+0x72>
      return osErrorOS;
 8004c72:	23ff      	movs	r3, #255	@ 0xff
 8004c74:	e000      	b.n	8004c78 <osMessagePut+0x74>
    }
  }
  
  return osOK;
 8004c76:	2300      	movs	r3, #0
}
 8004c78:	4618      	mov	r0, r3
 8004c7a:	3718      	adds	r7, #24
 8004c7c:	46bd      	mov	sp, r7
 8004c7e:	bd80      	pop	{r7, pc}
 8004c80:	e000ed04 	.word	0xe000ed04

08004c84 <osMessageGet>:
* @param  millisec  timeout value or 0 in case of no time-out.
* @retval event information that includes status code.
* @note   MUST REMAIN UNCHANGED: \b osMessageGet shall be consistent in every CMSIS-RTOS.
*/
osEvent osMessageGet (osMessageQId queue_id, uint32_t millisec)
{
 8004c84:	b590      	push	{r4, r7, lr}
 8004c86:	b08b      	sub	sp, #44	@ 0x2c
 8004c88:	af00      	add	r7, sp, #0
 8004c8a:	60f8      	str	r0, [r7, #12]
 8004c8c:	60b9      	str	r1, [r7, #8]
 8004c8e:	607a      	str	r2, [r7, #4]
  portBASE_TYPE taskWoken;
  TickType_t ticks;
  osEvent event;
  
  event.def.message_id = queue_id;
 8004c90:	68bb      	ldr	r3, [r7, #8]
 8004c92:	61fb      	str	r3, [r7, #28]
  event.value.v = 0;
 8004c94:	2300      	movs	r3, #0
 8004c96:	61bb      	str	r3, [r7, #24]
  
  if (queue_id == NULL) {
 8004c98:	68bb      	ldr	r3, [r7, #8]
 8004c9a:	2b00      	cmp	r3, #0
 8004c9c:	d10a      	bne.n	8004cb4 <osMessageGet+0x30>
    event.status = osErrorParameter;
 8004c9e:	2380      	movs	r3, #128	@ 0x80
 8004ca0:	617b      	str	r3, [r7, #20]
    return event;
 8004ca2:	68fb      	ldr	r3, [r7, #12]
 8004ca4:	461c      	mov	r4, r3
 8004ca6:	f107 0314 	add.w	r3, r7, #20
 8004caa:	e893 0007 	ldmia.w	r3, {r0, r1, r2}
 8004cae:	e884 0007 	stmia.w	r4, {r0, r1, r2}
 8004cb2:	e054      	b.n	8004d5e <osMessageGet+0xda>
  }
  
  taskWoken = pdFALSE;
 8004cb4:	2300      	movs	r3, #0
 8004cb6:	623b      	str	r3, [r7, #32]
  
  ticks = 0;
 8004cb8:	2300      	movs	r3, #0
 8004cba:	627b      	str	r3, [r7, #36]	@ 0x24
  if (millisec == osWaitForever) {
 8004cbc:	687b      	ldr	r3, [r7, #4]
 8004cbe:	f1b3 3fff 	cmp.w	r3, #4294967295
 8004cc2:	d103      	bne.n	8004ccc <osMessageGet+0x48>
    ticks = portMAX_DELAY;
 8004cc4:	f04f 33ff 	mov.w	r3, #4294967295
 8004cc8:	627b      	str	r3, [r7, #36]	@ 0x24
 8004cca:	e009      	b.n	8004ce0 <osMessageGet+0x5c>
  }
  else if (millisec != 0) {
 8004ccc:	687b      	ldr	r3, [r7, #4]
 8004cce:	2b00      	cmp	r3, #0
 8004cd0:	d006      	beq.n	8004ce0 <osMessageGet+0x5c>
    ticks = millisec / portTICK_PERIOD_MS;
 8004cd2:	687b      	ldr	r3, [r7, #4]
 8004cd4:	627b      	str	r3, [r7, #36]	@ 0x24
    if (ticks == 0) {
 8004cd6:	6a7b      	ldr	r3, [r7, #36]	@ 0x24
 8004cd8:	2b00      	cmp	r3, #0
 8004cda:	d101      	bne.n	8004ce0 <osMessageGet+0x5c>
      ticks = 1;
 8004cdc:	2301      	movs	r3, #1
 8004cde:	627b      	str	r3, [r7, #36]	@ 0x24
    }
  }
  
  if (inHandlerMode()) {
 8004ce0:	f7ff ff2a 	bl	8004b38 <inHandlerMode>
 8004ce4:	4603      	mov	r3, r0
 8004ce6:	2b00      	cmp	r3, #0
 8004ce8:	d01c      	beq.n	8004d24 <osMessageGet+0xa0>
    if (xQueueReceiveFromISR(queue_id, &event.value.v, &taskWoken) == pdTRUE) {
 8004cea:	f107 0220 	add.w	r2, r7, #32
 8004cee:	f107 0314 	add.w	r3, r7, #20
 8004cf2:	3304      	adds	r3, #4
 8004cf4:	4619      	mov	r1, r3
 8004cf6:	68b8      	ldr	r0, [r7, #8]
 8004cf8:	f000 fc2e 	bl	8005558 <xQueueReceiveFromISR>
 8004cfc:	4603      	mov	r3, r0
 8004cfe:	2b01      	cmp	r3, #1
 8004d00:	d102      	bne.n	8004d08 <osMessageGet+0x84>
      /* We have mail */
      event.status = osEventMessage;
 8004d02:	2310      	movs	r3, #16
 8004d04:	617b      	str	r3, [r7, #20]
 8004d06:	e001      	b.n	8004d0c <osMessageGet+0x88>
    }
    else {
      event.status = osOK;
 8004d08:	2300      	movs	r3, #0
 8004d0a:	617b      	str	r3, [r7, #20]
    }
    portEND_SWITCHING_ISR(taskWoken);
 8004d0c:	6a3b      	ldr	r3, [r7, #32]
 8004d0e:	2b00      	cmp	r3, #0
 8004d10:	d01d      	beq.n	8004d4e <osMessageGet+0xca>
 8004d12:	4b15      	ldr	r3, [pc, #84]	@ (8004d68 <osMessageGet+0xe4>)
 8004d14:	f04f 5280 	mov.w	r2, #268435456	@ 0x10000000
 8004d18:	601a      	str	r2, [r3, #0]
 8004d1a:	f3bf 8f4f 	dsb	sy
 8004d1e:	f3bf 8f6f 	isb	sy
 8004d22:	e014      	b.n	8004d4e <osMessageGet+0xca>
  }
  else {
    if (xQueueReceive(queue_id, &event.value.v, ticks) == pdTRUE) {
 8004d24:	f107 0314 	add.w	r3, r7, #20
 8004d28:	3304      	adds	r3, #4
 8004d2a:	6a7a      	ldr	r2, [r7, #36]	@ 0x24
 8004d2c:	4619      	mov	r1, r3
 8004d2e:	68b8      	ldr	r0, [r7, #8]
 8004d30:	f000 fb30 	bl	8005394 <xQueueReceive>
 8004d34:	4603      	mov	r3, r0
 8004d36:	2b01      	cmp	r3, #1
 8004d38:	d102      	bne.n	8004d40 <osMessageGet+0xbc>
      /* We have mail */
      event.status = osEventMessage;
 8004d3a:	2310      	movs	r3, #16
 8004d3c:	617b      	str	r3, [r7, #20]
 8004d3e:	e006      	b.n	8004d4e <osMessageGet+0xca>
    }
    else {
      event.status = (ticks == 0) ? osOK : osEventTimeout;
 8004d40:	6a7b      	ldr	r3, [r7, #36]	@ 0x24
 8004d42:	2b00      	cmp	r3, #0
 8004d44:	d101      	bne.n	8004d4a <osMessageGet+0xc6>
 8004d46:	2300      	movs	r3, #0
 8004d48:	e000      	b.n	8004d4c <osMessageGet+0xc8>
 8004d4a:	2340      	movs	r3, #64	@ 0x40
 8004d4c:	617b      	str	r3, [r7, #20]
    }
  }
  
  return event;
 8004d4e:	68fb      	ldr	r3, [r7, #12]
 8004d50:	461c      	mov	r4, r3
 8004d52:	f107 0314 	add.w	r3, r7, #20
 8004d56:	e893 0007 	ldmia.w	r3, {r0, r1, r2}
 8004d5a:	e884 0007 	stmia.w	r4, {r0, r1, r2}
}
 8004d5e:	68f8      	ldr	r0, [r7, #12]
 8004d60:	372c      	adds	r7, #44	@ 0x2c
 8004d62:	46bd      	mov	sp, r7
 8004d64:	bd90      	pop	{r4, r7, pc}
 8004d66:	bf00      	nop
 8004d68:	e000ed04 	.word	0xe000ed04

08004d6c <vListInitialise>:
/*-----------------------------------------------------------
 * PUBLIC LIST API documented in list.h
 *----------------------------------------------------------*/

void vListInitialise( List_t * const pxList )
{
 8004d6c:	b480      	push	{r7}
 8004d6e:	b083      	sub	sp, #12
 8004d70:	af00      	add	r7, sp, #0
 8004d72:	6078      	str	r0, [r7, #4]
	/* The list structure contains a list item which is used to mark the
	end of the list.  To initialise the list the list end is inserted
	as the only list entry. */
	pxList->pxIndex = ( ListItem_t * ) &( pxList->xListEnd );			/*lint !e826 !e740 !e9087 The mini list structure is used as the list end to save RAM.  This is checked and valid. */
 8004d74:	687b      	ldr	r3, [r7, #4]
 8004d76:	f103 0208 	add.w	r2, r3, #8
 8004d7a:	687b      	ldr	r3, [r7, #4]
 8004d7c:	605a      	str	r2, [r3, #4]

	/* The list end value is the highest possible value in the list to
	ensure it remains at the end of the list. */
	pxList->xListEnd.xItemValue = portMAX_DELAY;
 8004d7e:	687b      	ldr	r3, [r7, #4]
 8004d80:	f04f 32ff 	mov.w	r2, #4294967295
 8004d84:	609a      	str	r2, [r3, #8]

	/* The list end next and previous pointers point to itself so we know
	when the list is empty. */
	pxList->xListEnd.pxNext = ( ListItem_t * ) &( pxList->xListEnd );	/*lint !e826 !e740 !e9087 The mini list structure is used as the list end to save RAM.  This is checked and valid. */
 8004d86:	687b      	ldr	r3, [r7, #4]
 8004d88:	f103 0208 	add.w	r2, r3, #8
 8004d8c:	687b      	ldr	r3, [r7, #4]
 8004d8e:	60da      	str	r2, [r3, #12]
	pxList->xListEnd.pxPrevious = ( ListItem_t * ) &( pxList->xListEnd );/*lint !e826 !e740 !e9087 The mini list structure is used as the list end to save RAM.  This is checked and valid. */
 8004d90:	687b      	ldr	r3, [r7, #4]
 8004d92:	f103 0208 	add.w	r2, r3, #8
 8004d96:	687b      	ldr	r3, [r7, #4]
 8004d98:	611a      	str	r2, [r3, #16]

	pxList->uxNumberOfItems = ( UBaseType_t ) 0U;
 8004d9a:	687b      	ldr	r3, [r7, #4]
 8004d9c:	2200      	movs	r2, #0
 8004d9e:	601a      	str	r2, [r3, #0]

	/* Write known values into the list if
	configUSE_LIST_DATA_INTEGRITY_CHECK_BYTES is set to 1. */
	listSET_LIST_INTEGRITY_CHECK_1_VALUE( pxList );
	listSET_LIST_INTEGRITY_CHECK_2_VALUE( pxList );
}
 8004da0:	bf00      	nop
 8004da2:	370c      	adds	r7, #12
 8004da4:	46bd      	mov	sp, r7
 8004da6:	f85d 7b04 	ldr.w	r7, [sp], #4
 8004daa:	4770      	bx	lr

08004dac <vListInitialiseItem>:
/*-----------------------------------------------------------*/

void vListInitialiseItem( ListItem_t * const pxItem )
{
 8004dac:	b480      	push	{r7}
 8004dae:	b083      	sub	sp, #12
 8004db0:	af00      	add	r7, sp, #0
 8004db2:	6078      	str	r0, [r7, #4]
	/* Make sure the list item is not recorded as being on a list. */
	pxItem->pxContainer = NULL;
 8004db4:	687b      	ldr	r3, [r7, #4]
 8004db6:	2200      	movs	r2, #0
 8004db8:	611a      	str	r2, [r3, #16]

	/* Write known values into the list item if
	configUSE_LIST_DATA_INTEGRITY_CHECK_BYTES is set to 1. */
	listSET_FIRST_LIST_ITEM_INTEGRITY_CHECK_VALUE( pxItem );
	listSET_SECOND_LIST_ITEM_INTEGRITY_CHECK_VALUE( pxItem );
}
 8004dba:	bf00      	nop
 8004dbc:	370c      	adds	r7, #12
 8004dbe:	46bd      	mov	sp, r7
 8004dc0:	f85d 7b04 	ldr.w	r7, [sp], #4
 8004dc4:	4770      	bx	lr

08004dc6 <vListInsertEnd>:
/*-----------------------------------------------------------*/

void vListInsertEnd( List_t * const pxList, ListItem_t * const pxNewListItem )
{
 8004dc6:	b480      	push	{r7}
 8004dc8:	b085      	sub	sp, #20
 8004dca:	af00      	add	r7, sp, #0
 8004dcc:	6078      	str	r0, [r7, #4]
 8004dce:	6039      	str	r1, [r7, #0]
ListItem_t * const pxIndex = pxList->pxIndex;
 8004dd0:	687b      	ldr	r3, [r7, #4]
 8004dd2:	685b      	ldr	r3, [r3, #4]
 8004dd4:	60fb      	str	r3, [r7, #12]
	listTEST_LIST_ITEM_INTEGRITY( pxNewListItem );

	/* Insert a new list item into pxList, but rather than sort the list,
	makes the new list item the last item to be removed by a call to
	listGET_OWNER_OF_NEXT_ENTRY(). */
	pxNewListItem->pxNext = pxIndex;
 8004dd6:	683b      	ldr	r3, [r7, #0]
 8004dd8:	68fa      	ldr	r2, [r7, #12]
 8004dda:	605a      	str	r2, [r3, #4]
	pxNewListItem->pxPrevious = pxIndex->pxPrevious;
 8004ddc:	68fb      	ldr	r3, [r7, #12]
 8004dde:	689a      	ldr	r2, [r3, #8]
 8004de0:	683b      	ldr	r3, [r7, #0]
 8004de2:	609a      	str	r2, [r3, #8]

	/* Only used during decision coverage testing. */
	mtCOVERAGE_TEST_DELAY();

	pxIndex->pxPrevious->pxNext = pxNewListItem;
 8004de4:	68fb      	ldr	r3, [r7, #12]
 8004de6:	689b      	ldr	r3, [r3, #8]
 8004de8:	683a      	ldr	r2, [r7, #0]
 8004dea:	605a      	str	r2, [r3, #4]
	pxIndex->pxPrevious = pxNewListItem;
 8004dec:	68fb      	ldr	r3, [r7, #12]
 8004dee:	683a      	ldr	r2, [r7, #0]
 8004df0:	609a      	str	r2, [r3, #8]

	/* Remember which list the item is in. */
	pxNewListItem->pxContainer = pxList;
 8004df2:	683b      	ldr	r3, [r7, #0]
 8004df4:	687a      	ldr	r2, [r7, #4]
 8004df6:	611a      	str	r2, [r3, #16]

	( pxList->uxNumberOfItems )++;
 8004df8:	687b      	ldr	r3, [r7, #4]
 8004dfa:	681b      	ldr	r3, [r3, #0]
 8004dfc:	1c5a      	adds	r2, r3, #1
 8004dfe:	687b      	ldr	r3, [r7, #4]
 8004e00:	601a      	str	r2, [r3, #0]
}
 8004e02:	bf00      	nop
 8004e04:	3714      	adds	r7, #20
 8004e06:	46bd      	mov	sp, r7
 8004e08:	f85d 7b04 	ldr.w	r7, [sp], #4
 8004e0c:	4770      	bx	lr

08004e0e <vListInsert>:
/*-----------------------------------------------------------*/

void vListInsert( List_t * const pxList, ListItem_t * const pxNewListItem )
{
 8004e0e:	b480      	push	{r7}
 8004e10:	b085      	sub	sp, #20
 8004e12:	af00      	add	r7, sp, #0
 8004e14:	6078      	str	r0, [r7, #4]
 8004e16:	6039      	str	r1, [r7, #0]
ListItem_t *pxIterator;
const TickType_t xValueOfInsertion = pxNewListItem->xItemValue;
 8004e18:	683b      	ldr	r3, [r7, #0]
 8004e1a:	681b      	ldr	r3, [r3, #0]
 8004e1c:	60bb      	str	r3, [r7, #8]
	new list item should be placed after it.  This ensures that TCBs which are
	stored in ready lists (all of which have the same xItemValue value) get a
	share of the CPU.  However, if the xItemValue is the same as the back marker
	the iteration loop below will not end.  Therefore the value is checked
	first, and the algorithm slightly modified if necessary. */
	if( xValueOfInsertion == portMAX_DELAY )
 8004e1e:	68bb      	ldr	r3, [r7, #8]
 8004e20:	f1b3 3fff 	cmp.w	r3, #4294967295
 8004e24:	d103      	bne.n	8004e2e <vListInsert+0x20>
	{
		pxIterator = pxList->xListEnd.pxPrevious;
 8004e26:	687b      	ldr	r3, [r7, #4]
 8004e28:	691b      	ldr	r3, [r3, #16]
 8004e2a:	60fb      	str	r3, [r7, #12]
 8004e2c:	e00c      	b.n	8004e48 <vListInsert+0x3a>
			4) Using a queue or semaphore before it has been initialised or
			   before the scheduler has been started (are interrupts firing
			   before vTaskStartScheduler() has been called?).
		**********************************************************************/

		for( pxIterator = ( ListItem_t * ) &( pxList->xListEnd ); pxIterator->pxNext->xItemValue <= xValueOfInsertion; pxIterator = pxIterator->pxNext ) /*lint !e826 !e740 !e9087 The mini list structure is used as the list end to save RAM.  This is checked and valid. *//*lint !e440 The iterator moves to a different value, not xValueOfInsertion. */
 8004e2e:	687b      	ldr	r3, [r7, #4]
 8004e30:	3308      	adds	r3, #8
 8004e32:	60fb      	str	r3, [r7, #12]
 8004e34:	e002      	b.n	8004e3c <vListInsert+0x2e>
 8004e36:	68fb      	ldr	r3, [r7, #12]
 8004e38:	685b      	ldr	r3, [r3, #4]
 8004e3a:	60fb      	str	r3, [r7, #12]
 8004e3c:	68fb      	ldr	r3, [r7, #12]
 8004e3e:	685b      	ldr	r3, [r3, #4]
 8004e40:	681b      	ldr	r3, [r3, #0]
 8004e42:	68ba      	ldr	r2, [r7, #8]
 8004e44:	429a      	cmp	r2, r3
 8004e46:	d2f6      	bcs.n	8004e36 <vListInsert+0x28>
			/* There is nothing to do here, just iterating to the wanted
			insertion position. */
		}
	}

	pxNewListItem->pxNext = pxIterator->pxNext;
 8004e48:	68fb      	ldr	r3, [r7, #12]
 8004e4a:	685a      	ldr	r2, [r3, #4]
 8004e4c:	683b      	ldr	r3, [r7, #0]
 8004e4e:	605a      	str	r2, [r3, #4]
	pxNewListItem->pxNext->pxPrevious = pxNewListItem;
 8004e50:	683b      	ldr	r3, [r7, #0]
 8004e52:	685b      	ldr	r3, [r3, #4]
 8004e54:	683a      	ldr	r2, [r7, #0]
 8004e56:	609a      	str	r2, [r3, #8]
	pxNewListItem->pxPrevious = pxIterator;
 8004e58:	683b      	ldr	r3, [r7, #0]
 8004e5a:	68fa      	ldr	r2, [r7, #12]
 8004e5c:	609a      	str	r2, [r3, #8]
	pxIterator->pxNext = pxNewListItem;
 8004e5e:	68fb      	ldr	r3, [r7, #12]
 8004e60:	683a      	ldr	r2, [r7, #0]
 8004e62:	605a      	str	r2, [r3, #4]

	/* Remember which list the item is in.  This allows fast removal of the
	item later. */
	pxNewListItem->pxContainer = pxList;
 8004e64:	683b      	ldr	r3, [r7, #0]
 8004e66:	687a      	ldr	r2, [r7, #4]
 8004e68:	611a      	str	r2, [r3, #16]

	( pxList->uxNumberOfItems )++;
 8004e6a:	687b      	ldr	r3, [r7, #4]
 8004e6c:	681b      	ldr	r3, [r3, #0]
 8004e6e:	1c5a      	adds	r2, r3, #1
 8004e70:	687b      	ldr	r3, [r7, #4]
 8004e72:	601a      	str	r2, [r3, #0]
}
 8004e74:	bf00      	nop
 8004e76:	3714      	adds	r7, #20
 8004e78:	46bd      	mov	sp, r7
 8004e7a:	f85d 7b04 	ldr.w	r7, [sp], #4
 8004e7e:	4770      	bx	lr

08004e80 <uxListRemove>:
/*-----------------------------------------------------------*/

UBaseType_t uxListRemove( ListItem_t * const pxItemToRemove )
{
 8004e80:	b480      	push	{r7}
 8004e82:	b085      	sub	sp, #20
 8004e84:	af00      	add	r7, sp, #0
 8004e86:	6078      	str	r0, [r7, #4]
/* The list item knows which list it is in.  Obtain the list from the list
item. */
List_t * const pxList = pxItemToRemove->pxContainer;
 8004e88:	687b      	ldr	r3, [r7, #4]
 8004e8a:	691b      	ldr	r3, [r3, #16]
 8004e8c:	60fb      	str	r3, [r7, #12]

	pxItemToRemove->pxNext->pxPrevious = pxItemToRemove->pxPrevious;
 8004e8e:	687b      	ldr	r3, [r7, #4]
 8004e90:	685b      	ldr	r3, [r3, #4]
 8004e92:	687a      	ldr	r2, [r7, #4]
 8004e94:	6892      	ldr	r2, [r2, #8]
 8004e96:	609a      	str	r2, [r3, #8]
	pxItemToRemove->pxPrevious->pxNext = pxItemToRemove->pxNext;
 8004e98:	687b      	ldr	r3, [r7, #4]
 8004e9a:	689b      	ldr	r3, [r3, #8]
 8004e9c:	687a      	ldr	r2, [r7, #4]
 8004e9e:	6852      	ldr	r2, [r2, #4]
 8004ea0:	605a      	str	r2, [r3, #4]

	/* Only used during decision coverage testing. */
	mtCOVERAGE_TEST_DELAY();

	/* Make sure the index is left pointing to a valid item. */
	if( pxList->pxIndex == pxItemToRemove )
 8004ea2:	68fb      	ldr	r3, [r7, #12]
 8004ea4:	685b      	ldr	r3, [r3, #4]
 8004ea6:	687a      	ldr	r2, [r7, #4]
 8004ea8:	429a      	cmp	r2, r3
 8004eaa:	d103      	bne.n	8004eb4 <uxListRemove+0x34>
	{
		pxList->pxIndex = pxItemToRemove->pxPrevious;
 8004eac:	687b      	ldr	r3, [r7, #4]
 8004eae:	689a      	ldr	r2, [r3, #8]
 8004eb0:	68fb      	ldr	r3, [r7, #12]
 8004eb2:	605a      	str	r2, [r3, #4]
	else
	{
		mtCOVERAGE_TEST_MARKER();
	}

	pxItemToRemove->pxContainer = NULL;
 8004eb4:	687b      	ldr	r3, [r7, #4]
 8004eb6:	2200      	movs	r2, #0
 8004eb8:	611a      	str	r2, [r3, #16]
	( pxList->uxNumberOfItems )--;
 8004eba:	68fb      	ldr	r3, [r7, #12]
 8004ebc:	681b      	ldr	r3, [r3, #0]
 8004ebe:	1e5a      	subs	r2, r3, #1
 8004ec0:	68fb      	ldr	r3, [r7, #12]
 8004ec2:	601a      	str	r2, [r3, #0]

	return pxList->uxNumberOfItems;
 8004ec4:	68fb      	ldr	r3, [r7, #12]
 8004ec6:	681b      	ldr	r3, [r3, #0]
}
 8004ec8:	4618      	mov	r0, r3
 8004eca:	3714      	adds	r7, #20
 8004ecc:	46bd      	mov	sp, r7
 8004ece:	f85d 7b04 	ldr.w	r7, [sp], #4
 8004ed2:	4770      	bx	lr

08004ed4 <xQueueGenericReset>:
	}														\
	taskEXIT_CRITICAL()
/*-----------------------------------------------------------*/

BaseType_t xQueueGenericReset( QueueHandle_t xQueue, BaseType_t xNewQueue )
{
 8004ed4:	b580      	push	{r7, lr}
 8004ed6:	b084      	sub	sp, #16
 8004ed8:	af00      	add	r7, sp, #0
 8004eda:	6078      	str	r0, [r7, #4]
 8004edc:	6039      	str	r1, [r7, #0]
Queue_t * const pxQueue = xQueue;
 8004ede:	687b      	ldr	r3, [r7, #4]
 8004ee0:	60fb      	str	r3, [r7, #12]

	configASSERT( pxQueue );
 8004ee2:	68fb      	ldr	r3, [r7, #12]
 8004ee4:	2b00      	cmp	r3, #0
 8004ee6:	d10b      	bne.n	8004f00 <xQueueGenericReset+0x2c>

portFORCE_INLINE static void vPortRaiseBASEPRI( void )
{
uint32_t ulNewBASEPRI;

	__asm volatile
 8004ee8:	f04f 0350 	mov.w	r3, #80	@ 0x50
 8004eec:	f383 8811 	msr	BASEPRI, r3
 8004ef0:	f3bf 8f6f 	isb	sy
 8004ef4:	f3bf 8f4f 	dsb	sy
 8004ef8:	60bb      	str	r3, [r7, #8]
		"	msr basepri, %0											\n" \
		"	isb														\n" \
		"	dsb														\n" \
		:"=r" (ulNewBASEPRI) : "i" ( configMAX_SYSCALL_INTERRUPT_PRIORITY ) : "memory"
	);
}
 8004efa:	bf00      	nop
 8004efc:	bf00      	nop
 8004efe:	e7fd      	b.n	8004efc <xQueueGenericReset+0x28>

	taskENTER_CRITICAL();
 8004f00:	f001 fc62 	bl	80067c8 <vPortEnterCritical>
	{
		pxQueue->u.xQueue.pcTail = pxQueue->pcHead + ( pxQueue->uxLength * pxQueue->uxItemSize ); /*lint !e9016 Pointer arithmetic allowed on char types, especially when it assists conveying intent. */
 8004f04:	68fb      	ldr	r3, [r7, #12]
 8004f06:	681a      	ldr	r2, [r3, #0]
 8004f08:	68fb      	ldr	r3, [r7, #12]
 8004f0a:	6bdb      	ldr	r3, [r3, #60]	@ 0x3c
 8004f0c:	68f9      	ldr	r1, [r7, #12]
 8004f0e:	6c09      	ldr	r1, [r1, #64]	@ 0x40
 8004f10:	fb01 f303 	mul.w	r3, r1, r3
 8004f14:	441a      	add	r2, r3
 8004f16:	68fb      	ldr	r3, [r7, #12]
 8004f18:	609a      	str	r2, [r3, #8]
		pxQueue->uxMessagesWaiting = ( UBaseType_t ) 0U;
 8004f1a:	68fb      	ldr	r3, [r7, #12]
 8004f1c:	2200      	movs	r2, #0
 8004f1e:	639a      	str	r2, [r3, #56]	@ 0x38
		pxQueue->pcWriteTo = pxQueue->pcHead;
 8004f20:	68fb      	ldr	r3, [r7, #12]
 8004f22:	681a      	ldr	r2, [r3, #0]
 8004f24:	68fb      	ldr	r3, [r7, #12]
 8004f26:	605a      	str	r2, [r3, #4]
		pxQueue->u.xQueue.pcReadFrom = pxQueue->pcHead + ( ( pxQueue->uxLength - 1U ) * pxQueue->uxItemSize ); /*lint !e9016 Pointer arithmetic allowed on char types, especially when it assists conveying intent. */
 8004f28:	68fb      	ldr	r3, [r7, #12]
 8004f2a:	681a      	ldr	r2, [r3, #0]
 8004f2c:	68fb      	ldr	r3, [r7, #12]
 8004f2e:	6bdb      	ldr	r3, [r3, #60]	@ 0x3c
 8004f30:	3b01      	subs	r3, #1
 8004f32:	68f9      	ldr	r1, [r7, #12]
 8004f34:	6c09      	ldr	r1, [r1, #64]	@ 0x40
 8004f36:	fb01 f303 	mul.w	r3, r1, r3
 8004f3a:	441a      	add	r2, r3
 8004f3c:	68fb      	ldr	r3, [r7, #12]
 8004f3e:	60da      	str	r2, [r3, #12]
		pxQueue->cRxLock = queueUNLOCKED;
 8004f40:	68fb      	ldr	r3, [r7, #12]
 8004f42:	22ff      	movs	r2, #255	@ 0xff
 8004f44:	f883 2044 	strb.w	r2, [r3, #68]	@ 0x44
		pxQueue->cTxLock = queueUNLOCKED;
 8004f48:	68fb      	ldr	r3, [r7, #12]
 8004f4a:	22ff      	movs	r2, #255	@ 0xff
 8004f4c:	f883 2045 	strb.w	r2, [r3, #69]	@ 0x45

		if( xNewQueue == pdFALSE )
 8004f50:	683b      	ldr	r3, [r7, #0]
 8004f52:	2b00      	cmp	r3, #0
 8004f54:	d114      	bne.n	8004f80 <xQueueGenericReset+0xac>
			/* If there are tasks blocked waiting to read from the queue, then
			the tasks will remain blocked as after this function exits the queue
			will still be empty.  If there are tasks blocked waiting to write to
			the queue, then one should be unblocked as after this function exits
			it will be possible to write to it. */
			if( listLIST_IS_EMPTY( &( pxQueue->xTasksWaitingToSend ) ) == pdFALSE )
 8004f56:	68fb      	ldr	r3, [r7, #12]
 8004f58:	691b      	ldr	r3, [r3, #16]
 8004f5a:	2b00      	cmp	r3, #0
 8004f5c:	d01a      	beq.n	8004f94 <xQueueGenericReset+0xc0>
			{
				if( xTaskRemoveFromEventList( &( pxQueue->xTasksWaitingToSend ) ) != pdFALSE )
 8004f5e:	68fb      	ldr	r3, [r7, #12]
 8004f60:	3310      	adds	r3, #16
 8004f62:	4618      	mov	r0, r3
 8004f64:	f001 f84e 	bl	8006004 <xTaskRemoveFromEventList>
 8004f68:	4603      	mov	r3, r0
 8004f6a:	2b00      	cmp	r3, #0
 8004f6c:	d012      	beq.n	8004f94 <xQueueGenericReset+0xc0>
				{
					queueYIELD_IF_USING_PREEMPTION();
 8004f6e:	4b0d      	ldr	r3, [pc, #52]	@ (8004fa4 <xQueueGenericReset+0xd0>)
 8004f70:	f04f 5280 	mov.w	r2, #268435456	@ 0x10000000
 8004f74:	601a      	str	r2, [r3, #0]
 8004f76:	f3bf 8f4f 	dsb	sy
 8004f7a:	f3bf 8f6f 	isb	sy
 8004f7e:	e009      	b.n	8004f94 <xQueueGenericReset+0xc0>
			}
		}
		else
		{
			/* Ensure the event queues start in the correct state. */
			vListInitialise( &( pxQueue->xTasksWaitingToSend ) );
 8004f80:	68fb      	ldr	r3, [r7, #12]
 8004f82:	3310      	adds	r3, #16
 8004f84:	4618      	mov	r0, r3
 8004f86:	f7ff fef1 	bl	8004d6c <vListInitialise>
			vListInitialise( &( pxQueue->xTasksWaitingToReceive ) );
 8004f8a:	68fb      	ldr	r3, [r7, #12]
 8004f8c:	3324      	adds	r3, #36	@ 0x24
 8004f8e:	4618      	mov	r0, r3
 8004f90:	f7ff feec 	bl	8004d6c <vListInitialise>
		}
	}
	taskEXIT_CRITICAL();
 8004f94:	f001 fc4a 	bl	800682c <vPortExitCritical>

	/* A value is returned for calling semantic consistency with previous
	versions. */
	return pdPASS;
 8004f98:	2301      	movs	r3, #1
}
 8004f9a:	4618      	mov	r0, r3
 8004f9c:	3710      	adds	r7, #16
 8004f9e:	46bd      	mov	sp, r7
 8004fa0:	bd80      	pop	{r7, pc}
 8004fa2:	bf00      	nop
 8004fa4:	e000ed04 	.word	0xe000ed04

08004fa8 <xQueueGenericCreate>:
/*-----------------------------------------------------------*/

#if( configSUPPORT_DYNAMIC_ALLOCATION == 1 )

	QueueHandle_t xQueueGenericCreate( const UBaseType_t uxQueueLength, const UBaseType_t uxItemSize, const uint8_t ucQueueType )
	{
 8004fa8:	b580      	push	{r7, lr}
 8004faa:	b08a      	sub	sp, #40	@ 0x28
 8004fac:	af02      	add	r7, sp, #8
 8004fae:	60f8      	str	r0, [r7, #12]
 8004fb0:	60b9      	str	r1, [r7, #8]
 8004fb2:	4613      	mov	r3, r2
 8004fb4:	71fb      	strb	r3, [r7, #7]
	Queue_t *pxNewQueue;
	size_t xQueueSizeInBytes;
	uint8_t *pucQueueStorage;

		configASSERT( uxQueueLength > ( UBaseType_t ) 0 );
 8004fb6:	68fb      	ldr	r3, [r7, #12]
 8004fb8:	2b00      	cmp	r3, #0
 8004fba:	d10b      	bne.n	8004fd4 <xQueueGenericCreate+0x2c>
	__asm volatile
 8004fbc:	f04f 0350 	mov.w	r3, #80	@ 0x50
 8004fc0:	f383 8811 	msr	BASEPRI, r3
 8004fc4:	f3bf 8f6f 	isb	sy
 8004fc8:	f3bf 8f4f 	dsb	sy
 8004fcc:	613b      	str	r3, [r7, #16]
}
 8004fce:	bf00      	nop
 8004fd0:	bf00      	nop
 8004fd2:	e7fd      	b.n	8004fd0 <xQueueGenericCreate+0x28>

		/* Allocate enough space to hold the maximum number of items that
		can be in the queue at any time.  It is valid for uxItemSize to be
		zero in the case the queue is used as a semaphore. */
		xQueueSizeInBytes = ( size_t ) ( uxQueueLength * uxItemSize ); /*lint !e961 MISRA exception as the casts are only redundant for some ports. */
 8004fd4:	68fb      	ldr	r3, [r7, #12]
 8004fd6:	68ba      	ldr	r2, [r7, #8]
 8004fd8:	fb02 f303 	mul.w	r3, r2, r3
 8004fdc:	61fb      	str	r3, [r7, #28]
		alignment requirements of the Queue_t structure - which in this case
		is an int8_t *.  Therefore, whenever the stack alignment requirements
		are greater than or equal to the pointer to char requirements the cast
		is safe.  In other cases alignment requirements are not strict (one or
		two bytes). */
		pxNewQueue = ( Queue_t * ) pvPortMalloc( sizeof( Queue_t ) + xQueueSizeInBytes ); /*lint !e9087 !e9079 see comment above. */
 8004fde:	69fb      	ldr	r3, [r7, #28]
 8004fe0:	3348      	adds	r3, #72	@ 0x48
 8004fe2:	4618      	mov	r0, r3
 8004fe4:	f001 fd12 	bl	8006a0c <pvPortMalloc>
 8004fe8:	61b8      	str	r0, [r7, #24]

		if( pxNewQueue != NULL )
 8004fea:	69bb      	ldr	r3, [r7, #24]
 8004fec:	2b00      	cmp	r3, #0
 8004fee:	d00d      	beq.n	800500c <xQueueGenericCreate+0x64>
		{
			/* Jump past the queue structure to find the location of the queue
			storage area. */
			pucQueueStorage = ( uint8_t * ) pxNewQueue;
 8004ff0:	69bb      	ldr	r3, [r7, #24]
 8004ff2:	617b      	str	r3, [r7, #20]
			pucQueueStorage += sizeof( Queue_t ); /*lint !e9016 Pointer arithmetic allowed on char types, especially when it assists conveying intent. */
 8004ff4:	697b      	ldr	r3, [r7, #20]
 8004ff6:	3348      	adds	r3, #72	@ 0x48
 8004ff8:	617b      	str	r3, [r7, #20]
				deleted. */
				pxNewQueue->ucStaticallyAllocated = pdFALSE;
			}
			#endif /* configSUPPORT_STATIC_ALLOCATION */

			prvInitialiseNewQueue( uxQueueLength, uxItemSize, pucQueueStorage, ucQueueType, pxNewQueue );
 8004ffa:	79fa      	ldrb	r2, [r7, #7]
 8004ffc:	69bb      	ldr	r3, [r7, #24]
 8004ffe:	9300      	str	r3, [sp, #0]
 8005000:	4613      	mov	r3, r2
 8005002:	697a      	ldr	r2, [r7, #20]
 8005004:	68b9      	ldr	r1, [r7, #8]
 8005006:	68f8      	ldr	r0, [r7, #12]
 8005008:	f000 f805 	bl	8005016 <prvInitialiseNewQueue>
		{
			traceQUEUE_CREATE_FAILED( ucQueueType );
			mtCOVERAGE_TEST_MARKER();
		}

		return pxNewQueue;
 800500c:	69bb      	ldr	r3, [r7, #24]
	}
 800500e:	4618      	mov	r0, r3
 8005010:	3720      	adds	r7, #32
 8005012:	46bd      	mov	sp, r7
 8005014:	bd80      	pop	{r7, pc}

08005016 <prvInitialiseNewQueue>:

#endif /* configSUPPORT_STATIC_ALLOCATION */
/*-----------------------------------------------------------*/

static void prvInitialiseNewQueue( const UBaseType_t uxQueueLength, const UBaseType_t uxItemSize, uint8_t *pucQueueStorage, const uint8_t ucQueueType, Queue_t *pxNewQueue )
{
 8005016:	b580      	push	{r7, lr}
 8005018:	b084      	sub	sp, #16
 800501a:	af00      	add	r7, sp, #0
 800501c:	60f8      	str	r0, [r7, #12]
 800501e:	60b9      	str	r1, [r7, #8]
 8005020:	607a      	str	r2, [r7, #4]
 8005022:	70fb      	strb	r3, [r7, #3]
	/* Remove compiler warnings about unused parameters should
	configUSE_TRACE_FACILITY not be set to 1. */
	( void ) ucQueueType;

	if( uxItemSize == ( UBaseType_t ) 0 )
 8005024:	68bb      	ldr	r3, [r7, #8]
 8005026:	2b00      	cmp	r3, #0
 8005028:	d103      	bne.n	8005032 <prvInitialiseNewQueue+0x1c>
	{
		/* No RAM was allocated for the queue storage area, but PC head cannot
		be set to NULL because NULL is used as a key to say the queue is used as
		a mutex.  Therefore just set pcHead to point to the queue as a benign
		value that is known to be within the memory map. */
		pxNewQueue->pcHead = ( int8_t * ) pxNewQueue;
 800502a:	69bb      	ldr	r3, [r7, #24]
 800502c:	69ba      	ldr	r2, [r7, #24]
 800502e:	601a      	str	r2, [r3, #0]
 8005030:	e002      	b.n	8005038 <prvInitialiseNewQueue+0x22>
	}
	else
	{
		/* Set the head to the start of the queue storage area. */
		pxNewQueue->pcHead = ( int8_t * ) pucQueueStorage;
 8005032:	69bb      	ldr	r3, [r7, #24]
 8005034:	687a      	ldr	r2, [r7, #4]
 8005036:	601a      	str	r2, [r3, #0]
	}

	/* Initialise the queue members as described where the queue type is
	defined. */
	pxNewQueue->uxLength = uxQueueLength;
 8005038:	69bb      	ldr	r3, [r7, #24]
 800503a:	68fa      	ldr	r2, [r7, #12]
 800503c:	63da      	str	r2, [r3, #60]	@ 0x3c
	pxNewQueue->uxItemSize = uxItemSize;
 800503e:	69bb      	ldr	r3, [r7, #24]
 8005040:	68ba      	ldr	r2, [r7, #8]
 8005042:	641a      	str	r2, [r3, #64]	@ 0x40
	( void ) xQueueGenericReset( pxNewQueue, pdTRUE );
 8005044:	2101      	movs	r1, #1
 8005046:	69b8      	ldr	r0, [r7, #24]
 8005048:	f7ff ff44 	bl	8004ed4 <xQueueGenericReset>
		pxNewQueue->pxQueueSetContainer = NULL;
	}
	#endif /* configUSE_QUEUE_SETS */

	traceQUEUE_CREATE( pxNewQueue );
}
 800504c:	bf00      	nop
 800504e:	3710      	adds	r7, #16
 8005050:	46bd      	mov	sp, r7
 8005052:	bd80      	pop	{r7, pc}

08005054 <xQueueGenericSend>:

#endif /* ( ( configUSE_COUNTING_SEMAPHORES == 1 ) && ( configSUPPORT_DYNAMIC_ALLOCATION == 1 ) ) */
/*-----------------------------------------------------------*/

BaseType_t xQueueGenericSend( QueueHandle_t xQueue, const void * const pvItemToQueue, TickType_t xTicksToWait, const BaseType_t xCopyPosition )
{
 8005054:	b580      	push	{r7, lr}
 8005056:	b08e      	sub	sp, #56	@ 0x38
 8005058:	af00      	add	r7, sp, #0
 800505a:	60f8      	str	r0, [r7, #12]
 800505c:	60b9      	str	r1, [r7, #8]
 800505e:	607a      	str	r2, [r7, #4]
 8005060:	603b      	str	r3, [r7, #0]
BaseType_t xEntryTimeSet = pdFALSE, xYieldRequired;
 8005062:	2300      	movs	r3, #0
 8005064:	637b      	str	r3, [r7, #52]	@ 0x34
TimeOut_t xTimeOut;
Queue_t * const pxQueue = xQueue;
 8005066:	68fb      	ldr	r3, [r7, #12]
 8005068:	633b      	str	r3, [r7, #48]	@ 0x30

	configASSERT( pxQueue );
 800506a:	6b3b      	ldr	r3, [r7, #48]	@ 0x30
 800506c:	2b00      	cmp	r3, #0
 800506e:	d10b      	bne.n	8005088 <xQueueGenericSend+0x34>
	__asm volatile
 8005070:	f04f 0350 	mov.w	r3, #80	@ 0x50
 8005074:	f383 8811 	msr	BASEPRI, r3
 8005078:	f3bf 8f6f 	isb	sy
 800507c:	f3bf 8f4f 	dsb	sy
 8005080:	62bb      	str	r3, [r7, #40]	@ 0x28
}
 8005082:	bf00      	nop
 8005084:	bf00      	nop
 8005086:	e7fd      	b.n	8005084 <xQueueGenericSend+0x30>
	configASSERT( !( ( pvItemToQueue == NULL ) && ( pxQueue->uxItemSize != ( UBaseType_t ) 0U ) ) );
 8005088:	68bb      	ldr	r3, [r7, #8]
 800508a:	2b00      	cmp	r3, #0
 800508c:	d103      	bne.n	8005096 <xQueueGenericSend+0x42>
 800508e:	6b3b      	ldr	r3, [r7, #48]	@ 0x30
 8005090:	6c1b      	ldr	r3, [r3, #64]	@ 0x40
 8005092:	2b00      	cmp	r3, #0
 8005094:	d101      	bne.n	800509a <xQueueGenericSend+0x46>
 8005096:	2301      	movs	r3, #1
 8005098:	e000      	b.n	800509c <xQueueGenericSend+0x48>
 800509a:	2300      	movs	r3, #0
 800509c:	2b00      	cmp	r3, #0
 800509e:	d10b      	bne.n	80050b8 <xQueueGenericSend+0x64>
	__asm volatile
 80050a0:	f04f 0350 	mov.w	r3, #80	@ 0x50
 80050a4:	f383 8811 	msr	BASEPRI, r3
 80050a8:	f3bf 8f6f 	isb	sy
 80050ac:	f3bf 8f4f 	dsb	sy
 80050b0:	627b      	str	r3, [r7, #36]	@ 0x24
}
 80050b2:	bf00      	nop
 80050b4:	bf00      	nop
 80050b6:	e7fd      	b.n	80050b4 <xQueueGenericSend+0x60>
	configASSERT( !( ( xCopyPosition == queueOVERWRITE ) && ( pxQueue->uxLength != 1 ) ) );
 80050b8:	683b      	ldr	r3, [r7, #0]
 80050ba:	2b02      	cmp	r3, #2
 80050bc:	d103      	bne.n	80050c6 <xQueueGenericSend+0x72>
 80050be:	6b3b      	ldr	r3, [r7, #48]	@ 0x30
 80050c0:	6bdb      	ldr	r3, [r3, #60]	@ 0x3c
 80050c2:	2b01      	cmp	r3, #1
 80050c4:	d101      	bne.n	80050ca <xQueueGenericSend+0x76>
 80050c6:	2301      	movs	r3, #1
 80050c8:	e000      	b.n	80050cc <xQueueGenericSend+0x78>
 80050ca:	2300      	movs	r3, #0
 80050cc:	2b00      	cmp	r3, #0
 80050ce:	d10b      	bne.n	80050e8 <xQueueGenericSend+0x94>
	__asm volatile
 80050d0:	f04f 0350 	mov.w	r3, #80	@ 0x50
 80050d4:	f383 8811 	msr	BASEPRI, r3
 80050d8:	f3bf 8f6f 	isb	sy
 80050dc:	f3bf 8f4f 	dsb	sy
 80050e0:	623b      	str	r3, [r7, #32]
}
 80050e2:	bf00      	nop
 80050e4:	bf00      	nop
 80050e6:	e7fd      	b.n	80050e4 <xQueueGenericSend+0x90>
	#if ( ( INCLUDE_xTaskGetSchedulerState == 1 ) || ( configUSE_TIMERS == 1 ) )
	{
		configASSERT( !( ( xTaskGetSchedulerState() == taskSCHEDULER_SUSPENDED ) && ( xTicksToWait != 0 ) ) );
 80050e8:	f001 f932 	bl	8006350 <xTaskGetSchedulerState>
 80050ec:	4603      	mov	r3, r0
 80050ee:	2b00      	cmp	r3, #0
 80050f0:	d102      	bne.n	80050f8 <xQueueGenericSend+0xa4>
 80050f2:	687b      	ldr	r3, [r7, #4]
 80050f4:	2b00      	cmp	r3, #0
 80050f6:	d101      	bne.n	80050fc <xQueueGenericSend+0xa8>
 80050f8:	2301      	movs	r3, #1
 80050fa:	e000      	b.n	80050fe <xQueueGenericSend+0xaa>
 80050fc:	2300      	movs	r3, #0
 80050fe:	2b00      	cmp	r3, #0
 8005100:	d10b      	bne.n	800511a <xQueueGenericSend+0xc6>
	__asm volatile
 8005102:	f04f 0350 	mov.w	r3, #80	@ 0x50
 8005106:	f383 8811 	msr	BASEPRI, r3
 800510a:	f3bf 8f6f 	isb	sy
 800510e:	f3bf 8f4f 	dsb	sy
 8005112:	61fb      	str	r3, [r7, #28]
}
 8005114:	bf00      	nop
 8005116:	bf00      	nop
 8005118:	e7fd      	b.n	8005116 <xQueueGenericSend+0xc2>
	/*lint -save -e904 This function relaxes the coding standard somewhat to
	allow return statements within the function itself.  This is done in the
	interest of execution time efficiency. */
	for( ;; )
	{
		taskENTER_CRITICAL();
 800511a:	f001 fb55 	bl	80067c8 <vPortEnterCritical>
		{
			/* Is there room on the queue now?  The running task must be the
			highest priority task wanting to access the queue.  If the head item
			in the queue is to be overwritten then it does not matter if the
			queue is full. */
			if( ( pxQueue->uxMessagesWaiting < pxQueue->uxLength ) || ( xCopyPosition == queueOVERWRITE ) )
 800511e:	6b3b      	ldr	r3, [r7, #48]	@ 0x30
 8005120:	6b9a      	ldr	r2, [r3, #56]	@ 0x38
 8005122:	6b3b      	ldr	r3, [r7, #48]	@ 0x30
 8005124:	6bdb      	ldr	r3, [r3, #60]	@ 0x3c
 8005126:	429a      	cmp	r2, r3
 8005128:	d302      	bcc.n	8005130 <xQueueGenericSend+0xdc>
 800512a:	683b      	ldr	r3, [r7, #0]
 800512c:	2b02      	cmp	r3, #2
 800512e:	d129      	bne.n	8005184 <xQueueGenericSend+0x130>
						}
					}
				}
				#else /* configUSE_QUEUE_SETS */
				{
					xYieldRequired = prvCopyDataToQueue( pxQueue, pvItemToQueue, xCopyPosition );
 8005130:	683a      	ldr	r2, [r7, #0]
 8005132:	68b9      	ldr	r1, [r7, #8]
 8005134:	6b38      	ldr	r0, [r7, #48]	@ 0x30
 8005136:	f000 fa91 	bl	800565c <prvCopyDataToQueue>
 800513a:	62f8      	str	r0, [r7, #44]	@ 0x2c

					/* If there was a task waiting for data to arrive on the
					queue then unblock it now. */
					if( listLIST_IS_EMPTY( &( pxQueue->xTasksWaitingToReceive ) ) == pdFALSE )
 800513c:	6b3b      	ldr	r3, [r7, #48]	@ 0x30
 800513e:	6a5b      	ldr	r3, [r3, #36]	@ 0x24
 8005140:	2b00      	cmp	r3, #0
 8005142:	d010      	beq.n	8005166 <xQueueGenericSend+0x112>
					{
						if( xTaskRemoveFromEventList( &( pxQueue->xTasksWaitingToReceive ) ) != pdFALSE )
 8005144:	6b3b      	ldr	r3, [r7, #48]	@ 0x30
 8005146:	3324      	adds	r3, #36	@ 0x24
 8005148:	4618      	mov	r0, r3
 800514a:	f000 ff5b 	bl	8006004 <xTaskRemoveFromEventList>
 800514e:	4603      	mov	r3, r0
 8005150:	2b00      	cmp	r3, #0
 8005152:	d013      	beq.n	800517c <xQueueGenericSend+0x128>
						{
							/* The unblocked task has a priority higher than
							our own so yield immediately.  Yes it is ok to do
							this from within the critical section - the kernel
							takes care of that. */
							queueYIELD_IF_USING_PREEMPTION();
 8005154:	4b3f      	ldr	r3, [pc, #252]	@ (8005254 <xQueueGenericSend+0x200>)
 8005156:	f04f 5280 	mov.w	r2, #268435456	@ 0x10000000
 800515a:	601a      	str	r2, [r3, #0]
 800515c:	f3bf 8f4f 	dsb	sy
 8005160:	f3bf 8f6f 	isb	sy
 8005164:	e00a      	b.n	800517c <xQueueGenericSend+0x128>
						else
						{
							mtCOVERAGE_TEST_MARKER();
						}
					}
					else if( xYieldRequired != pdFALSE )
 8005166:	6afb      	ldr	r3, [r7, #44]	@ 0x2c
 8005168:	2b00      	cmp	r3, #0
 800516a:	d007      	beq.n	800517c <xQueueGenericSend+0x128>
					{
						/* This path is a special case that will only get
						executed if the task was holding multiple mutexes and
						the mutexes were given back in an order that is
						different to that in which they were taken. */
						queueYIELD_IF_USING_PREEMPTION();
 800516c:	4b39      	ldr	r3, [pc, #228]	@ (8005254 <xQueueGenericSend+0x200>)
 800516e:	f04f 5280 	mov.w	r2, #268435456	@ 0x10000000
 8005172:	601a      	str	r2, [r3, #0]
 8005174:	f3bf 8f4f 	dsb	sy
 8005178:	f3bf 8f6f 	isb	sy
						mtCOVERAGE_TEST_MARKER();
					}
				}
				#endif /* configUSE_QUEUE_SETS */

				taskEXIT_CRITICAL();
 800517c:	f001 fb56 	bl	800682c <vPortExitCritical>
				return pdPASS;
 8005180:	2301      	movs	r3, #1
 8005182:	e063      	b.n	800524c <xQueueGenericSend+0x1f8>
			}
			else
			{
				if( xTicksToWait == ( TickType_t ) 0 )
 8005184:	687b      	ldr	r3, [r7, #4]
 8005186:	2b00      	cmp	r3, #0
 8005188:	d103      	bne.n	8005192 <xQueueGenericSend+0x13e>
				{
					/* The queue was full and no block time is specified (or
					the block time has expired) so leave now. */
					taskEXIT_CRITICAL();
 800518a:	f001 fb4f 	bl	800682c <vPortExitCritical>

					/* Return to the original privilege level before exiting
					the function. */
					traceQUEUE_SEND_FAILED( pxQueue );
					return errQUEUE_FULL;
 800518e:	2300      	movs	r3, #0
 8005190:	e05c      	b.n	800524c <xQueueGenericSend+0x1f8>
				}
				else if( xEntryTimeSet == pdFALSE )
 8005192:	6b7b      	ldr	r3, [r7, #52]	@ 0x34
 8005194:	2b00      	cmp	r3, #0
 8005196:	d106      	bne.n	80051a6 <xQueueGenericSend+0x152>
				{
					/* The queue was full and a block time was specified so
					configure the timeout structure. */
					vTaskInternalSetTimeOutState( &xTimeOut );
 8005198:	f107 0314 	add.w	r3, r7, #20
 800519c:	4618      	mov	r0, r3
 800519e:	f000 ff95 	bl	80060cc <vTaskInternalSetTimeOutState>
					xEntryTimeSet = pdTRUE;
 80051a2:	2301      	movs	r3, #1
 80051a4:	637b      	str	r3, [r7, #52]	@ 0x34
					/* Entry time was already set. */
					mtCOVERAGE_TEST_MARKER();
				}
			}
		}
		taskEXIT_CRITICAL();
 80051a6:	f001 fb41 	bl	800682c <vPortExitCritical>

		/* Interrupts and other tasks can send to and receive from the queue
		now the critical section has been exited. */

		vTaskSuspendAll();
 80051aa:	f000 fd3b 	bl	8005c24 <vTaskSuspendAll>
		prvLockQueue( pxQueue );
 80051ae:	f001 fb0b 	bl	80067c8 <vPortEnterCritical>
 80051b2:	6b3b      	ldr	r3, [r7, #48]	@ 0x30
 80051b4:	f893 3044 	ldrb.w	r3, [r3, #68]	@ 0x44
 80051b8:	b25b      	sxtb	r3, r3
 80051ba:	f1b3 3fff 	cmp.w	r3, #4294967295
 80051be:	d103      	bne.n	80051c8 <xQueueGenericSend+0x174>
 80051c0:	6b3b      	ldr	r3, [r7, #48]	@ 0x30
 80051c2:	2200      	movs	r2, #0
 80051c4:	f883 2044 	strb.w	r2, [r3, #68]	@ 0x44
 80051c8:	6b3b      	ldr	r3, [r7, #48]	@ 0x30
 80051ca:	f893 3045 	ldrb.w	r3, [r3, #69]	@ 0x45
 80051ce:	b25b      	sxtb	r3, r3
 80051d0:	f1b3 3fff 	cmp.w	r3, #4294967295
 80051d4:	d103      	bne.n	80051de <xQueueGenericSend+0x18a>
 80051d6:	6b3b      	ldr	r3, [r7, #48]	@ 0x30
 80051d8:	2200      	movs	r2, #0
 80051da:	f883 2045 	strb.w	r2, [r3, #69]	@ 0x45
 80051de:	f001 fb25 	bl	800682c <vPortExitCritical>

		/* Update the timeout state to see if it has expired yet. */
		if( xTaskCheckForTimeOut( &xTimeOut, &xTicksToWait ) == pdFALSE )
 80051e2:	1d3a      	adds	r2, r7, #4
 80051e4:	f107 0314 	add.w	r3, r7, #20
 80051e8:	4611      	mov	r1, r2
 80051ea:	4618      	mov	r0, r3
 80051ec:	f000 ff84 	bl	80060f8 <xTaskCheckForTimeOut>
 80051f0:	4603      	mov	r3, r0
 80051f2:	2b00      	cmp	r3, #0
 80051f4:	d124      	bne.n	8005240 <xQueueGenericSend+0x1ec>
		{
			if( prvIsQueueFull( pxQueue ) != pdFALSE )
 80051f6:	6b38      	ldr	r0, [r7, #48]	@ 0x30
 80051f8:	f000 fb28 	bl	800584c <prvIsQueueFull>
 80051fc:	4603      	mov	r3, r0
 80051fe:	2b00      	cmp	r3, #0
 8005200:	d018      	beq.n	8005234 <xQueueGenericSend+0x1e0>
			{
				traceBLOCKING_ON_QUEUE_SEND( pxQueue );
				vTaskPlaceOnEventList( &( pxQueue->xTasksWaitingToSend ), xTicksToWait );
 8005202:	6b3b      	ldr	r3, [r7, #48]	@ 0x30
 8005204:	3310      	adds	r3, #16
 8005206:	687a      	ldr	r2, [r7, #4]
 8005208:	4611      	mov	r1, r2
 800520a:	4618      	mov	r0, r3
 800520c:	f000 fed4 	bl	8005fb8 <vTaskPlaceOnEventList>
				/* Unlocking the queue means queue events can effect the
				event list.  It is possible that interrupts occurring now
				remove this task from the event list again - but as the
				scheduler is suspended the task will go onto the pending
				ready last instead of the actual ready list. */
				prvUnlockQueue( pxQueue );
 8005210:	6b38      	ldr	r0, [r7, #48]	@ 0x30
 8005212:	f000 fab3 	bl	800577c <prvUnlockQueue>
				/* Resuming the scheduler will move tasks from the pending
				ready list into the ready list - so it is feasible that this
				task is already in a ready list before it yields - in which
				case the yield will not cause a context switch unless there
				is also a higher priority task in the pending ready list. */
				if( xTaskResumeAll() == pdFALSE )
 8005216:	f000 fd13 	bl	8005c40 <xTaskResumeAll>
 800521a:	4603      	mov	r3, r0
 800521c:	2b00      	cmp	r3, #0
 800521e:	f47f af7c 	bne.w	800511a <xQueueGenericSend+0xc6>
				{
					portYIELD_WITHIN_API();
 8005222:	4b0c      	ldr	r3, [pc, #48]	@ (8005254 <xQueueGenericSend+0x200>)
 8005224:	f04f 5280 	mov.w	r2, #268435456	@ 0x10000000
 8005228:	601a      	str	r2, [r3, #0]
 800522a:	f3bf 8f4f 	dsb	sy
 800522e:	f3bf 8f6f 	isb	sy
 8005232:	e772      	b.n	800511a <xQueueGenericSend+0xc6>
				}
			}
			else
			{
				/* Try again. */
				prvUnlockQueue( pxQueue );
 8005234:	6b38      	ldr	r0, [r7, #48]	@ 0x30
 8005236:	f000 faa1 	bl	800577c <prvUnlockQueue>
				( void ) xTaskResumeAll();
 800523a:	f000 fd01 	bl	8005c40 <xTaskResumeAll>
 800523e:	e76c      	b.n	800511a <xQueueGenericSend+0xc6>
			}
		}
		else
		{
			/* The timeout has expired. */
			prvUnlockQueue( pxQueue );
 8005240:	6b38      	ldr	r0, [r7, #48]	@ 0x30
 8005242:	f000 fa9b 	bl	800577c <prvUnlockQueue>
			( void ) xTaskResumeAll();
 8005246:	f000 fcfb 	bl	8005c40 <xTaskResumeAll>

			traceQUEUE_SEND_FAILED( pxQueue );
			return errQUEUE_FULL;
 800524a:	2300      	movs	r3, #0
		}
	} /*lint -restore */
}
 800524c:	4618      	mov	r0, r3
 800524e:	3738      	adds	r7, #56	@ 0x38
 8005250:	46bd      	mov	sp, r7
 8005252:	bd80      	pop	{r7, pc}
 8005254:	e000ed04 	.word	0xe000ed04

08005258 <xQueueGenericSendFromISR>:
/*-----------------------------------------------------------*/

BaseType_t xQueueGenericSendFromISR( QueueHandle_t xQueue, const void * const pvItemToQueue, BaseType_t * const pxHigherPriorityTaskWoken, const BaseType_t xCopyPosition )
{
 8005258:	b580      	push	{r7, lr}
 800525a:	b090      	sub	sp, #64	@ 0x40
 800525c:	af00      	add	r7, sp, #0
 800525e:	60f8      	str	r0, [r7, #12]
 8005260:	60b9      	str	r1, [r7, #8]
 8005262:	607a      	str	r2, [r7, #4]
 8005264:	603b      	str	r3, [r7, #0]
BaseType_t xReturn;
UBaseType_t uxSavedInterruptStatus;
Queue_t * const pxQueue = xQueue;
 8005266:	68fb      	ldr	r3, [r7, #12]
 8005268:	63bb      	str	r3, [r7, #56]	@ 0x38

	configASSERT( pxQueue );
 800526a:	6bbb      	ldr	r3, [r7, #56]	@ 0x38
 800526c:	2b00      	cmp	r3, #0
 800526e:	d10b      	bne.n	8005288 <xQueueGenericSendFromISR+0x30>
	__asm volatile
 8005270:	f04f 0350 	mov.w	r3, #80	@ 0x50
 8005274:	f383 8811 	msr	BASEPRI, r3
 8005278:	f3bf 8f6f 	isb	sy
 800527c:	f3bf 8f4f 	dsb	sy
 8005280:	62bb      	str	r3, [r7, #40]	@ 0x28
}
 8005282:	bf00      	nop
 8005284:	bf00      	nop
 8005286:	e7fd      	b.n	8005284 <xQueueGenericSendFromISR+0x2c>
	configASSERT( !( ( pvItemToQueue == NULL ) && ( pxQueue->uxItemSize != ( UBaseType_t ) 0U ) ) );
 8005288:	68bb      	ldr	r3, [r7, #8]
 800528a:	2b00      	cmp	r3, #0
 800528c:	d103      	bne.n	8005296 <xQueueGenericSendFromISR+0x3e>
 800528e:	6bbb      	ldr	r3, [r7, #56]	@ 0x38
 8005290:	6c1b      	ldr	r3, [r3, #64]	@ 0x40
 8005292:	2b00      	cmp	r3, #0
 8005294:	d101      	bne.n	800529a <xQueueGenericSendFromISR+0x42>
 8005296:	2301      	movs	r3, #1
 8005298:	e000      	b.n	800529c <xQueueGenericSendFromISR+0x44>
 800529a:	2300      	movs	r3, #0
 800529c:	2b00      	cmp	r3, #0
 800529e:	d10b      	bne.n	80052b8 <xQueueGenericSendFromISR+0x60>
	__asm volatile
 80052a0:	f04f 0350 	mov.w	r3, #80	@ 0x50
 80052a4:	f383 8811 	msr	BASEPRI, r3
 80052a8:	f3bf 8f6f 	isb	sy
 80052ac:	f3bf 8f4f 	dsb	sy
 80052b0:	627b      	str	r3, [r7, #36]	@ 0x24
}
 80052b2:	bf00      	nop
 80052b4:	bf00      	nop
 80052b6:	e7fd      	b.n	80052b4 <xQueueGenericSendFromISR+0x5c>
	configASSERT( !( ( xCopyPosition == queueOVERWRITE ) && ( pxQueue->uxLength != 1 ) ) );
 80052b8:	683b      	ldr	r3, [r7, #0]
 80052ba:	2b02      	cmp	r3, #2
 80052bc:	d103      	bne.n	80052c6 <xQueueGenericSendFromISR+0x6e>
 80052be:	6bbb      	ldr	r3, [r7, #56]	@ 0x38
 80052c0:	6bdb      	ldr	r3, [r3, #60]	@ 0x3c
 80052c2:	2b01      	cmp	r3, #1
 80052c4:	d101      	bne.n	80052ca <xQueueGenericSendFromISR+0x72>
 80052c6:	2301      	movs	r3, #1
 80052c8:	e000      	b.n	80052cc <xQueueGenericSendFromISR+0x74>
 80052ca:	2300      	movs	r3, #0
 80052cc:	2b00      	cmp	r3, #0
 80052ce:	d10b      	bne.n	80052e8 <xQueueGenericSendFromISR+0x90>
	__asm volatile
 80052d0:	f04f 0350 	mov.w	r3, #80	@ 0x50
 80052d4:	f383 8811 	msr	BASEPRI, r3
 80052d8:	f3bf 8f6f 	isb	sy
 80052dc:	f3bf 8f4f 	dsb	sy
 80052e0:	623b      	str	r3, [r7, #32]
}
 80052e2:	bf00      	nop
 80052e4:	bf00      	nop
 80052e6:	e7fd      	b.n	80052e4 <xQueueGenericSendFromISR+0x8c>
	that have been assigned a priority at or (logically) below the maximum
	system call	interrupt priority.  FreeRTOS maintains a separate interrupt
	safe API to ensure interrupt entry is as fast and as simple as possible.
	More information (albeit Cortex-M specific) is provided on the following
	link: http://www.freertos.org/RTOS-Cortex-M3-M4.html */
	portASSERT_IF_INTERRUPT_PRIORITY_INVALID();
 80052e8:	f001 fb4e 	bl	8006988 <vPortValidateInterruptPriority>

portFORCE_INLINE static uint32_t ulPortRaiseBASEPRI( void )
{
uint32_t ulOriginalBASEPRI, ulNewBASEPRI;

	__asm volatile
 80052ec:	f3ef 8211 	mrs	r2, BASEPRI
 80052f0:	f04f 0350 	mov.w	r3, #80	@ 0x50
 80052f4:	f383 8811 	msr	BASEPRI, r3
 80052f8:	f3bf 8f6f 	isb	sy
 80052fc:	f3bf 8f4f 	dsb	sy
 8005300:	61fa      	str	r2, [r7, #28]
 8005302:	61bb      	str	r3, [r7, #24]
		:"=r" (ulOriginalBASEPRI), "=r" (ulNewBASEPRI) : "i" ( configMAX_SYSCALL_INTERRUPT_PRIORITY ) : "memory"
	);

	/* This return will not be reached but is necessary to prevent compiler
	warnings. */
	return ulOriginalBASEPRI;
 8005304:	69fb      	ldr	r3, [r7, #28]
	/* Similar to xQueueGenericSend, except without blocking if there is no room
	in the queue.  Also don't directly wake a task that was blocked on a queue
	read, instead return a flag to say whether a context switch is required or
	not (i.e. has a task with a higher priority than us been woken by this
	post). */
	uxSavedInterruptStatus = portSET_INTERRUPT_MASK_FROM_ISR();
 8005306:	637b      	str	r3, [r7, #52]	@ 0x34
	{
		if( ( pxQueue->uxMessagesWaiting < pxQueue->uxLength ) || ( xCopyPosition == queueOVERWRITE ) )
 8005308:	6bbb      	ldr	r3, [r7, #56]	@ 0x38
 800530a:	6b9a      	ldr	r2, [r3, #56]	@ 0x38
 800530c:	6bbb      	ldr	r3, [r7, #56]	@ 0x38
 800530e:	6bdb      	ldr	r3, [r3, #60]	@ 0x3c
 8005310:	429a      	cmp	r2, r3
 8005312:	d302      	bcc.n	800531a <xQueueGenericSendFromISR+0xc2>
 8005314:	683b      	ldr	r3, [r7, #0]
 8005316:	2b02      	cmp	r3, #2
 8005318:	d12f      	bne.n	800537a <xQueueGenericSendFromISR+0x122>
		{
			const int8_t cTxLock = pxQueue->cTxLock;
 800531a:	6bbb      	ldr	r3, [r7, #56]	@ 0x38
 800531c:	f893 3045 	ldrb.w	r3, [r3, #69]	@ 0x45
 8005320:	f887 3033 	strb.w	r3, [r7, #51]	@ 0x33
			const UBaseType_t uxPreviousMessagesWaiting = pxQueue->uxMessagesWaiting;
 8005324:	6bbb      	ldr	r3, [r7, #56]	@ 0x38
 8005326:	6b9b      	ldr	r3, [r3, #56]	@ 0x38
 8005328:	62fb      	str	r3, [r7, #44]	@ 0x2c
			/* Semaphores use xQueueGiveFromISR(), so pxQueue will not be a
			semaphore or mutex.  That means prvCopyDataToQueue() cannot result
			in a task disinheriting a priority and prvCopyDataToQueue() can be
			called here even though the disinherit function does not check if
			the scheduler is suspended before accessing the ready lists. */
			( void ) prvCopyDataToQueue( pxQueue, pvItemToQueue, xCopyPosition );
 800532a:	683a      	ldr	r2, [r7, #0]
 800532c:	68b9      	ldr	r1, [r7, #8]
 800532e:	6bb8      	ldr	r0, [r7, #56]	@ 0x38
 8005330:	f000 f994 	bl	800565c <prvCopyDataToQueue>

			/* The event list is not altered if the queue is locked.  This will
			be done when the queue is unlocked later. */
			if( cTxLock == queueUNLOCKED )
 8005334:	f997 3033 	ldrsb.w	r3, [r7, #51]	@ 0x33
 8005338:	f1b3 3fff 	cmp.w	r3, #4294967295
 800533c:	d112      	bne.n	8005364 <xQueueGenericSendFromISR+0x10c>
						}
					}
				}
				#else /* configUSE_QUEUE_SETS */
				{
					if( listLIST_IS_EMPTY( &( pxQueue->xTasksWaitingToReceive ) ) == pdFALSE )
 800533e:	6bbb      	ldr	r3, [r7, #56]	@ 0x38
 8005340:	6a5b      	ldr	r3, [r3, #36]	@ 0x24
 8005342:	2b00      	cmp	r3, #0
 8005344:	d016      	beq.n	8005374 <xQueueGenericSendFromISR+0x11c>
					{
						if( xTaskRemoveFromEventList( &( pxQueue->xTasksWaitingToReceive ) ) != pdFALSE )
 8005346:	6bbb      	ldr	r3, [r7, #56]	@ 0x38
 8005348:	3324      	adds	r3, #36	@ 0x24
 800534a:	4618      	mov	r0, r3
 800534c:	f000 fe5a 	bl	8006004 <xTaskRemoveFromEventList>
 8005350:	4603      	mov	r3, r0
 8005352:	2b00      	cmp	r3, #0
 8005354:	d00e      	beq.n	8005374 <xQueueGenericSendFromISR+0x11c>
						{
							/* The task waiting has a higher priority so record that a
							context	switch is required. */
							if( pxHigherPriorityTaskWoken != NULL )
 8005356:	687b      	ldr	r3, [r7, #4]
 8005358:	2b00      	cmp	r3, #0
 800535a:	d00b      	beq.n	8005374 <xQueueGenericSendFromISR+0x11c>
							{
								*pxHigherPriorityTaskWoken = pdTRUE;
 800535c:	687b      	ldr	r3, [r7, #4]
 800535e:	2201      	movs	r2, #1
 8005360:	601a      	str	r2, [r3, #0]
 8005362:	e007      	b.n	8005374 <xQueueGenericSendFromISR+0x11c>
			}
			else
			{
				/* Increment the lock count so the task that unlocks the queue
				knows that data was posted while it was locked. */
				pxQueue->cTxLock = ( int8_t ) ( cTxLock + 1 );
 8005364:	f897 3033 	ldrb.w	r3, [r7, #51]	@ 0x33
 8005368:	3301      	adds	r3, #1
 800536a:	b2db      	uxtb	r3, r3
 800536c:	b25a      	sxtb	r2, r3
 800536e:	6bbb      	ldr	r3, [r7, #56]	@ 0x38
 8005370:	f883 2045 	strb.w	r2, [r3, #69]	@ 0x45
			}

			xReturn = pdPASS;
 8005374:	2301      	movs	r3, #1
 8005376:	63fb      	str	r3, [r7, #60]	@ 0x3c
		{
 8005378:	e001      	b.n	800537e <xQueueGenericSendFromISR+0x126>
		}
		else
		{
			traceQUEUE_SEND_FROM_ISR_FAILED( pxQueue );
			xReturn = errQUEUE_FULL;
 800537a:	2300      	movs	r3, #0
 800537c:	63fb      	str	r3, [r7, #60]	@ 0x3c
 800537e:	6b7b      	ldr	r3, [r7, #52]	@ 0x34
 8005380:	617b      	str	r3, [r7, #20]
}
/*-----------------------------------------------------------*/

portFORCE_INLINE static void vPortSetBASEPRI( uint32_t ulNewMaskValue )
{
	__asm volatile
 8005382:	697b      	ldr	r3, [r7, #20]
 8005384:	f383 8811 	msr	BASEPRI, r3
	(
		"	msr basepri, %0	" :: "r" ( ulNewMaskValue ) : "memory"
	);
}
 8005388:	bf00      	nop
		}
	}
	portCLEAR_INTERRUPT_MASK_FROM_ISR( uxSavedInterruptStatus );

	return xReturn;
 800538a:	6bfb      	ldr	r3, [r7, #60]	@ 0x3c
}
 800538c:	4618      	mov	r0, r3
 800538e:	3740      	adds	r7, #64	@ 0x40
 8005390:	46bd      	mov	sp, r7
 8005392:	bd80      	pop	{r7, pc}

08005394 <xQueueReceive>:
	return xReturn;
}
/*-----------------------------------------------------------*/

BaseType_t xQueueReceive( QueueHandle_t xQueue, void * const pvBuffer, TickType_t xTicksToWait )
{
 8005394:	b580      	push	{r7, lr}
 8005396:	b08c      	sub	sp, #48	@ 0x30
 8005398:	af00      	add	r7, sp, #0
 800539a:	60f8      	str	r0, [r7, #12]
 800539c:	60b9      	str	r1, [r7, #8]
 800539e:	607a      	str	r2, [r7, #4]
BaseType_t xEntryTimeSet = pdFALSE;
 80053a0:	2300      	movs	r3, #0
 80053a2:	62fb      	str	r3, [r7, #44]	@ 0x2c
TimeOut_t xTimeOut;
Queue_t * const pxQueue = xQueue;
 80053a4:	68fb      	ldr	r3, [r7, #12]
 80053a6:	62bb      	str	r3, [r7, #40]	@ 0x28

	/* Check the pointer is not NULL. */
	configASSERT( ( pxQueue ) );
 80053a8:	6abb      	ldr	r3, [r7, #40]	@ 0x28
 80053aa:	2b00      	cmp	r3, #0
 80053ac:	d10b      	bne.n	80053c6 <xQueueReceive+0x32>
	__asm volatile
 80053ae:	f04f 0350 	mov.w	r3, #80	@ 0x50
 80053b2:	f383 8811 	msr	BASEPRI, r3
 80053b6:	f3bf 8f6f 	isb	sy
 80053ba:	f3bf 8f4f 	dsb	sy
 80053be:	623b      	str	r3, [r7, #32]
}
 80053c0:	bf00      	nop
 80053c2:	bf00      	nop
 80053c4:	e7fd      	b.n	80053c2 <xQueueReceive+0x2e>

	/* The buffer into which data is received can only be NULL if the data size
	is zero (so no data is copied into the buffer. */
	configASSERT( !( ( ( pvBuffer ) == NULL ) && ( ( pxQueue )->uxItemSize != ( UBaseType_t ) 0U ) ) );
 80053c6:	68bb      	ldr	r3, [r7, #8]
 80053c8:	2b00      	cmp	r3, #0
 80053ca:	d103      	bne.n	80053d4 <xQueueReceive+0x40>
 80053cc:	6abb      	ldr	r3, [r7, #40]	@ 0x28
 80053ce:	6c1b      	ldr	r3, [r3, #64]	@ 0x40
 80053d0:	2b00      	cmp	r3, #0
 80053d2:	d101      	bne.n	80053d8 <xQueueReceive+0x44>
 80053d4:	2301      	movs	r3, #1
 80053d6:	e000      	b.n	80053da <xQueueReceive+0x46>
 80053d8:	2300      	movs	r3, #0
 80053da:	2b00      	cmp	r3, #0
 80053dc:	d10b      	bne.n	80053f6 <xQueueReceive+0x62>
	__asm volatile
 80053de:	f04f 0350 	mov.w	r3, #80	@ 0x50
 80053e2:	f383 8811 	msr	BASEPRI, r3
 80053e6:	f3bf 8f6f 	isb	sy
 80053ea:	f3bf 8f4f 	dsb	sy
 80053ee:	61fb      	str	r3, [r7, #28]
}
 80053f0:	bf00      	nop
 80053f2:	bf00      	nop
 80053f4:	e7fd      	b.n	80053f2 <xQueueReceive+0x5e>

	/* Cannot block if the scheduler is suspended. */
	#if ( ( INCLUDE_xTaskGetSchedulerState == 1 ) || ( configUSE_TIMERS == 1 ) )
	{
		configASSERT( !( ( xTaskGetSchedulerState() == taskSCHEDULER_SUSPENDED ) && ( xTicksToWait != 0 ) ) );
 80053f6:	f000 ffab 	bl	8006350 <xTaskGetSchedulerState>
 80053fa:	4603      	mov	r3, r0
 80053fc:	2b00      	cmp	r3, #0
 80053fe:	d102      	bne.n	8005406 <xQueueReceive+0x72>
 8005400:	687b      	ldr	r3, [r7, #4]
 8005402:	2b00      	cmp	r3, #0
 8005404:	d101      	bne.n	800540a <xQueueReceive+0x76>
 8005406:	2301      	movs	r3, #1
 8005408:	e000      	b.n	800540c <xQueueReceive+0x78>
 800540a:	2300      	movs	r3, #0
 800540c:	2b00      	cmp	r3, #0
 800540e:	d10b      	bne.n	8005428 <xQueueReceive+0x94>
	__asm volatile
 8005410:	f04f 0350 	mov.w	r3, #80	@ 0x50
 8005414:	f383 8811 	msr	BASEPRI, r3
 8005418:	f3bf 8f6f 	isb	sy
 800541c:	f3bf 8f4f 	dsb	sy
 8005420:	61bb      	str	r3, [r7, #24]
}
 8005422:	bf00      	nop
 8005424:	bf00      	nop
 8005426:	e7fd      	b.n	8005424 <xQueueReceive+0x90>
	/*lint -save -e904  This function relaxes the coding standard somewhat to
	allow return statements within the function itself.  This is done in the
	interest of execution time efficiency. */
	for( ;; )
	{
		taskENTER_CRITICAL();
 8005428:	f001 f9ce 	bl	80067c8 <vPortEnterCritical>
		{
			const UBaseType_t uxMessagesWaiting = pxQueue->uxMessagesWaiting;
 800542c:	6abb      	ldr	r3, [r7, #40]	@ 0x28
 800542e:	6b9b      	ldr	r3, [r3, #56]	@ 0x38
 8005430:	627b      	str	r3, [r7, #36]	@ 0x24

			/* Is there data in the queue now?  To be running the calling task
			must be the highest priority task wanting to access the queue. */
			if( uxMessagesWaiting > ( UBaseType_t ) 0 )
 8005432:	6a7b      	ldr	r3, [r7, #36]	@ 0x24
 8005434:	2b00      	cmp	r3, #0
 8005436:	d01f      	beq.n	8005478 <xQueueReceive+0xe4>
			{
				/* Data available, remove one item. */
				prvCopyDataFromQueue( pxQueue, pvBuffer );
 8005438:	68b9      	ldr	r1, [r7, #8]
 800543a:	6ab8      	ldr	r0, [r7, #40]	@ 0x28
 800543c:	f000 f978 	bl	8005730 <prvCopyDataFromQueue>
				traceQUEUE_RECEIVE( pxQueue );
				pxQueue->uxMessagesWaiting = uxMessagesWaiting - ( UBaseType_t ) 1;
 8005440:	6a7b      	ldr	r3, [r7, #36]	@ 0x24
 8005442:	1e5a      	subs	r2, r3, #1
 8005444:	6abb      	ldr	r3, [r7, #40]	@ 0x28
 8005446:	639a      	str	r2, [r3, #56]	@ 0x38

				/* There is now space in the queue, were any tasks waiting to
				post to the queue?  If so, unblock the highest priority waiting
				task. */
				if( listLIST_IS_EMPTY( &( pxQueue->xTasksWaitingToSend ) ) == pdFALSE )
 8005448:	6abb      	ldr	r3, [r7, #40]	@ 0x28
 800544a:	691b      	ldr	r3, [r3, #16]
 800544c:	2b00      	cmp	r3, #0
 800544e:	d00f      	beq.n	8005470 <xQueueReceive+0xdc>
				{
					if( xTaskRemoveFromEventList( &( pxQueue->xTasksWaitingToSend ) ) != pdFALSE )
 8005450:	6abb      	ldr	r3, [r7, #40]	@ 0x28
 8005452:	3310      	adds	r3, #16
 8005454:	4618      	mov	r0, r3
 8005456:	f000 fdd5 	bl	8006004 <xTaskRemoveFromEventList>
 800545a:	4603      	mov	r3, r0
 800545c:	2b00      	cmp	r3, #0
 800545e:	d007      	beq.n	8005470 <xQueueReceive+0xdc>
					{
						queueYIELD_IF_USING_PREEMPTION();
 8005460:	4b3c      	ldr	r3, [pc, #240]	@ (8005554 <xQueueReceive+0x1c0>)
 8005462:	f04f 5280 	mov.w	r2, #268435456	@ 0x10000000
 8005466:	601a      	str	r2, [r3, #0]
 8005468:	f3bf 8f4f 	dsb	sy
 800546c:	f3bf 8f6f 	isb	sy
				else
				{
					mtCOVERAGE_TEST_MARKER();
				}

				taskEXIT_CRITICAL();
 8005470:	f001 f9dc 	bl	800682c <vPortExitCritical>
				return pdPASS;
 8005474:	2301      	movs	r3, #1
 8005476:	e069      	b.n	800554c <xQueueReceive+0x1b8>
			}
			else
			{
				if( xTicksToWait == ( TickType_t ) 0 )
 8005478:	687b      	ldr	r3, [r7, #4]
 800547a:	2b00      	cmp	r3, #0
 800547c:	d103      	bne.n	8005486 <xQueueReceive+0xf2>
				{
					/* The queue was empty and no block time is specified (or
					the block time has expired) so leave now. */
					taskEXIT_CRITICAL();
 800547e:	f001 f9d5 	bl	800682c <vPortExitCritical>
					traceQUEUE_RECEIVE_FAILED( pxQueue );
					return errQUEUE_EMPTY;
 8005482:	2300      	movs	r3, #0
 8005484:	e062      	b.n	800554c <xQueueReceive+0x1b8>
				}
				else if( xEntryTimeSet == pdFALSE )
 8005486:	6afb      	ldr	r3, [r7, #44]	@ 0x2c
 8005488:	2b00      	cmp	r3, #0
 800548a:	d106      	bne.n	800549a <xQueueReceive+0x106>
				{
					/* The queue was empty and a block time was specified so
					configure the timeout structure. */
					vTaskInternalSetTimeOutState( &xTimeOut );
 800548c:	f107 0310 	add.w	r3, r7, #16
 8005490:	4618      	mov	r0, r3
 8005492:	f000 fe1b 	bl	80060cc <vTaskInternalSetTimeOutState>
					xEntryTimeSet = pdTRUE;
 8005496:	2301      	movs	r3, #1
 8005498:	62fb      	str	r3, [r7, #44]	@ 0x2c
					/* Entry time was already set. */
					mtCOVERAGE_TEST_MARKER();
				}
			}
		}
		taskEXIT_CRITICAL();
 800549a:	f001 f9c7 	bl	800682c <vPortExitCritical>

		/* Interrupts and other tasks can send to and receive from the queue
		now the critical section has been exited. */

		vTaskSuspendAll();
 800549e:	f000 fbc1 	bl	8005c24 <vTaskSuspendAll>
		prvLockQueue( pxQueue );
 80054a2:	f001 f991 	bl	80067c8 <vPortEnterCritical>
 80054a6:	6abb      	ldr	r3, [r7, #40]	@ 0x28
 80054a8:	f893 3044 	ldrb.w	r3, [r3, #68]	@ 0x44
 80054ac:	b25b      	sxtb	r3, r3
 80054ae:	f1b3 3fff 	cmp.w	r3, #4294967295
 80054b2:	d103      	bne.n	80054bc <xQueueReceive+0x128>
 80054b4:	6abb      	ldr	r3, [r7, #40]	@ 0x28
 80054b6:	2200      	movs	r2, #0
 80054b8:	f883 2044 	strb.w	r2, [r3, #68]	@ 0x44
 80054bc:	6abb      	ldr	r3, [r7, #40]	@ 0x28
 80054be:	f893 3045 	ldrb.w	r3, [r3, #69]	@ 0x45
 80054c2:	b25b      	sxtb	r3, r3
 80054c4:	f1b3 3fff 	cmp.w	r3, #4294967295
 80054c8:	d103      	bne.n	80054d2 <xQueueReceive+0x13e>
 80054ca:	6abb      	ldr	r3, [r7, #40]	@ 0x28
 80054cc:	2200      	movs	r2, #0
 80054ce:	f883 2045 	strb.w	r2, [r3, #69]	@ 0x45
 80054d2:	f001 f9ab 	bl	800682c <vPortExitCritical>

		/* Update the timeout state to see if it has expired yet. */
		if( xTaskCheckForTimeOut( &xTimeOut, &xTicksToWait ) == pdFALSE )
 80054d6:	1d3a      	adds	r2, r7, #4
 80054d8:	f107 0310 	add.w	r3, r7, #16
 80054dc:	4611      	mov	r1, r2
 80054de:	4618      	mov	r0, r3
 80054e0:	f000 fe0a 	bl	80060f8 <xTaskCheckForTimeOut>
 80054e4:	4603      	mov	r3, r0
 80054e6:	2b00      	cmp	r3, #0
 80054e8:	d123      	bne.n	8005532 <xQueueReceive+0x19e>
		{
			/* The timeout has not expired.  If the queue is still empty place
			the task on the list of tasks waiting to receive from the queue. */
			if( prvIsQueueEmpty( pxQueue ) != pdFALSE )
 80054ea:	6ab8      	ldr	r0, [r7, #40]	@ 0x28
 80054ec:	f000 f998 	bl	8005820 <prvIsQueueEmpty>
 80054f0:	4603      	mov	r3, r0
 80054f2:	2b00      	cmp	r3, #0
 80054f4:	d017      	beq.n	8005526 <xQueueReceive+0x192>
			{
				traceBLOCKING_ON_QUEUE_RECEIVE( pxQueue );
				vTaskPlaceOnEventList( &( pxQueue->xTasksWaitingToReceive ), xTicksToWait );
 80054f6:	6abb      	ldr	r3, [r7, #40]	@ 0x28
 80054f8:	3324      	adds	r3, #36	@ 0x24
 80054fa:	687a      	ldr	r2, [r7, #4]
 80054fc:	4611      	mov	r1, r2
 80054fe:	4618      	mov	r0, r3
 8005500:	f000 fd5a 	bl	8005fb8 <vTaskPlaceOnEventList>
				prvUnlockQueue( pxQueue );
 8005504:	6ab8      	ldr	r0, [r7, #40]	@ 0x28
 8005506:	f000 f939 	bl	800577c <prvUnlockQueue>
				if( xTaskResumeAll() == pdFALSE )
 800550a:	f000 fb99 	bl	8005c40 <xTaskResumeAll>
 800550e:	4603      	mov	r3, r0
 8005510:	2b00      	cmp	r3, #0
 8005512:	d189      	bne.n	8005428 <xQueueReceive+0x94>
				{
					portYIELD_WITHIN_API();
 8005514:	4b0f      	ldr	r3, [pc, #60]	@ (8005554 <xQueueReceive+0x1c0>)
 8005516:	f04f 5280 	mov.w	r2, #268435456	@ 0x10000000
 800551a:	601a      	str	r2, [r3, #0]
 800551c:	f3bf 8f4f 	dsb	sy
 8005520:	f3bf 8f6f 	isb	sy
 8005524:	e780      	b.n	8005428 <xQueueReceive+0x94>
			}
			else
			{
				/* The queue contains data again.  Loop back to try and read the
				data. */
				prvUnlockQueue( pxQueue );
 8005526:	6ab8      	ldr	r0, [r7, #40]	@ 0x28
 8005528:	f000 f928 	bl	800577c <prvUnlockQueue>
				( void ) xTaskResumeAll();
 800552c:	f000 fb88 	bl	8005c40 <xTaskResumeAll>
 8005530:	e77a      	b.n	8005428 <xQueueReceive+0x94>
		}
		else
		{
			/* Timed out.  If there is no data in the queue exit, otherwise loop
			back and attempt to read the data. */
			prvUnlockQueue( pxQueue );
 8005532:	6ab8      	ldr	r0, [r7, #40]	@ 0x28
 8005534:	f000 f922 	bl	800577c <prvUnlockQueue>
			( void ) xTaskResumeAll();
 8005538:	f000 fb82 	bl	8005c40 <xTaskResumeAll>

			if( prvIsQueueEmpty( pxQueue ) != pdFALSE )
 800553c:	6ab8      	ldr	r0, [r7, #40]	@ 0x28
 800553e:	f000 f96f 	bl	8005820 <prvIsQueueEmpty>
 8005542:	4603      	mov	r3, r0
 8005544:	2b00      	cmp	r3, #0
 8005546:	f43f af6f 	beq.w	8005428 <xQueueReceive+0x94>
			{
				traceQUEUE_RECEIVE_FAILED( pxQueue );
				return errQUEUE_EMPTY;
 800554a:	2300      	movs	r3, #0
			{
				mtCOVERAGE_TEST_MARKER();
			}
		}
	} /*lint -restore */
}
 800554c:	4618      	mov	r0, r3
 800554e:	3730      	adds	r7, #48	@ 0x30
 8005550:	46bd      	mov	sp, r7
 8005552:	bd80      	pop	{r7, pc}
 8005554:	e000ed04 	.word	0xe000ed04

08005558 <xQueueReceiveFromISR>:
	} /*lint -restore */
}
/*-----------------------------------------------------------*/

BaseType_t xQueueReceiveFromISR( QueueHandle_t xQueue, void * const pvBuffer, BaseType_t * const pxHigherPriorityTaskWoken )
{
 8005558:	b580      	push	{r7, lr}
 800555a:	b08e      	sub	sp, #56	@ 0x38
 800555c:	af00      	add	r7, sp, #0
 800555e:	60f8      	str	r0, [r7, #12]
 8005560:	60b9      	str	r1, [r7, #8]
 8005562:	607a      	str	r2, [r7, #4]
BaseType_t xReturn;
UBaseType_t uxSavedInterruptStatus;
Queue_t * const pxQueue = xQueue;
 8005564:	68fb      	ldr	r3, [r7, #12]
 8005566:	633b      	str	r3, [r7, #48]	@ 0x30

	configASSERT( pxQueue );
 8005568:	6b3b      	ldr	r3, [r7, #48]	@ 0x30
 800556a:	2b00      	cmp	r3, #0
 800556c:	d10b      	bne.n	8005586 <xQueueReceiveFromISR+0x2e>
	__asm volatile
 800556e:	f04f 0350 	mov.w	r3, #80	@ 0x50
 8005572:	f383 8811 	msr	BASEPRI, r3
 8005576:	f3bf 8f6f 	isb	sy
 800557a:	f3bf 8f4f 	dsb	sy
 800557e:	623b      	str	r3, [r7, #32]
}
 8005580:	bf00      	nop
 8005582:	bf00      	nop
 8005584:	e7fd      	b.n	8005582 <xQueueReceiveFromISR+0x2a>
	configASSERT( !( ( pvBuffer == NULL ) && ( pxQueue->uxItemSize != ( UBaseType_t ) 0U ) ) );
 8005586:	68bb      	ldr	r3, [r7, #8]
 8005588:	2b00      	cmp	r3, #0
 800558a:	d103      	bne.n	8005594 <xQueueReceiveFromISR+0x3c>
 800558c:	6b3b      	ldr	r3, [r7, #48]	@ 0x30
 800558e:	6c1b      	ldr	r3, [r3, #64]	@ 0x40
 8005590:	2b00      	cmp	r3, #0
 8005592:	d101      	bne.n	8005598 <xQueueReceiveFromISR+0x40>
 8005594:	2301      	movs	r3, #1
 8005596:	e000      	b.n	800559a <xQueueReceiveFromISR+0x42>
 8005598:	2300      	movs	r3, #0
 800559a:	2b00      	cmp	r3, #0
 800559c:	d10b      	bne.n	80055b6 <xQueueReceiveFromISR+0x5e>
	__asm volatile
 800559e:	f04f 0350 	mov.w	r3, #80	@ 0x50
 80055a2:	f383 8811 	msr	BASEPRI, r3
 80055a6:	f3bf 8f6f 	isb	sy
 80055aa:	f3bf 8f4f 	dsb	sy
 80055ae:	61fb      	str	r3, [r7, #28]
}
 80055b0:	bf00      	nop
 80055b2:	bf00      	nop
 80055b4:	e7fd      	b.n	80055b2 <xQueueReceiveFromISR+0x5a>
	that have been assigned a priority at or (logically) below the maximum
	system call	interrupt priority.  FreeRTOS maintains a separate interrupt
	safe API to ensure interrupt entry is as fast and as simple as possible.
	More information (albeit Cortex-M specific) is provided on the following
	link: http://www.freertos.org/RTOS-Cortex-M3-M4.html */
	portASSERT_IF_INTERRUPT_PRIORITY_INVALID();
 80055b6:	f001 f9e7 	bl	8006988 <vPortValidateInterruptPriority>
	__asm volatile
 80055ba:	f3ef 8211 	mrs	r2, BASEPRI
 80055be:	f04f 0350 	mov.w	r3, #80	@ 0x50
 80055c2:	f383 8811 	msr	BASEPRI, r3
 80055c6:	f3bf 8f6f 	isb	sy
 80055ca:	f3bf 8f4f 	dsb	sy
 80055ce:	61ba      	str	r2, [r7, #24]
 80055d0:	617b      	str	r3, [r7, #20]
	return ulOriginalBASEPRI;
 80055d2:	69bb      	ldr	r3, [r7, #24]

	uxSavedInterruptStatus = portSET_INTERRUPT_MASK_FROM_ISR();
 80055d4:	62fb      	str	r3, [r7, #44]	@ 0x2c
	{
		const UBaseType_t uxMessagesWaiting = pxQueue->uxMessagesWaiting;
 80055d6:	6b3b      	ldr	r3, [r7, #48]	@ 0x30
 80055d8:	6b9b      	ldr	r3, [r3, #56]	@ 0x38
 80055da:	62bb      	str	r3, [r7, #40]	@ 0x28

		/* Cannot block in an ISR, so check there is data available. */
		if( uxMessagesWaiting > ( UBaseType_t ) 0 )
 80055dc:	6abb      	ldr	r3, [r7, #40]	@ 0x28
 80055de:	2b00      	cmp	r3, #0
 80055e0:	d02f      	beq.n	8005642 <xQueueReceiveFromISR+0xea>
		{
			const int8_t cRxLock = pxQueue->cRxLock;
 80055e2:	6b3b      	ldr	r3, [r7, #48]	@ 0x30
 80055e4:	f893 3044 	ldrb.w	r3, [r3, #68]	@ 0x44
 80055e8:	f887 3027 	strb.w	r3, [r7, #39]	@ 0x27

			traceQUEUE_RECEIVE_FROM_ISR( pxQueue );

			prvCopyDataFromQueue( pxQueue, pvBuffer );
 80055ec:	68b9      	ldr	r1, [r7, #8]
 80055ee:	6b38      	ldr	r0, [r7, #48]	@ 0x30
 80055f0:	f000 f89e 	bl	8005730 <prvCopyDataFromQueue>
			pxQueue->uxMessagesWaiting = uxMessagesWaiting - ( UBaseType_t ) 1;
 80055f4:	6abb      	ldr	r3, [r7, #40]	@ 0x28
 80055f6:	1e5a      	subs	r2, r3, #1
 80055f8:	6b3b      	ldr	r3, [r7, #48]	@ 0x30
 80055fa:	639a      	str	r2, [r3, #56]	@ 0x38

			/* If the queue is locked the event list will not be modified.
			Instead update the lock count so the task that unlocks the queue
			will know that an ISR has removed data while the queue was
			locked. */
			if( cRxLock == queueUNLOCKED )
 80055fc:	f997 3027 	ldrsb.w	r3, [r7, #39]	@ 0x27
 8005600:	f1b3 3fff 	cmp.w	r3, #4294967295
 8005604:	d112      	bne.n	800562c <xQueueReceiveFromISR+0xd4>
			{
				if( listLIST_IS_EMPTY( &( pxQueue->xTasksWaitingToSend ) ) == pdFALSE )
 8005606:	6b3b      	ldr	r3, [r7, #48]	@ 0x30
 8005608:	691b      	ldr	r3, [r3, #16]
 800560a:	2b00      	cmp	r3, #0
 800560c:	d016      	beq.n	800563c <xQueueReceiveFromISR+0xe4>
				{
					if( xTaskRemoveFromEventList( &( pxQueue->xTasksWaitingToSend ) ) != pdFALSE )
 800560e:	6b3b      	ldr	r3, [r7, #48]	@ 0x30
 8005610:	3310      	adds	r3, #16
 8005612:	4618      	mov	r0, r3
 8005614:	f000 fcf6 	bl	8006004 <xTaskRemoveFromEventList>
 8005618:	4603      	mov	r3, r0
 800561a:	2b00      	cmp	r3, #0
 800561c:	d00e      	beq.n	800563c <xQueueReceiveFromISR+0xe4>
					{
						/* The task waiting has a higher priority than us so
						force a context switch. */
						if( pxHigherPriorityTaskWoken != NULL )
 800561e:	687b      	ldr	r3, [r7, #4]
 8005620:	2b00      	cmp	r3, #0
 8005622:	d00b      	beq.n	800563c <xQueueReceiveFromISR+0xe4>
						{
							*pxHigherPriorityTaskWoken = pdTRUE;
 8005624:	687b      	ldr	r3, [r7, #4]
 8005626:	2201      	movs	r2, #1
 8005628:	601a      	str	r2, [r3, #0]
 800562a:	e007      	b.n	800563c <xQueueReceiveFromISR+0xe4>
			}
			else
			{
				/* Increment the lock count so the task that unlocks the queue
				knows that data was removed while it was locked. */
				pxQueue->cRxLock = ( int8_t ) ( cRxLock + 1 );
 800562c:	f897 3027 	ldrb.w	r3, [r7, #39]	@ 0x27
 8005630:	3301      	adds	r3, #1
 8005632:	b2db      	uxtb	r3, r3
 8005634:	b25a      	sxtb	r2, r3
 8005636:	6b3b      	ldr	r3, [r7, #48]	@ 0x30
 8005638:	f883 2044 	strb.w	r2, [r3, #68]	@ 0x44
			}

			xReturn = pdPASS;
 800563c:	2301      	movs	r3, #1
 800563e:	637b      	str	r3, [r7, #52]	@ 0x34
 8005640:	e001      	b.n	8005646 <xQueueReceiveFromISR+0xee>
		}
		else
		{
			xReturn = pdFAIL;
 8005642:	2300      	movs	r3, #0
 8005644:	637b      	str	r3, [r7, #52]	@ 0x34
 8005646:	6afb      	ldr	r3, [r7, #44]	@ 0x2c
 8005648:	613b      	str	r3, [r7, #16]
	__asm volatile
 800564a:	693b      	ldr	r3, [r7, #16]
 800564c:	f383 8811 	msr	BASEPRI, r3
}
 8005650:	bf00      	nop
			traceQUEUE_RECEIVE_FROM_ISR_FAILED( pxQueue );
		}
	}
	portCLEAR_INTERRUPT_MASK_FROM_ISR( uxSavedInterruptStatus );

	return xReturn;
 8005652:	6b7b      	ldr	r3, [r7, #52]	@ 0x34
}
 8005654:	4618      	mov	r0, r3
 8005656:	3738      	adds	r7, #56	@ 0x38
 8005658:	46bd      	mov	sp, r7
 800565a:	bd80      	pop	{r7, pc}

0800565c <prvCopyDataToQueue>:

#endif /* configUSE_MUTEXES */
/*-----------------------------------------------------------*/

static BaseType_t prvCopyDataToQueue( Queue_t * const pxQueue, const void *pvItemToQueue, const BaseType_t xPosition )
{
 800565c:	b580      	push	{r7, lr}
 800565e:	b086      	sub	sp, #24
 8005660:	af00      	add	r7, sp, #0
 8005662:	60f8      	str	r0, [r7, #12]
 8005664:	60b9      	str	r1, [r7, #8]
 8005666:	607a      	str	r2, [r7, #4]
BaseType_t xReturn = pdFALSE;
 8005668:	2300      	movs	r3, #0
 800566a:	617b      	str	r3, [r7, #20]
UBaseType_t uxMessagesWaiting;

	/* This function is called from a critical section. */

	uxMessagesWaiting = pxQueue->uxMessagesWaiting;
 800566c:	68fb      	ldr	r3, [r7, #12]
 800566e:	6b9b      	ldr	r3, [r3, #56]	@ 0x38
 8005670:	613b      	str	r3, [r7, #16]

	if( pxQueue->uxItemSize == ( UBaseType_t ) 0 )
 8005672:	68fb      	ldr	r3, [r7, #12]
 8005674:	6c1b      	ldr	r3, [r3, #64]	@ 0x40
 8005676:	2b00      	cmp	r3, #0
 8005678:	d10d      	bne.n	8005696 <prvCopyDataToQueue+0x3a>
	{
		#if ( configUSE_MUTEXES == 1 )
		{
			if( pxQueue->uxQueueType == queueQUEUE_IS_MUTEX )
 800567a:	68fb      	ldr	r3, [r7, #12]
 800567c:	681b      	ldr	r3, [r3, #0]
 800567e:	2b00      	cmp	r3, #0
 8005680:	d14d      	bne.n	800571e <prvCopyDataToQueue+0xc2>
			{
				/* The mutex is no longer being held. */
				xReturn = xTaskPriorityDisinherit( pxQueue->u.xSemaphore.xMutexHolder );
 8005682:	68fb      	ldr	r3, [r7, #12]
 8005684:	689b      	ldr	r3, [r3, #8]
 8005686:	4618      	mov	r0, r3
 8005688:	f000 fe80 	bl	800638c <xTaskPriorityDisinherit>
 800568c:	6178      	str	r0, [r7, #20]
				pxQueue->u.xSemaphore.xMutexHolder = NULL;
 800568e:	68fb      	ldr	r3, [r7, #12]
 8005690:	2200      	movs	r2, #0
 8005692:	609a      	str	r2, [r3, #8]
 8005694:	e043      	b.n	800571e <prvCopyDataToQueue+0xc2>
				mtCOVERAGE_TEST_MARKER();
			}
		}
		#endif /* configUSE_MUTEXES */
	}
	else if( xPosition == queueSEND_TO_BACK )
 8005696:	687b      	ldr	r3, [r7, #4]
 8005698:	2b00      	cmp	r3, #0
 800569a:	d119      	bne.n	80056d0 <prvCopyDataToQueue+0x74>
	{
		( void ) memcpy( ( void * ) pxQueue->pcWriteTo, pvItemToQueue, ( size_t ) pxQueue->uxItemSize ); /*lint !e961 !e418 !e9087 MISRA exception as the casts are only redundant for some ports, plus previous logic ensures a null pointer can only be passed to memcpy() if the copy size is 0.  Cast to void required by function signature and safe as no alignment requirement and copy length specified in bytes. */
 800569c:	68fb      	ldr	r3, [r7, #12]
 800569e:	6858      	ldr	r0, [r3, #4]
 80056a0:	68fb      	ldr	r3, [r7, #12]
 80056a2:	6c1b      	ldr	r3, [r3, #64]	@ 0x40
 80056a4:	461a      	mov	r2, r3
 80056a6:	68b9      	ldr	r1, [r7, #8]
 80056a8:	f001 fc30 	bl	8006f0c <memcpy>
		pxQueue->pcWriteTo += pxQueue->uxItemSize; /*lint !e9016 Pointer arithmetic on char types ok, especially in this use case where it is the clearest way of conveying intent. */
 80056ac:	68fb      	ldr	r3, [r7, #12]
 80056ae:	685a      	ldr	r2, [r3, #4]
 80056b0:	68fb      	ldr	r3, [r7, #12]
 80056b2:	6c1b      	ldr	r3, [r3, #64]	@ 0x40
 80056b4:	441a      	add	r2, r3
 80056b6:	68fb      	ldr	r3, [r7, #12]
 80056b8:	605a      	str	r2, [r3, #4]
		if( pxQueue->pcWriteTo >= pxQueue->u.xQueue.pcTail ) /*lint !e946 MISRA exception justified as comparison of pointers is the cleanest solution. */
 80056ba:	68fb      	ldr	r3, [r7, #12]
 80056bc:	685a      	ldr	r2, [r3, #4]
 80056be:	68fb      	ldr	r3, [r7, #12]
 80056c0:	689b      	ldr	r3, [r3, #8]
 80056c2:	429a      	cmp	r2, r3
 80056c4:	d32b      	bcc.n	800571e <prvCopyDataToQueue+0xc2>
		{
			pxQueue->pcWriteTo = pxQueue->pcHead;
 80056c6:	68fb      	ldr	r3, [r7, #12]
 80056c8:	681a      	ldr	r2, [r3, #0]
 80056ca:	68fb      	ldr	r3, [r7, #12]
 80056cc:	605a      	str	r2, [r3, #4]
 80056ce:	e026      	b.n	800571e <prvCopyDataToQueue+0xc2>
			mtCOVERAGE_TEST_MARKER();
		}
	}
	else
	{
		( void ) memcpy( ( void * ) pxQueue->u.xQueue.pcReadFrom, pvItemToQueue, ( size_t ) pxQueue->uxItemSize ); /*lint !e961 !e9087 !e418 MISRA exception as the casts are only redundant for some ports.  Cast to void required by function signature and safe as no alignment requirement and copy length specified in bytes.  Assert checks null pointer only used when length is 0. */
 80056d0:	68fb      	ldr	r3, [r7, #12]
 80056d2:	68d8      	ldr	r0, [r3, #12]
 80056d4:	68fb      	ldr	r3, [r7, #12]
 80056d6:	6c1b      	ldr	r3, [r3, #64]	@ 0x40
 80056d8:	461a      	mov	r2, r3
 80056da:	68b9      	ldr	r1, [r7, #8]
 80056dc:	f001 fc16 	bl	8006f0c <memcpy>
		pxQueue->u.xQueue.pcReadFrom -= pxQueue->uxItemSize;
 80056e0:	68fb      	ldr	r3, [r7, #12]
 80056e2:	68da      	ldr	r2, [r3, #12]
 80056e4:	68fb      	ldr	r3, [r7, #12]
 80056e6:	6c1b      	ldr	r3, [r3, #64]	@ 0x40
 80056e8:	425b      	negs	r3, r3
 80056ea:	441a      	add	r2, r3
 80056ec:	68fb      	ldr	r3, [r7, #12]
 80056ee:	60da      	str	r2, [r3, #12]
		if( pxQueue->u.xQueue.pcReadFrom < pxQueue->pcHead ) /*lint !e946 MISRA exception justified as comparison of pointers is the cleanest solution. */
 80056f0:	68fb      	ldr	r3, [r7, #12]
 80056f2:	68da      	ldr	r2, [r3, #12]
 80056f4:	68fb      	ldr	r3, [r7, #12]
 80056f6:	681b      	ldr	r3, [r3, #0]
 80056f8:	429a      	cmp	r2, r3
 80056fa:	d207      	bcs.n	800570c <prvCopyDataToQueue+0xb0>
		{
			pxQueue->u.xQueue.pcReadFrom = ( pxQueue->u.xQueue.pcTail - pxQueue->uxItemSize );
 80056fc:	68fb      	ldr	r3, [r7, #12]
 80056fe:	689a      	ldr	r2, [r3, #8]
 8005700:	68fb      	ldr	r3, [r7, #12]
 8005702:	6c1b      	ldr	r3, [r3, #64]	@ 0x40
 8005704:	425b      	negs	r3, r3
 8005706:	441a      	add	r2, r3
 8005708:	68fb      	ldr	r3, [r7, #12]
 800570a:	60da      	str	r2, [r3, #12]
		else
		{
			mtCOVERAGE_TEST_MARKER();
		}

		if( xPosition == queueOVERWRITE )
 800570c:	687b      	ldr	r3, [r7, #4]
 800570e:	2b02      	cmp	r3, #2
 8005710:	d105      	bne.n	800571e <prvCopyDataToQueue+0xc2>
		{
			if( uxMessagesWaiting > ( UBaseType_t ) 0 )
 8005712:	693b      	ldr	r3, [r7, #16]
 8005714:	2b00      	cmp	r3, #0
 8005716:	d002      	beq.n	800571e <prvCopyDataToQueue+0xc2>
			{
				/* An item is not being added but overwritten, so subtract
				one from the recorded number of items in the queue so when
				one is added again below the number of recorded items remains
				correct. */
				--uxMessagesWaiting;
 8005718:	693b      	ldr	r3, [r7, #16]
 800571a:	3b01      	subs	r3, #1
 800571c:	613b      	str	r3, [r7, #16]
		{
			mtCOVERAGE_TEST_MARKER();
		}
	}

	pxQueue->uxMessagesWaiting = uxMessagesWaiting + ( UBaseType_t ) 1;
 800571e:	693b      	ldr	r3, [r7, #16]
 8005720:	1c5a      	adds	r2, r3, #1
 8005722:	68fb      	ldr	r3, [r7, #12]
 8005724:	639a      	str	r2, [r3, #56]	@ 0x38

	return xReturn;
 8005726:	697b      	ldr	r3, [r7, #20]
}
 8005728:	4618      	mov	r0, r3
 800572a:	3718      	adds	r7, #24
 800572c:	46bd      	mov	sp, r7
 800572e:	bd80      	pop	{r7, pc}

08005730 <prvCopyDataFromQueue>:
/*-----------------------------------------------------------*/

static void prvCopyDataFromQueue( Queue_t * const pxQueue, void * const pvBuffer )
{
 8005730:	b580      	push	{r7, lr}
 8005732:	b082      	sub	sp, #8
 8005734:	af00      	add	r7, sp, #0
 8005736:	6078      	str	r0, [r7, #4]
 8005738:	6039      	str	r1, [r7, #0]
	if( pxQueue->uxItemSize != ( UBaseType_t ) 0 )
 800573a:	687b      	ldr	r3, [r7, #4]
 800573c:	6c1b      	ldr	r3, [r3, #64]	@ 0x40
 800573e:	2b00      	cmp	r3, #0
 8005740:	d018      	beq.n	8005774 <prvCopyDataFromQueue+0x44>
	{
		pxQueue->u.xQueue.pcReadFrom += pxQueue->uxItemSize; /*lint !e9016 Pointer arithmetic on char types ok, especially in this use case where it is the clearest way of conveying intent. */
 8005742:	687b      	ldr	r3, [r7, #4]
 8005744:	68da      	ldr	r2, [r3, #12]
 8005746:	687b      	ldr	r3, [r7, #4]
 8005748:	6c1b      	ldr	r3, [r3, #64]	@ 0x40
 800574a:	441a      	add	r2, r3
 800574c:	687b      	ldr	r3, [r7, #4]
 800574e:	60da      	str	r2, [r3, #12]
		if( pxQueue->u.xQueue.pcReadFrom >= pxQueue->u.xQueue.pcTail ) /*lint !e946 MISRA exception justified as use of the relational operator is the cleanest solutions. */
 8005750:	687b      	ldr	r3, [r7, #4]
 8005752:	68da      	ldr	r2, [r3, #12]
 8005754:	687b      	ldr	r3, [r7, #4]
 8005756:	689b      	ldr	r3, [r3, #8]
 8005758:	429a      	cmp	r2, r3
 800575a:	d303      	bcc.n	8005764 <prvCopyDataFromQueue+0x34>
		{
			pxQueue->u.xQueue.pcReadFrom = pxQueue->pcHead;
 800575c:	687b      	ldr	r3, [r7, #4]
 800575e:	681a      	ldr	r2, [r3, #0]
 8005760:	687b      	ldr	r3, [r7, #4]
 8005762:	60da      	str	r2, [r3, #12]
		}
		else
		{
			mtCOVERAGE_TEST_MARKER();
		}
		( void ) memcpy( ( void * ) pvBuffer, ( void * ) pxQueue->u.xQueue.pcReadFrom, ( size_t ) pxQueue->uxItemSize ); /*lint !e961 !e418 !e9087 MISRA exception as the casts are only redundant for some ports.  Also previous logic ensures a null pointer can only be passed to memcpy() when the count is 0.  Cast to void required by function signature and safe as no alignment requirement and copy length specified in bytes. */
 8005764:	687b      	ldr	r3, [r7, #4]
 8005766:	68d9      	ldr	r1, [r3, #12]
 8005768:	687b      	ldr	r3, [r7, #4]
 800576a:	6c1b      	ldr	r3, [r3, #64]	@ 0x40
 800576c:	461a      	mov	r2, r3
 800576e:	6838      	ldr	r0, [r7, #0]
 8005770:	f001 fbcc 	bl	8006f0c <memcpy>
	}
}
 8005774:	bf00      	nop
 8005776:	3708      	adds	r7, #8
 8005778:	46bd      	mov	sp, r7
 800577a:	bd80      	pop	{r7, pc}

0800577c <prvUnlockQueue>:
/*-----------------------------------------------------------*/

static void prvUnlockQueue( Queue_t * const pxQueue )
{
 800577c:	b580      	push	{r7, lr}
 800577e:	b084      	sub	sp, #16
 8005780:	af00      	add	r7, sp, #0
 8005782:	6078      	str	r0, [r7, #4]

	/* The lock counts contains the number of extra data items placed or
	removed from the queue while the queue was locked.  When a queue is
	locked items can be added or removed, but the event lists cannot be
	updated. */
	taskENTER_CRITICAL();
 8005784:	f001 f820 	bl	80067c8 <vPortEnterCritical>
	{
		int8_t cTxLock = pxQueue->cTxLock;
 8005788:	687b      	ldr	r3, [r7, #4]
 800578a:	f893 3045 	ldrb.w	r3, [r3, #69]	@ 0x45
 800578e:	73fb      	strb	r3, [r7, #15]

		/* See if data was added to the queue while it was locked. */
		while( cTxLock > queueLOCKED_UNMODIFIED )
 8005790:	e011      	b.n	80057b6 <prvUnlockQueue+0x3a>
			}
			#else /* configUSE_QUEUE_SETS */
			{
				/* Tasks that are removed from the event list will get added to
				the pending ready list as the scheduler is still suspended. */
				if( listLIST_IS_EMPTY( &( pxQueue->xTasksWaitingToReceive ) ) == pdFALSE )
 8005792:	687b      	ldr	r3, [r7, #4]
 8005794:	6a5b      	ldr	r3, [r3, #36]	@ 0x24
 8005796:	2b00      	cmp	r3, #0
 8005798:	d012      	beq.n	80057c0 <prvUnlockQueue+0x44>
				{
					if( xTaskRemoveFromEventList( &( pxQueue->xTasksWaitingToReceive ) ) != pdFALSE )
 800579a:	687b      	ldr	r3, [r7, #4]
 800579c:	3324      	adds	r3, #36	@ 0x24
 800579e:	4618      	mov	r0, r3
 80057a0:	f000 fc30 	bl	8006004 <xTaskRemoveFromEventList>
 80057a4:	4603      	mov	r3, r0
 80057a6:	2b00      	cmp	r3, #0
 80057a8:	d001      	beq.n	80057ae <prvUnlockQueue+0x32>
					{
						/* The task waiting has a higher priority so record that
						a context switch is required. */
						vTaskMissedYield();
 80057aa:	f000 fd09 	bl	80061c0 <vTaskMissedYield>
					break;
				}
			}
			#endif /* configUSE_QUEUE_SETS */

			--cTxLock;
 80057ae:	7bfb      	ldrb	r3, [r7, #15]
 80057b0:	3b01      	subs	r3, #1
 80057b2:	b2db      	uxtb	r3, r3
 80057b4:	73fb      	strb	r3, [r7, #15]
		while( cTxLock > queueLOCKED_UNMODIFIED )
 80057b6:	f997 300f 	ldrsb.w	r3, [r7, #15]
 80057ba:	2b00      	cmp	r3, #0
 80057bc:	dce9      	bgt.n	8005792 <prvUnlockQueue+0x16>
 80057be:	e000      	b.n	80057c2 <prvUnlockQueue+0x46>
					break;
 80057c0:	bf00      	nop
		}

		pxQueue->cTxLock = queueUNLOCKED;
 80057c2:	687b      	ldr	r3, [r7, #4]
 80057c4:	22ff      	movs	r2, #255	@ 0xff
 80057c6:	f883 2045 	strb.w	r2, [r3, #69]	@ 0x45
	}
	taskEXIT_CRITICAL();
 80057ca:	f001 f82f 	bl	800682c <vPortExitCritical>

	/* Do the same for the Rx lock. */
	taskENTER_CRITICAL();
 80057ce:	f000 fffb 	bl	80067c8 <vPortEnterCritical>
	{
		int8_t cRxLock = pxQueue->cRxLock;
 80057d2:	687b      	ldr	r3, [r7, #4]
 80057d4:	f893 3044 	ldrb.w	r3, [r3, #68]	@ 0x44
 80057d8:	73bb      	strb	r3, [r7, #14]

		while( cRxLock > queueLOCKED_UNMODIFIED )
 80057da:	e011      	b.n	8005800 <prvUnlockQueue+0x84>
		{
			if( listLIST_IS_EMPTY( &( pxQueue->xTasksWaitingToSend ) ) == pdFALSE )
 80057dc:	687b      	ldr	r3, [r7, #4]
 80057de:	691b      	ldr	r3, [r3, #16]
 80057e0:	2b00      	cmp	r3, #0
 80057e2:	d012      	beq.n	800580a <prvUnlockQueue+0x8e>
			{
				if( xTaskRemoveFromEventList( &( pxQueue->xTasksWaitingToSend ) ) != pdFALSE )
 80057e4:	687b      	ldr	r3, [r7, #4]
 80057e6:	3310      	adds	r3, #16
 80057e8:	4618      	mov	r0, r3
 80057ea:	f000 fc0b 	bl	8006004 <xTaskRemoveFromEventList>
 80057ee:	4603      	mov	r3, r0
 80057f0:	2b00      	cmp	r3, #0
 80057f2:	d001      	beq.n	80057f8 <prvUnlockQueue+0x7c>
				{
					vTaskMissedYield();
 80057f4:	f000 fce4 	bl	80061c0 <vTaskMissedYield>
				else
				{
					mtCOVERAGE_TEST_MARKER();
				}

				--cRxLock;
 80057f8:	7bbb      	ldrb	r3, [r7, #14]
 80057fa:	3b01      	subs	r3, #1
 80057fc:	b2db      	uxtb	r3, r3
 80057fe:	73bb      	strb	r3, [r7, #14]
		while( cRxLock > queueLOCKED_UNMODIFIED )
 8005800:	f997 300e 	ldrsb.w	r3, [r7, #14]
 8005804:	2b00      	cmp	r3, #0
 8005806:	dce9      	bgt.n	80057dc <prvUnlockQueue+0x60>
 8005808:	e000      	b.n	800580c <prvUnlockQueue+0x90>
			}
			else
			{
				break;
 800580a:	bf00      	nop
			}
		}

		pxQueue->cRxLock = queueUNLOCKED;
 800580c:	687b      	ldr	r3, [r7, #4]
 800580e:	22ff      	movs	r2, #255	@ 0xff
 8005810:	f883 2044 	strb.w	r2, [r3, #68]	@ 0x44
	}
	taskEXIT_CRITICAL();
 8005814:	f001 f80a 	bl	800682c <vPortExitCritical>
}
 8005818:	bf00      	nop
 800581a:	3710      	adds	r7, #16
 800581c:	46bd      	mov	sp, r7
 800581e:	bd80      	pop	{r7, pc}

08005820 <prvIsQueueEmpty>:
/*-----------------------------------------------------------*/

static BaseType_t prvIsQueueEmpty( const Queue_t *pxQueue )
{
 8005820:	b580      	push	{r7, lr}
 8005822:	b084      	sub	sp, #16
 8005824:	af00      	add	r7, sp, #0
 8005826:	6078      	str	r0, [r7, #4]
BaseType_t xReturn;

	taskENTER_CRITICAL();
 8005828:	f000 ffce 	bl	80067c8 <vPortEnterCritical>
	{
		if( pxQueue->uxMessagesWaiting == ( UBaseType_t )  0 )
 800582c:	687b      	ldr	r3, [r7, #4]
 800582e:	6b9b      	ldr	r3, [r3, #56]	@ 0x38
 8005830:	2b00      	cmp	r3, #0
 8005832:	d102      	bne.n	800583a <prvIsQueueEmpty+0x1a>
		{
			xReturn = pdTRUE;
 8005834:	2301      	movs	r3, #1
 8005836:	60fb      	str	r3, [r7, #12]
 8005838:	e001      	b.n	800583e <prvIsQueueEmpty+0x1e>
		}
		else
		{
			xReturn = pdFALSE;
 800583a:	2300      	movs	r3, #0
 800583c:	60fb      	str	r3, [r7, #12]
		}
	}
	taskEXIT_CRITICAL();
 800583e:	f000 fff5 	bl	800682c <vPortExitCritical>

	return xReturn;
 8005842:	68fb      	ldr	r3, [r7, #12]
}
 8005844:	4618      	mov	r0, r3
 8005846:	3710      	adds	r7, #16
 8005848:	46bd      	mov	sp, r7
 800584a:	bd80      	pop	{r7, pc}

0800584c <prvIsQueueFull>:
	return xReturn;
} /*lint !e818 xQueue could not be pointer to const because it is a typedef. */
/*-----------------------------------------------------------*/

static BaseType_t prvIsQueueFull( const Queue_t *pxQueue )
{
 800584c:	b580      	push	{r7, lr}
 800584e:	b084      	sub	sp, #16
 8005850:	af00      	add	r7, sp, #0
 8005852:	6078      	str	r0, [r7, #4]
BaseType_t xReturn;

	taskENTER_CRITICAL();
 8005854:	f000 ffb8 	bl	80067c8 <vPortEnterCritical>
	{
		if( pxQueue->uxMessagesWaiting == pxQueue->uxLength )
 8005858:	687b      	ldr	r3, [r7, #4]
 800585a:	6b9a      	ldr	r2, [r3, #56]	@ 0x38
 800585c:	687b      	ldr	r3, [r7, #4]
 800585e:	6bdb      	ldr	r3, [r3, #60]	@ 0x3c
 8005860:	429a      	cmp	r2, r3
 8005862:	d102      	bne.n	800586a <prvIsQueueFull+0x1e>
		{
			xReturn = pdTRUE;
 8005864:	2301      	movs	r3, #1
 8005866:	60fb      	str	r3, [r7, #12]
 8005868:	e001      	b.n	800586e <prvIsQueueFull+0x22>
		}
		else
		{
			xReturn = pdFALSE;
 800586a:	2300      	movs	r3, #0
 800586c:	60fb      	str	r3, [r7, #12]
		}
	}
	taskEXIT_CRITICAL();
 800586e:	f000 ffdd 	bl	800682c <vPortExitCritical>

	return xReturn;
 8005872:	68fb      	ldr	r3, [r7, #12]
}
 8005874:	4618      	mov	r0, r3
 8005876:	3710      	adds	r7, #16
 8005878:	46bd      	mov	sp, r7
 800587a:	bd80      	pop	{r7, pc}

0800587c <xTaskCreate>:
							const char * const pcName,		/*lint !e971 Unqualified char types are allowed for strings and single characters only. */
							const configSTACK_DEPTH_TYPE usStackDepth,
							void * const pvParameters,
							UBaseType_t uxPriority,
							TaskHandle_t * const pxCreatedTask )
	{
 800587c:	b580      	push	{r7, lr}
 800587e:	b08c      	sub	sp, #48	@ 0x30
 8005880:	af04      	add	r7, sp, #16
 8005882:	60f8      	str	r0, [r7, #12]
 8005884:	60b9      	str	r1, [r7, #8]
 8005886:	603b      	str	r3, [r7, #0]
 8005888:	4613      	mov	r3, r2
 800588a:	80fb      	strh	r3, [r7, #6]
		#else /* portSTACK_GROWTH */
		{
		StackType_t *pxStack;

			/* Allocate space for the stack used by the task being created. */
			pxStack = pvPortMalloc( ( ( ( size_t ) usStackDepth ) * sizeof( StackType_t ) ) ); /*lint !e9079 All values returned by pvPortMalloc() have at least the alignment required by the MCU's stack and this allocation is the stack. */
 800588c:	88fb      	ldrh	r3, [r7, #6]
 800588e:	009b      	lsls	r3, r3, #2
 8005890:	4618      	mov	r0, r3
 8005892:	f001 f8bb 	bl	8006a0c <pvPortMalloc>
 8005896:	6178      	str	r0, [r7, #20]

			if( pxStack != NULL )
 8005898:	697b      	ldr	r3, [r7, #20]
 800589a:	2b00      	cmp	r3, #0
 800589c:	d00e      	beq.n	80058bc <xTaskCreate+0x40>
			{
				/* Allocate space for the TCB. */
				pxNewTCB = ( TCB_t * ) pvPortMalloc( sizeof( TCB_t ) ); /*lint !e9087 !e9079 All values returned by pvPortMalloc() have at least the alignment required by the MCU's stack, and the first member of TCB_t is always a pointer to the task's stack. */
 800589e:	20a0      	movs	r0, #160	@ 0xa0
 80058a0:	f001 f8b4 	bl	8006a0c <pvPortMalloc>
 80058a4:	61f8      	str	r0, [r7, #28]

				if( pxNewTCB != NULL )
 80058a6:	69fb      	ldr	r3, [r7, #28]
 80058a8:	2b00      	cmp	r3, #0
 80058aa:	d003      	beq.n	80058b4 <xTaskCreate+0x38>
				{
					/* Store the stack location in the TCB. */
					pxNewTCB->pxStack = pxStack;
 80058ac:	69fb      	ldr	r3, [r7, #28]
 80058ae:	697a      	ldr	r2, [r7, #20]
 80058b0:	631a      	str	r2, [r3, #48]	@ 0x30
 80058b2:	e005      	b.n	80058c0 <xTaskCreate+0x44>
				}
				else
				{
					/* The stack cannot be used as the TCB was not created.  Free
					it again. */
					vPortFree( pxStack );
 80058b4:	6978      	ldr	r0, [r7, #20]
 80058b6:	f001 f977 	bl	8006ba8 <vPortFree>
 80058ba:	e001      	b.n	80058c0 <xTaskCreate+0x44>
				}
			}
			else
			{
				pxNewTCB = NULL;
 80058bc:	2300      	movs	r3, #0
 80058be:	61fb      	str	r3, [r7, #28]
			}
		}
		#endif /* portSTACK_GROWTH */

		if( pxNewTCB != NULL )
 80058c0:	69fb      	ldr	r3, [r7, #28]
 80058c2:	2b00      	cmp	r3, #0
 80058c4:	d013      	beq.n	80058ee <xTaskCreate+0x72>
				task was created dynamically in case it is later deleted. */
				pxNewTCB->ucStaticallyAllocated = tskDYNAMICALLY_ALLOCATED_STACK_AND_TCB;
			}
			#endif /* tskSTATIC_AND_DYNAMIC_ALLOCATION_POSSIBLE */

			prvInitialiseNewTask( pxTaskCode, pcName, ( uint32_t ) usStackDepth, pvParameters, uxPriority, pxCreatedTask, pxNewTCB, NULL );
 80058c6:	88fa      	ldrh	r2, [r7, #6]
 80058c8:	2300      	movs	r3, #0
 80058ca:	9303      	str	r3, [sp, #12]
 80058cc:	69fb      	ldr	r3, [r7, #28]
 80058ce:	9302      	str	r3, [sp, #8]
 80058d0:	6afb      	ldr	r3, [r7, #44]	@ 0x2c
 80058d2:	9301      	str	r3, [sp, #4]
 80058d4:	6abb      	ldr	r3, [r7, #40]	@ 0x28
 80058d6:	9300      	str	r3, [sp, #0]
 80058d8:	683b      	ldr	r3, [r7, #0]
 80058da:	68b9      	ldr	r1, [r7, #8]
 80058dc:	68f8      	ldr	r0, [r7, #12]
 80058de:	f000 f80f 	bl	8005900 <prvInitialiseNewTask>
			prvAddNewTaskToReadyList( pxNewTCB );
 80058e2:	69f8      	ldr	r0, [r7, #28]
 80058e4:	f000 f8ac 	bl	8005a40 <prvAddNewTaskToReadyList>
			xReturn = pdPASS;
 80058e8:	2301      	movs	r3, #1
 80058ea:	61bb      	str	r3, [r7, #24]
 80058ec:	e002      	b.n	80058f4 <xTaskCreate+0x78>
		}
		else
		{
			xReturn = errCOULD_NOT_ALLOCATE_REQUIRED_MEMORY;
 80058ee:	f04f 33ff 	mov.w	r3, #4294967295
 80058f2:	61bb      	str	r3, [r7, #24]
		}

		return xReturn;
 80058f4:	69bb      	ldr	r3, [r7, #24]
	}
 80058f6:	4618      	mov	r0, r3
 80058f8:	3720      	adds	r7, #32
 80058fa:	46bd      	mov	sp, r7
 80058fc:	bd80      	pop	{r7, pc}
	...

08005900 <prvInitialiseNewTask>:
									void * const pvParameters,
									UBaseType_t uxPriority,
									TaskHandle_t * const pxCreatedTask,
									TCB_t *pxNewTCB,
									const MemoryRegion_t * const xRegions )
{
 8005900:	b580      	push	{r7, lr}
 8005902:	b088      	sub	sp, #32
 8005904:	af00      	add	r7, sp, #0
 8005906:	60f8      	str	r0, [r7, #12]
 8005908:	60b9      	str	r1, [r7, #8]
 800590a:	607a      	str	r2, [r7, #4]
 800590c:	603b      	str	r3, [r7, #0]
	grows from high memory to low (as per the 80x86) or vice versa.
	portSTACK_GROWTH is used to make the result positive or negative as required
	by the port. */
	#if( portSTACK_GROWTH < 0 )
	{
		pxTopOfStack = &( pxNewTCB->pxStack[ ulStackDepth - ( uint32_t ) 1 ] );
 800590e:	6b3b      	ldr	r3, [r7, #48]	@ 0x30
 8005910:	6b1a      	ldr	r2, [r3, #48]	@ 0x30
 8005912:	687b      	ldr	r3, [r7, #4]
 8005914:	f103 4380 	add.w	r3, r3, #1073741824	@ 0x40000000
 8005918:	3b01      	subs	r3, #1
 800591a:	009b      	lsls	r3, r3, #2
 800591c:	4413      	add	r3, r2
 800591e:	61bb      	str	r3, [r7, #24]
		pxTopOfStack = ( StackType_t * ) ( ( ( portPOINTER_SIZE_TYPE ) pxTopOfStack ) & ( ~( ( portPOINTER_SIZE_TYPE ) portBYTE_ALIGNMENT_MASK ) ) ); /*lint !e923 !e9033 !e9078 MISRA exception.  Avoiding casts between pointers and integers is not practical.  Size differences accounted for using portPOINTER_SIZE_TYPE type.  Checked by assert(). */
 8005920:	69bb      	ldr	r3, [r7, #24]
 8005922:	f023 0307 	bic.w	r3, r3, #7
 8005926:	61bb      	str	r3, [r7, #24]

		/* Check the alignment of the calculated top of stack is correct. */
		configASSERT( ( ( ( portPOINTER_SIZE_TYPE ) pxTopOfStack & ( portPOINTER_SIZE_TYPE ) portBYTE_ALIGNMENT_MASK ) == 0UL ) );
 8005928:	69bb      	ldr	r3, [r7, #24]
 800592a:	f003 0307 	and.w	r3, r3, #7
 800592e:	2b00      	cmp	r3, #0
 8005930:	d00b      	beq.n	800594a <prvInitialiseNewTask+0x4a>
	__asm volatile
 8005932:	f04f 0350 	mov.w	r3, #80	@ 0x50
 8005936:	f383 8811 	msr	BASEPRI, r3
 800593a:	f3bf 8f6f 	isb	sy
 800593e:	f3bf 8f4f 	dsb	sy
 8005942:	617b      	str	r3, [r7, #20]
}
 8005944:	bf00      	nop
 8005946:	bf00      	nop
 8005948:	e7fd      	b.n	8005946 <prvInitialiseNewTask+0x46>
		pxNewTCB->pxEndOfStack = pxNewTCB->pxStack + ( ulStackDepth - ( uint32_t ) 1 );
	}
	#endif /* portSTACK_GROWTH */

	/* Store the task name in the TCB. */
	if( pcName != NULL )
 800594a:	68bb      	ldr	r3, [r7, #8]
 800594c:	2b00      	cmp	r3, #0
 800594e:	d01f      	beq.n	8005990 <prvInitialiseNewTask+0x90>
	{
		for( x = ( UBaseType_t ) 0; x < ( UBaseType_t ) configMAX_TASK_NAME_LEN; x++ )
 8005950:	2300      	movs	r3, #0
 8005952:	61fb      	str	r3, [r7, #28]
 8005954:	e012      	b.n	800597c <prvInitialiseNewTask+0x7c>
		{
			pxNewTCB->pcTaskName[ x ] = pcName[ x ];
 8005956:	68ba      	ldr	r2, [r7, #8]
 8005958:	69fb      	ldr	r3, [r7, #28]
 800595a:	4413      	add	r3, r2
 800595c:	7819      	ldrb	r1, [r3, #0]
 800595e:	6b3a      	ldr	r2, [r7, #48]	@ 0x30
 8005960:	69fb      	ldr	r3, [r7, #28]
 8005962:	4413      	add	r3, r2
 8005964:	3334      	adds	r3, #52	@ 0x34
 8005966:	460a      	mov	r2, r1
 8005968:	701a      	strb	r2, [r3, #0]

			/* Don't copy all configMAX_TASK_NAME_LEN if the string is shorter than
			configMAX_TASK_NAME_LEN characters just in case the memory after the
			string is not accessible (extremely unlikely). */
			if( pcName[ x ] == ( char ) 0x00 )
 800596a:	68ba      	ldr	r2, [r7, #8]
 800596c:	69fb      	ldr	r3, [r7, #28]
 800596e:	4413      	add	r3, r2
 8005970:	781b      	ldrb	r3, [r3, #0]
 8005972:	2b00      	cmp	r3, #0
 8005974:	d006      	beq.n	8005984 <prvInitialiseNewTask+0x84>
		for( x = ( UBaseType_t ) 0; x < ( UBaseType_t ) configMAX_TASK_NAME_LEN; x++ )
 8005976:	69fb      	ldr	r3, [r7, #28]
 8005978:	3301      	adds	r3, #1
 800597a:	61fb      	str	r3, [r7, #28]
 800597c:	69fb      	ldr	r3, [r7, #28]
 800597e:	2b0f      	cmp	r3, #15
 8005980:	d9e9      	bls.n	8005956 <prvInitialiseNewTask+0x56>
 8005982:	e000      	b.n	8005986 <prvInitialiseNewTask+0x86>
			{
				break;
 8005984:	bf00      	nop
			}
		}

		/* Ensure the name string is terminated in the case that the string length
		was greater or equal to configMAX_TASK_NAME_LEN. */
		pxNewTCB->pcTaskName[ configMAX_TASK_NAME_LEN - 1 ] = '\0';
 8005986:	6b3b      	ldr	r3, [r7, #48]	@ 0x30
 8005988:	2200      	movs	r2, #0
 800598a:	f883 2043 	strb.w	r2, [r3, #67]	@ 0x43
 800598e:	e003      	b.n	8005998 <prvInitialiseNewTask+0x98>
	}
	else
	{
		/* The task has not been given a name, so just ensure there is a NULL
		terminator when it is read out. */
		pxNewTCB->pcTaskName[ 0 ] = 0x00;
 8005990:	6b3b      	ldr	r3, [r7, #48]	@ 0x30
 8005992:	2200      	movs	r2, #0
 8005994:	f883 2034 	strb.w	r2, [r3, #52]	@ 0x34
	}

	/* This is used as an array index so must ensure it's not too large.  First
	remove the privilege bit if one is present. */
	if( uxPriority >= ( UBaseType_t ) configMAX_PRIORITIES )
 8005998:	6abb      	ldr	r3, [r7, #40]	@ 0x28
 800599a:	2b06      	cmp	r3, #6
 800599c:	d901      	bls.n	80059a2 <prvInitialiseNewTask+0xa2>
	{
		uxPriority = ( UBaseType_t ) configMAX_PRIORITIES - ( UBaseType_t ) 1U;
 800599e:	2306      	movs	r3, #6
 80059a0:	62bb      	str	r3, [r7, #40]	@ 0x28
	else
	{
		mtCOVERAGE_TEST_MARKER();
	}

	pxNewTCB->uxPriority = uxPriority;
 80059a2:	6b3b      	ldr	r3, [r7, #48]	@ 0x30
 80059a4:	6aba      	ldr	r2, [r7, #40]	@ 0x28
 80059a6:	62da      	str	r2, [r3, #44]	@ 0x2c
	#if ( configUSE_MUTEXES == 1 )
	{
		pxNewTCB->uxBasePriority = uxPriority;
 80059a8:	6b3b      	ldr	r3, [r7, #48]	@ 0x30
 80059aa:	6aba      	ldr	r2, [r7, #40]	@ 0x28
 80059ac:	645a      	str	r2, [r3, #68]	@ 0x44
		pxNewTCB->uxMutexesHeld = 0;
 80059ae:	6b3b      	ldr	r3, [r7, #48]	@ 0x30
 80059b0:	2200      	movs	r2, #0
 80059b2:	649a      	str	r2, [r3, #72]	@ 0x48
	}
	#endif /* configUSE_MUTEXES */

	vListInitialiseItem( &( pxNewTCB->xStateListItem ) );
 80059b4:	6b3b      	ldr	r3, [r7, #48]	@ 0x30
 80059b6:	3304      	adds	r3, #4
 80059b8:	4618      	mov	r0, r3
 80059ba:	f7ff f9f7 	bl	8004dac <vListInitialiseItem>
	vListInitialiseItem( &( pxNewTCB->xEventListItem ) );
 80059be:	6b3b      	ldr	r3, [r7, #48]	@ 0x30
 80059c0:	3318      	adds	r3, #24
 80059c2:	4618      	mov	r0, r3
 80059c4:	f7ff f9f2 	bl	8004dac <vListInitialiseItem>

	/* Set the pxNewTCB as a link back from the ListItem_t.  This is so we can get
	back to	the containing TCB from a generic item in a list. */
	listSET_LIST_ITEM_OWNER( &( pxNewTCB->xStateListItem ), pxNewTCB );
 80059c8:	6b3b      	ldr	r3, [r7, #48]	@ 0x30
 80059ca:	6b3a      	ldr	r2, [r7, #48]	@ 0x30
 80059cc:	611a      	str	r2, [r3, #16]

	/* Event lists are always in priority order. */
	listSET_LIST_ITEM_VALUE( &( pxNewTCB->xEventListItem ), ( TickType_t ) configMAX_PRIORITIES - ( TickType_t ) uxPriority ); /*lint !e961 MISRA exception as the casts are only redundant for some ports. */
 80059ce:	6abb      	ldr	r3, [r7, #40]	@ 0x28
 80059d0:	f1c3 0207 	rsb	r2, r3, #7
 80059d4:	6b3b      	ldr	r3, [r7, #48]	@ 0x30
 80059d6:	619a      	str	r2, [r3, #24]
	listSET_LIST_ITEM_OWNER( &( pxNewTCB->xEventListItem ), pxNewTCB );
 80059d8:	6b3b      	ldr	r3, [r7, #48]	@ 0x30
 80059da:	6b3a      	ldr	r2, [r7, #48]	@ 0x30
 80059dc:	625a      	str	r2, [r3, #36]	@ 0x24
	}
	#endif

	#if ( configUSE_TASK_NOTIFICATIONS == 1 )
	{
		pxNewTCB->ulNotifiedValue = 0;
 80059de:	6b3b      	ldr	r3, [r7, #48]	@ 0x30
 80059e0:	2200      	movs	r2, #0
 80059e2:	f8c3 2098 	str.w	r2, [r3, #152]	@ 0x98
		pxNewTCB->ucNotifyState = taskNOT_WAITING_NOTIFICATION;
 80059e6:	6b3b      	ldr	r3, [r7, #48]	@ 0x30
 80059e8:	2200      	movs	r2, #0
 80059ea:	f883 209c 	strb.w	r2, [r3, #156]	@ 0x9c
	#if ( configUSE_NEWLIB_REENTRANT == 1 )
	{
		/* Initialise this task's Newlib reent structure.
		See the third party link http://www.nadler.com/embedded/newlibAndFreeRTOS.html
		for additional information. */
		_REENT_INIT_PTR( ( &( pxNewTCB->xNewLib_reent ) ) );
 80059ee:	6b3b      	ldr	r3, [r7, #48]	@ 0x30
 80059f0:	334c      	adds	r3, #76	@ 0x4c
 80059f2:	224c      	movs	r2, #76	@ 0x4c
 80059f4:	2100      	movs	r1, #0
 80059f6:	4618      	mov	r0, r3
 80059f8:	f001 f9f6 	bl	8006de8 <memset>
 80059fc:	6b3b      	ldr	r3, [r7, #48]	@ 0x30
 80059fe:	4a0d      	ldr	r2, [pc, #52]	@ (8005a34 <prvInitialiseNewTask+0x134>)
 8005a00:	651a      	str	r2, [r3, #80]	@ 0x50
 8005a02:	6b3b      	ldr	r3, [r7, #48]	@ 0x30
 8005a04:	4a0c      	ldr	r2, [pc, #48]	@ (8005a38 <prvInitialiseNewTask+0x138>)
 8005a06:	655a      	str	r2, [r3, #84]	@ 0x54
 8005a08:	6b3b      	ldr	r3, [r7, #48]	@ 0x30
 8005a0a:	4a0c      	ldr	r2, [pc, #48]	@ (8005a3c <prvInitialiseNewTask+0x13c>)
 8005a0c:	659a      	str	r2, [r3, #88]	@ 0x58
			}
			#endif /* portSTACK_GROWTH */
		}
		#else /* portHAS_STACK_OVERFLOW_CHECKING */
		{
			pxNewTCB->pxTopOfStack = pxPortInitialiseStack( pxTopOfStack, pxTaskCode, pvParameters );
 8005a0e:	683a      	ldr	r2, [r7, #0]
 8005a10:	68f9      	ldr	r1, [r7, #12]
 8005a12:	69b8      	ldr	r0, [r7, #24]
 8005a14:	f000 fda8 	bl	8006568 <pxPortInitialiseStack>
 8005a18:	4602      	mov	r2, r0
 8005a1a:	6b3b      	ldr	r3, [r7, #48]	@ 0x30
 8005a1c:	601a      	str	r2, [r3, #0]
		}
		#endif /* portHAS_STACK_OVERFLOW_CHECKING */
	}
	#endif /* portUSING_MPU_WRAPPERS */

	if( pxCreatedTask != NULL )
 8005a1e:	6afb      	ldr	r3, [r7, #44]	@ 0x2c
 8005a20:	2b00      	cmp	r3, #0
 8005a22:	d002      	beq.n	8005a2a <prvInitialiseNewTask+0x12a>
	{
		/* Pass the handle out in an anonymous way.  The handle can be used to
		change the created task's priority, delete the created task, etc.*/
		*pxCreatedTask = ( TaskHandle_t ) pxNewTCB;
 8005a24:	6afb      	ldr	r3, [r7, #44]	@ 0x2c
 8005a26:	6b3a      	ldr	r2, [r7, #48]	@ 0x30
 8005a28:	601a      	str	r2, [r3, #0]
	}
	else
	{
		mtCOVERAGE_TEST_MARKER();
	}
}
 8005a2a:	bf00      	nop
 8005a2c:	3720      	adds	r7, #32
 8005a2e:	46bd      	mov	sp, r7
 8005a30:	bd80      	pop	{r7, pc}
 8005a32:	bf00      	nop
 8005a34:	200072f4 	.word	0x200072f4
 8005a38:	2000735c 	.word	0x2000735c
 8005a3c:	200073c4 	.word	0x200073c4

08005a40 <prvAddNewTaskToReadyList>:
/*-----------------------------------------------------------*/

static void prvAddNewTaskToReadyList( TCB_t *pxNewTCB )
{
 8005a40:	b580      	push	{r7, lr}
 8005a42:	b082      	sub	sp, #8
 8005a44:	af00      	add	r7, sp, #0
 8005a46:	6078      	str	r0, [r7, #4]
	/* Ensure interrupts don't access the task lists while the lists are being
	updated. */
	taskENTER_CRITICAL();
 8005a48:	f000 febe 	bl	80067c8 <vPortEnterCritical>
	{
		uxCurrentNumberOfTasks++;
 8005a4c:	4b2a      	ldr	r3, [pc, #168]	@ (8005af8 <prvAddNewTaskToReadyList+0xb8>)
 8005a4e:	681b      	ldr	r3, [r3, #0]
 8005a50:	3301      	adds	r3, #1
 8005a52:	4a29      	ldr	r2, [pc, #164]	@ (8005af8 <prvAddNewTaskToReadyList+0xb8>)
 8005a54:	6013      	str	r3, [r2, #0]
		if( pxCurrentTCB == NULL )
 8005a56:	4b29      	ldr	r3, [pc, #164]	@ (8005afc <prvAddNewTaskToReadyList+0xbc>)
 8005a58:	681b      	ldr	r3, [r3, #0]
 8005a5a:	2b00      	cmp	r3, #0
 8005a5c:	d109      	bne.n	8005a72 <prvAddNewTaskToReadyList+0x32>
		{
			/* There are no other tasks, or all the other tasks are in
			the suspended state - make this the current task. */
			pxCurrentTCB = pxNewTCB;
 8005a5e:	4a27      	ldr	r2, [pc, #156]	@ (8005afc <prvAddNewTaskToReadyList+0xbc>)
 8005a60:	687b      	ldr	r3, [r7, #4]
 8005a62:	6013      	str	r3, [r2, #0]

			if( uxCurrentNumberOfTasks == ( UBaseType_t ) 1 )
 8005a64:	4b24      	ldr	r3, [pc, #144]	@ (8005af8 <prvAddNewTaskToReadyList+0xb8>)
 8005a66:	681b      	ldr	r3, [r3, #0]
 8005a68:	2b01      	cmp	r3, #1
 8005a6a:	d110      	bne.n	8005a8e <prvAddNewTaskToReadyList+0x4e>
			{
				/* This is the first task to be created so do the preliminary
				initialisation required.  We will not recover if this call
				fails, but we will report the failure. */
				prvInitialiseTaskLists();
 8005a6c:	f000 fbcc 	bl	8006208 <prvInitialiseTaskLists>
 8005a70:	e00d      	b.n	8005a8e <prvAddNewTaskToReadyList+0x4e>
		else
		{
			/* If the scheduler is not already running, make this task the
			current task if it is the highest priority task to be created
			so far. */
			if( xSchedulerRunning == pdFALSE )
 8005a72:	4b23      	ldr	r3, [pc, #140]	@ (8005b00 <prvAddNewTaskToReadyList+0xc0>)
 8005a74:	681b      	ldr	r3, [r3, #0]
 8005a76:	2b00      	cmp	r3, #0
 8005a78:	d109      	bne.n	8005a8e <prvAddNewTaskToReadyList+0x4e>
			{
				if( pxCurrentTCB->uxPriority <= pxNewTCB->uxPriority )
 8005a7a:	4b20      	ldr	r3, [pc, #128]	@ (8005afc <prvAddNewTaskToReadyList+0xbc>)
 8005a7c:	681b      	ldr	r3, [r3, #0]
 8005a7e:	6ada      	ldr	r2, [r3, #44]	@ 0x2c
 8005a80:	687b      	ldr	r3, [r7, #4]
 8005a82:	6adb      	ldr	r3, [r3, #44]	@ 0x2c
 8005a84:	429a      	cmp	r2, r3
 8005a86:	d802      	bhi.n	8005a8e <prvAddNewTaskToReadyList+0x4e>
				{
					pxCurrentTCB = pxNewTCB;
 8005a88:	4a1c      	ldr	r2, [pc, #112]	@ (8005afc <prvAddNewTaskToReadyList+0xbc>)
 8005a8a:	687b      	ldr	r3, [r7, #4]
 8005a8c:	6013      	str	r3, [r2, #0]
			{
				mtCOVERAGE_TEST_MARKER();
			}
		}

		uxTaskNumber++;
 8005a8e:	4b1d      	ldr	r3, [pc, #116]	@ (8005b04 <prvAddNewTaskToReadyList+0xc4>)
 8005a90:	681b      	ldr	r3, [r3, #0]
 8005a92:	3301      	adds	r3, #1
 8005a94:	4a1b      	ldr	r2, [pc, #108]	@ (8005b04 <prvAddNewTaskToReadyList+0xc4>)
 8005a96:	6013      	str	r3, [r2, #0]
			pxNewTCB->uxTCBNumber = uxTaskNumber;
		}
		#endif /* configUSE_TRACE_FACILITY */
		traceTASK_CREATE( pxNewTCB );

		prvAddTaskToReadyList( pxNewTCB );
 8005a98:	687b      	ldr	r3, [r7, #4]
 8005a9a:	6adb      	ldr	r3, [r3, #44]	@ 0x2c
 8005a9c:	2201      	movs	r2, #1
 8005a9e:	409a      	lsls	r2, r3
 8005aa0:	4b19      	ldr	r3, [pc, #100]	@ (8005b08 <prvAddNewTaskToReadyList+0xc8>)
 8005aa2:	681b      	ldr	r3, [r3, #0]
 8005aa4:	4313      	orrs	r3, r2
 8005aa6:	4a18      	ldr	r2, [pc, #96]	@ (8005b08 <prvAddNewTaskToReadyList+0xc8>)
 8005aa8:	6013      	str	r3, [r2, #0]
 8005aaa:	687b      	ldr	r3, [r7, #4]
 8005aac:	6ada      	ldr	r2, [r3, #44]	@ 0x2c
 8005aae:	4613      	mov	r3, r2
 8005ab0:	009b      	lsls	r3, r3, #2
 8005ab2:	4413      	add	r3, r2
 8005ab4:	009b      	lsls	r3, r3, #2
 8005ab6:	4a15      	ldr	r2, [pc, #84]	@ (8005b0c <prvAddNewTaskToReadyList+0xcc>)
 8005ab8:	441a      	add	r2, r3
 8005aba:	687b      	ldr	r3, [r7, #4]
 8005abc:	3304      	adds	r3, #4
 8005abe:	4619      	mov	r1, r3
 8005ac0:	4610      	mov	r0, r2
 8005ac2:	f7ff f980 	bl	8004dc6 <vListInsertEnd>

		portSETUP_TCB( pxNewTCB );
	}
	taskEXIT_CRITICAL();
 8005ac6:	f000 feb1 	bl	800682c <vPortExitCritical>

	if( xSchedulerRunning != pdFALSE )
 8005aca:	4b0d      	ldr	r3, [pc, #52]	@ (8005b00 <prvAddNewTaskToReadyList+0xc0>)
 8005acc:	681b      	ldr	r3, [r3, #0]
 8005ace:	2b00      	cmp	r3, #0
 8005ad0:	d00e      	beq.n	8005af0 <prvAddNewTaskToReadyList+0xb0>
	{
		/* If the created task is of a higher priority than the current task
		then it should run now. */
		if( pxCurrentTCB->uxPriority < pxNewTCB->uxPriority )
 8005ad2:	4b0a      	ldr	r3, [pc, #40]	@ (8005afc <prvAddNewTaskToReadyList+0xbc>)
 8005ad4:	681b      	ldr	r3, [r3, #0]
 8005ad6:	6ada      	ldr	r2, [r3, #44]	@ 0x2c
 8005ad8:	687b      	ldr	r3, [r7, #4]
 8005ada:	6adb      	ldr	r3, [r3, #44]	@ 0x2c
 8005adc:	429a      	cmp	r2, r3
 8005ade:	d207      	bcs.n	8005af0 <prvAddNewTaskToReadyList+0xb0>
		{
			taskYIELD_IF_USING_PREEMPTION();
 8005ae0:	4b0b      	ldr	r3, [pc, #44]	@ (8005b10 <prvAddNewTaskToReadyList+0xd0>)
 8005ae2:	f04f 5280 	mov.w	r2, #268435456	@ 0x10000000
 8005ae6:	601a      	str	r2, [r3, #0]
 8005ae8:	f3bf 8f4f 	dsb	sy
 8005aec:	f3bf 8f6f 	isb	sy
	}
	else
	{
		mtCOVERAGE_TEST_MARKER();
	}
}
 8005af0:	bf00      	nop
 8005af2:	3708      	adds	r7, #8
 8005af4:	46bd      	mov	sp, r7
 8005af6:	bd80      	pop	{r7, pc}
 8005af8:	200022a0 	.word	0x200022a0
 8005afc:	200021a0 	.word	0x200021a0
 8005b00:	200022ac 	.word	0x200022ac
 8005b04:	200022bc 	.word	0x200022bc
 8005b08:	200022a8 	.word	0x200022a8
 8005b0c:	200021a4 	.word	0x200021a4
 8005b10:	e000ed04 	.word	0xe000ed04

08005b14 <vTaskDelay>:
/*-----------------------------------------------------------*/

#if ( INCLUDE_vTaskDelay == 1 )

	void vTaskDelay( const TickType_t xTicksToDelay )
	{
 8005b14:	b580      	push	{r7, lr}
 8005b16:	b084      	sub	sp, #16
 8005b18:	af00      	add	r7, sp, #0
 8005b1a:	6078      	str	r0, [r7, #4]
	BaseType_t xAlreadyYielded = pdFALSE;
 8005b1c:	2300      	movs	r3, #0
 8005b1e:	60fb      	str	r3, [r7, #12]

		/* A delay time of zero just forces a reschedule. */
		if( xTicksToDelay > ( TickType_t ) 0U )
 8005b20:	687b      	ldr	r3, [r7, #4]
 8005b22:	2b00      	cmp	r3, #0
 8005b24:	d018      	beq.n	8005b58 <vTaskDelay+0x44>
		{
			configASSERT( uxSchedulerSuspended == 0 );
 8005b26:	4b14      	ldr	r3, [pc, #80]	@ (8005b78 <vTaskDelay+0x64>)
 8005b28:	681b      	ldr	r3, [r3, #0]
 8005b2a:	2b00      	cmp	r3, #0
 8005b2c:	d00b      	beq.n	8005b46 <vTaskDelay+0x32>
	__asm volatile
 8005b2e:	f04f 0350 	mov.w	r3, #80	@ 0x50
 8005b32:	f383 8811 	msr	BASEPRI, r3
 8005b36:	f3bf 8f6f 	isb	sy
 8005b3a:	f3bf 8f4f 	dsb	sy
 8005b3e:	60bb      	str	r3, [r7, #8]
}
 8005b40:	bf00      	nop
 8005b42:	bf00      	nop
 8005b44:	e7fd      	b.n	8005b42 <vTaskDelay+0x2e>
			vTaskSuspendAll();
 8005b46:	f000 f86d 	bl	8005c24 <vTaskSuspendAll>
				list or removed from the blocked list until the scheduler
				is resumed.

				This task cannot be in an event list as it is the currently
				executing task. */
				prvAddCurrentTaskToDelayedList( xTicksToDelay, pdFALSE );
 8005b4a:	2100      	movs	r1, #0
 8005b4c:	6878      	ldr	r0, [r7, #4]
 8005b4e:	f000 fca5 	bl	800649c <prvAddCurrentTaskToDelayedList>
			}
			xAlreadyYielded = xTaskResumeAll();
 8005b52:	f000 f875 	bl	8005c40 <xTaskResumeAll>
 8005b56:	60f8      	str	r0, [r7, #12]
			mtCOVERAGE_TEST_MARKER();
		}

		/* Force a reschedule if xTaskResumeAll has not already done so, we may
		have put ourselves to sleep. */
		if( xAlreadyYielded == pdFALSE )
 8005b58:	68fb      	ldr	r3, [r7, #12]
 8005b5a:	2b00      	cmp	r3, #0
 8005b5c:	d107      	bne.n	8005b6e <vTaskDelay+0x5a>
		{
			portYIELD_WITHIN_API();
 8005b5e:	4b07      	ldr	r3, [pc, #28]	@ (8005b7c <vTaskDelay+0x68>)
 8005b60:	f04f 5280 	mov.w	r2, #268435456	@ 0x10000000
 8005b64:	601a      	str	r2, [r3, #0]
 8005b66:	f3bf 8f4f 	dsb	sy
 8005b6a:	f3bf 8f6f 	isb	sy
		}
		else
		{
			mtCOVERAGE_TEST_MARKER();
		}
	}
 8005b6e:	bf00      	nop
 8005b70:	3710      	adds	r7, #16
 8005b72:	46bd      	mov	sp, r7
 8005b74:	bd80      	pop	{r7, pc}
 8005b76:	bf00      	nop
 8005b78:	200022c8 	.word	0x200022c8
 8005b7c:	e000ed04 	.word	0xe000ed04

08005b80 <vTaskStartScheduler>:

#endif /* ( ( INCLUDE_xTaskResumeFromISR == 1 ) && ( INCLUDE_vTaskSuspend == 1 ) ) */
/*-----------------------------------------------------------*/

void vTaskStartScheduler( void )
{
 8005b80:	b580      	push	{r7, lr}
 8005b82:	b086      	sub	sp, #24
 8005b84:	af02      	add	r7, sp, #8
		}
	}
	#else
	{
		/* The Idle task is being created using dynamically allocated RAM. */
		xReturn = xTaskCreate(	prvIdleTask,
 8005b86:	4b1f      	ldr	r3, [pc, #124]	@ (8005c04 <vTaskStartScheduler+0x84>)
 8005b88:	9301      	str	r3, [sp, #4]
 8005b8a:	2300      	movs	r3, #0
 8005b8c:	9300      	str	r3, [sp, #0]
 8005b8e:	2300      	movs	r3, #0
 8005b90:	2280      	movs	r2, #128	@ 0x80
 8005b92:	491d      	ldr	r1, [pc, #116]	@ (8005c08 <vTaskStartScheduler+0x88>)
 8005b94:	481d      	ldr	r0, [pc, #116]	@ (8005c0c <vTaskStartScheduler+0x8c>)
 8005b96:	f7ff fe71 	bl	800587c <xTaskCreate>
 8005b9a:	60f8      	str	r0, [r7, #12]
			mtCOVERAGE_TEST_MARKER();
		}
	}
	#endif /* configUSE_TIMERS */

	if( xReturn == pdPASS )
 8005b9c:	68fb      	ldr	r3, [r7, #12]
 8005b9e:	2b01      	cmp	r3, #1
 8005ba0:	d11b      	bne.n	8005bda <vTaskStartScheduler+0x5a>
	__asm volatile
 8005ba2:	f04f 0350 	mov.w	r3, #80	@ 0x50
 8005ba6:	f383 8811 	msr	BASEPRI, r3
 8005baa:	f3bf 8f6f 	isb	sy
 8005bae:	f3bf 8f4f 	dsb	sy
 8005bb2:	60bb      	str	r3, [r7, #8]
}
 8005bb4:	bf00      	nop
		{
			/* Switch Newlib's _impure_ptr variable to point to the _reent
			structure specific to the task that will run first.
			See the third party link http://www.nadler.com/embedded/newlibAndFreeRTOS.html
			for additional information. */
			_impure_ptr = &( pxCurrentTCB->xNewLib_reent );
 8005bb6:	4b16      	ldr	r3, [pc, #88]	@ (8005c10 <vTaskStartScheduler+0x90>)
 8005bb8:	681b      	ldr	r3, [r3, #0]
 8005bba:	334c      	adds	r3, #76	@ 0x4c
 8005bbc:	4a15      	ldr	r2, [pc, #84]	@ (8005c14 <vTaskStartScheduler+0x94>)
 8005bbe:	6013      	str	r3, [r2, #0]
		}
		#endif /* configUSE_NEWLIB_REENTRANT */

		xNextTaskUnblockTime = portMAX_DELAY;
 8005bc0:	4b15      	ldr	r3, [pc, #84]	@ (8005c18 <vTaskStartScheduler+0x98>)
 8005bc2:	f04f 32ff 	mov.w	r2, #4294967295
 8005bc6:	601a      	str	r2, [r3, #0]
		xSchedulerRunning = pdTRUE;
 8005bc8:	4b14      	ldr	r3, [pc, #80]	@ (8005c1c <vTaskStartScheduler+0x9c>)
 8005bca:	2201      	movs	r2, #1
 8005bcc:	601a      	str	r2, [r3, #0]
		xTickCount = ( TickType_t ) configINITIAL_TICK_COUNT;
 8005bce:	4b14      	ldr	r3, [pc, #80]	@ (8005c20 <vTaskStartScheduler+0xa0>)
 8005bd0:	2200      	movs	r2, #0
 8005bd2:	601a      	str	r2, [r3, #0]

		traceTASK_SWITCHED_IN();

		/* Setting up the timer tick is hardware specific and thus in the
		portable interface. */
		if( xPortStartScheduler() != pdFALSE )
 8005bd4:	f000 fd54 	bl	8006680 <xPortStartScheduler>
	}

	/* Prevent compiler warnings if INCLUDE_xTaskGetIdleTaskHandle is set to 0,
	meaning xIdleTaskHandle is not used anywhere else. */
	( void ) xIdleTaskHandle;
}
 8005bd8:	e00f      	b.n	8005bfa <vTaskStartScheduler+0x7a>
		configASSERT( xReturn != errCOULD_NOT_ALLOCATE_REQUIRED_MEMORY );
 8005bda:	68fb      	ldr	r3, [r7, #12]
 8005bdc:	f1b3 3fff 	cmp.w	r3, #4294967295
 8005be0:	d10b      	bne.n	8005bfa <vTaskStartScheduler+0x7a>
	__asm volatile
 8005be2:	f04f 0350 	mov.w	r3, #80	@ 0x50
 8005be6:	f383 8811 	msr	BASEPRI, r3
 8005bea:	f3bf 8f6f 	isb	sy
 8005bee:	f3bf 8f4f 	dsb	sy
 8005bf2:	607b      	str	r3, [r7, #4]
}
 8005bf4:	bf00      	nop
 8005bf6:	bf00      	nop
 8005bf8:	e7fd      	b.n	8005bf6 <vTaskStartScheduler+0x76>
}
 8005bfa:	bf00      	nop
 8005bfc:	3710      	adds	r7, #16
 8005bfe:	46bd      	mov	sp, r7
 8005c00:	bd80      	pop	{r7, pc}
 8005c02:	bf00      	nop
 8005c04:	200022c4 	.word	0x200022c4
 8005c08:	08007278 	.word	0x08007278
 8005c0c:	080061d9 	.word	0x080061d9
 8005c10:	200021a0 	.word	0x200021a0
 8005c14:	20000024 	.word	0x20000024
 8005c18:	200022c0 	.word	0x200022c0
 8005c1c:	200022ac 	.word	0x200022ac
 8005c20:	200022a4 	.word	0x200022a4

08005c24 <vTaskSuspendAll>:
	vPortEndScheduler();
}
/*----------------------------------------------------------*/

void vTaskSuspendAll( void )
{
 8005c24:	b480      	push	{r7}
 8005c26:	af00      	add	r7, sp, #0
	do not otherwise exhibit real time behaviour. */
	portSOFTWARE_BARRIER();

	/* The scheduler is suspended if uxSchedulerSuspended is non-zero.  An increment
	is used to allow calls to vTaskSuspendAll() to nest. */
	++uxSchedulerSuspended;
 8005c28:	4b04      	ldr	r3, [pc, #16]	@ (8005c3c <vTaskSuspendAll+0x18>)
 8005c2a:	681b      	ldr	r3, [r3, #0]
 8005c2c:	3301      	adds	r3, #1
 8005c2e:	4a03      	ldr	r2, [pc, #12]	@ (8005c3c <vTaskSuspendAll+0x18>)
 8005c30:	6013      	str	r3, [r2, #0]

	/* Enforces ordering for ports and optimised compilers that may otherwise place
	the above increment elsewhere. */
	portMEMORY_BARRIER();
}
 8005c32:	bf00      	nop
 8005c34:	46bd      	mov	sp, r7
 8005c36:	f85d 7b04 	ldr.w	r7, [sp], #4
 8005c3a:	4770      	bx	lr
 8005c3c:	200022c8 	.word	0x200022c8

08005c40 <xTaskResumeAll>:

#endif /* configUSE_TICKLESS_IDLE */
/*----------------------------------------------------------*/

BaseType_t xTaskResumeAll( void )
{
 8005c40:	b580      	push	{r7, lr}
 8005c42:	b084      	sub	sp, #16
 8005c44:	af00      	add	r7, sp, #0
TCB_t *pxTCB = NULL;
 8005c46:	2300      	movs	r3, #0
 8005c48:	60fb      	str	r3, [r7, #12]
BaseType_t xAlreadyYielded = pdFALSE;
 8005c4a:	2300      	movs	r3, #0
 8005c4c:	60bb      	str	r3, [r7, #8]

	/* If uxSchedulerSuspended is zero then this function does not match a
	previous call to vTaskSuspendAll(). */
	configASSERT( uxSchedulerSuspended );
 8005c4e:	4b42      	ldr	r3, [pc, #264]	@ (8005d58 <xTaskResumeAll+0x118>)
 8005c50:	681b      	ldr	r3, [r3, #0]
 8005c52:	2b00      	cmp	r3, #0
 8005c54:	d10b      	bne.n	8005c6e <xTaskResumeAll+0x2e>
	__asm volatile
 8005c56:	f04f 0350 	mov.w	r3, #80	@ 0x50
 8005c5a:	f383 8811 	msr	BASEPRI, r3
 8005c5e:	f3bf 8f6f 	isb	sy
 8005c62:	f3bf 8f4f 	dsb	sy
 8005c66:	603b      	str	r3, [r7, #0]
}
 8005c68:	bf00      	nop
 8005c6a:	bf00      	nop
 8005c6c:	e7fd      	b.n	8005c6a <xTaskResumeAll+0x2a>
	/* It is possible that an ISR caused a task to be removed from an event
	list while the scheduler was suspended.  If this was the case then the
	removed task will have been added to the xPendingReadyList.  Once the
	scheduler has been resumed it is safe to move all the pending ready
	tasks from this list into their appropriate ready list. */
	taskENTER_CRITICAL();
 8005c6e:	f000 fdab 	bl	80067c8 <vPortEnterCritical>
	{
		--uxSchedulerSuspended;
 8005c72:	4b39      	ldr	r3, [pc, #228]	@ (8005d58 <xTaskResumeAll+0x118>)
 8005c74:	681b      	ldr	r3, [r3, #0]
 8005c76:	3b01      	subs	r3, #1
 8005c78:	4a37      	ldr	r2, [pc, #220]	@ (8005d58 <xTaskResumeAll+0x118>)
 8005c7a:	6013      	str	r3, [r2, #0]

		if( uxSchedulerSuspended == ( UBaseType_t ) pdFALSE )
 8005c7c:	4b36      	ldr	r3, [pc, #216]	@ (8005d58 <xTaskResumeAll+0x118>)
 8005c7e:	681b      	ldr	r3, [r3, #0]
 8005c80:	2b00      	cmp	r3, #0
 8005c82:	d161      	bne.n	8005d48 <xTaskResumeAll+0x108>
		{
			if( uxCurrentNumberOfTasks > ( UBaseType_t ) 0U )
 8005c84:	4b35      	ldr	r3, [pc, #212]	@ (8005d5c <xTaskResumeAll+0x11c>)
 8005c86:	681b      	ldr	r3, [r3, #0]
 8005c88:	2b00      	cmp	r3, #0
 8005c8a:	d05d      	beq.n	8005d48 <xTaskResumeAll+0x108>
			{
				/* Move any readied tasks from the pending list into the
				appropriate ready list. */
				while( listLIST_IS_EMPTY( &xPendingReadyList ) == pdFALSE )
 8005c8c:	e02e      	b.n	8005cec <xTaskResumeAll+0xac>
				{
					pxTCB = listGET_OWNER_OF_HEAD_ENTRY( ( &xPendingReadyList ) ); /*lint !e9079 void * is used as this macro is used with timers and co-routines too.  Alignment is known to be fine as the type of the pointer stored and retrieved is the same. */
 8005c8e:	4b34      	ldr	r3, [pc, #208]	@ (8005d60 <xTaskResumeAll+0x120>)
 8005c90:	68db      	ldr	r3, [r3, #12]
 8005c92:	68db      	ldr	r3, [r3, #12]
 8005c94:	60fb      	str	r3, [r7, #12]
					( void ) uxListRemove( &( pxTCB->xEventListItem ) );
 8005c96:	68fb      	ldr	r3, [r7, #12]
 8005c98:	3318      	adds	r3, #24
 8005c9a:	4618      	mov	r0, r3
 8005c9c:	f7ff f8f0 	bl	8004e80 <uxListRemove>
					( void ) uxListRemove( &( pxTCB->xStateListItem ) );
 8005ca0:	68fb      	ldr	r3, [r7, #12]
 8005ca2:	3304      	adds	r3, #4
 8005ca4:	4618      	mov	r0, r3
 8005ca6:	f7ff f8eb 	bl	8004e80 <uxListRemove>
					prvAddTaskToReadyList( pxTCB );
 8005caa:	68fb      	ldr	r3, [r7, #12]
 8005cac:	6adb      	ldr	r3, [r3, #44]	@ 0x2c
 8005cae:	2201      	movs	r2, #1
 8005cb0:	409a      	lsls	r2, r3
 8005cb2:	4b2c      	ldr	r3, [pc, #176]	@ (8005d64 <xTaskResumeAll+0x124>)
 8005cb4:	681b      	ldr	r3, [r3, #0]
 8005cb6:	4313      	orrs	r3, r2
 8005cb8:	4a2a      	ldr	r2, [pc, #168]	@ (8005d64 <xTaskResumeAll+0x124>)
 8005cba:	6013      	str	r3, [r2, #0]
 8005cbc:	68fb      	ldr	r3, [r7, #12]
 8005cbe:	6ada      	ldr	r2, [r3, #44]	@ 0x2c
 8005cc0:	4613      	mov	r3, r2
 8005cc2:	009b      	lsls	r3, r3, #2
 8005cc4:	4413      	add	r3, r2
 8005cc6:	009b      	lsls	r3, r3, #2
 8005cc8:	4a27      	ldr	r2, [pc, #156]	@ (8005d68 <xTaskResumeAll+0x128>)
 8005cca:	441a      	add	r2, r3
 8005ccc:	68fb      	ldr	r3, [r7, #12]
 8005cce:	3304      	adds	r3, #4
 8005cd0:	4619      	mov	r1, r3
 8005cd2:	4610      	mov	r0, r2
 8005cd4:	f7ff f877 	bl	8004dc6 <vListInsertEnd>

					/* If the moved task has a priority higher than the current
					task then a yield must be performed. */
					if( pxTCB->uxPriority >= pxCurrentTCB->uxPriority )
 8005cd8:	68fb      	ldr	r3, [r7, #12]
 8005cda:	6ada      	ldr	r2, [r3, #44]	@ 0x2c
 8005cdc:	4b23      	ldr	r3, [pc, #140]	@ (8005d6c <xTaskResumeAll+0x12c>)
 8005cde:	681b      	ldr	r3, [r3, #0]
 8005ce0:	6adb      	ldr	r3, [r3, #44]	@ 0x2c
 8005ce2:	429a      	cmp	r2, r3
 8005ce4:	d302      	bcc.n	8005cec <xTaskResumeAll+0xac>
					{
						xYieldPending = pdTRUE;
 8005ce6:	4b22      	ldr	r3, [pc, #136]	@ (8005d70 <xTaskResumeAll+0x130>)
 8005ce8:	2201      	movs	r2, #1
 8005cea:	601a      	str	r2, [r3, #0]
				while( listLIST_IS_EMPTY( &xPendingReadyList ) == pdFALSE )
 8005cec:	4b1c      	ldr	r3, [pc, #112]	@ (8005d60 <xTaskResumeAll+0x120>)
 8005cee:	681b      	ldr	r3, [r3, #0]
 8005cf0:	2b00      	cmp	r3, #0
 8005cf2:	d1cc      	bne.n	8005c8e <xTaskResumeAll+0x4e>
					{
						mtCOVERAGE_TEST_MARKER();
					}
				}

				if( pxTCB != NULL )
 8005cf4:	68fb      	ldr	r3, [r7, #12]
 8005cf6:	2b00      	cmp	r3, #0
 8005cf8:	d001      	beq.n	8005cfe <xTaskResumeAll+0xbe>
					which may have prevented the next unblock time from being
					re-calculated, in which case re-calculate it now.  Mainly
					important for low power tickless implementations, where
					this can prevent an unnecessary exit from low power
					state. */
					prvResetNextTaskUnblockTime();
 8005cfa:	f000 fb09 	bl	8006310 <prvResetNextTaskUnblockTime>
				/* If any ticks occurred while the scheduler was suspended then
				they should be processed now.  This ensures the tick count does
				not	slip, and that any delayed tasks are resumed at the correct
				time. */
				{
					TickType_t xPendedCounts = xPendedTicks; /* Non-volatile copy. */
 8005cfe:	4b1d      	ldr	r3, [pc, #116]	@ (8005d74 <xTaskResumeAll+0x134>)
 8005d00:	681b      	ldr	r3, [r3, #0]
 8005d02:	607b      	str	r3, [r7, #4]

					if( xPendedCounts > ( TickType_t ) 0U )
 8005d04:	687b      	ldr	r3, [r7, #4]
 8005d06:	2b00      	cmp	r3, #0
 8005d08:	d010      	beq.n	8005d2c <xTaskResumeAll+0xec>
					{
						do
						{
							if( xTaskIncrementTick() != pdFALSE )
 8005d0a:	f000 f837 	bl	8005d7c <xTaskIncrementTick>
 8005d0e:	4603      	mov	r3, r0
 8005d10:	2b00      	cmp	r3, #0
 8005d12:	d002      	beq.n	8005d1a <xTaskResumeAll+0xda>
							{
								xYieldPending = pdTRUE;
 8005d14:	4b16      	ldr	r3, [pc, #88]	@ (8005d70 <xTaskResumeAll+0x130>)
 8005d16:	2201      	movs	r2, #1
 8005d18:	601a      	str	r2, [r3, #0]
							}
							else
							{
								mtCOVERAGE_TEST_MARKER();
							}
							--xPendedCounts;
 8005d1a:	687b      	ldr	r3, [r7, #4]
 8005d1c:	3b01      	subs	r3, #1
 8005d1e:	607b      	str	r3, [r7, #4]
						} while( xPendedCounts > ( TickType_t ) 0U );
 8005d20:	687b      	ldr	r3, [r7, #4]
 8005d22:	2b00      	cmp	r3, #0
 8005d24:	d1f1      	bne.n	8005d0a <xTaskResumeAll+0xca>

						xPendedTicks = 0;
 8005d26:	4b13      	ldr	r3, [pc, #76]	@ (8005d74 <xTaskResumeAll+0x134>)
 8005d28:	2200      	movs	r2, #0
 8005d2a:	601a      	str	r2, [r3, #0]
					{
						mtCOVERAGE_TEST_MARKER();
					}
				}

				if( xYieldPending != pdFALSE )
 8005d2c:	4b10      	ldr	r3, [pc, #64]	@ (8005d70 <xTaskResumeAll+0x130>)
 8005d2e:	681b      	ldr	r3, [r3, #0]
 8005d30:	2b00      	cmp	r3, #0
 8005d32:	d009      	beq.n	8005d48 <xTaskResumeAll+0x108>
				{
					#if( configUSE_PREEMPTION != 0 )
					{
						xAlreadyYielded = pdTRUE;
 8005d34:	2301      	movs	r3, #1
 8005d36:	60bb      	str	r3, [r7, #8]
					}
					#endif
					taskYIELD_IF_USING_PREEMPTION();
 8005d38:	4b0f      	ldr	r3, [pc, #60]	@ (8005d78 <xTaskResumeAll+0x138>)
 8005d3a:	f04f 5280 	mov.w	r2, #268435456	@ 0x10000000
 8005d3e:	601a      	str	r2, [r3, #0]
 8005d40:	f3bf 8f4f 	dsb	sy
 8005d44:	f3bf 8f6f 	isb	sy
		else
		{
			mtCOVERAGE_TEST_MARKER();
		}
	}
	taskEXIT_CRITICAL();
 8005d48:	f000 fd70 	bl	800682c <vPortExitCritical>

	return xAlreadyYielded;
 8005d4c:	68bb      	ldr	r3, [r7, #8]
}
 8005d4e:	4618      	mov	r0, r3
 8005d50:	3710      	adds	r7, #16
 8005d52:	46bd      	mov	sp, r7
 8005d54:	bd80      	pop	{r7, pc}
 8005d56:	bf00      	nop
 8005d58:	200022c8 	.word	0x200022c8
 8005d5c:	200022a0 	.word	0x200022a0
 8005d60:	20002260 	.word	0x20002260
 8005d64:	200022a8 	.word	0x200022a8
 8005d68:	200021a4 	.word	0x200021a4
 8005d6c:	200021a0 	.word	0x200021a0
 8005d70:	200022b4 	.word	0x200022b4
 8005d74:	200022b0 	.word	0x200022b0
 8005d78:	e000ed04 	.word	0xe000ed04

08005d7c <xTaskIncrementTick>:

#endif /* INCLUDE_xTaskAbortDelay */
/*----------------------------------------------------------*/

BaseType_t xTaskIncrementTick( void )
{
 8005d7c:	b580      	push	{r7, lr}
 8005d7e:	b086      	sub	sp, #24
 8005d80:	af00      	add	r7, sp, #0
TCB_t * pxTCB;
TickType_t xItemValue;
BaseType_t xSwitchRequired = pdFALSE;
 8005d82:	2300      	movs	r3, #0
 8005d84:	617b      	str	r3, [r7, #20]

	/* Called by the portable layer each time a tick interrupt occurs.
	Increments the tick then checks to see if the new tick value will cause any
	tasks to be unblocked. */
	traceTASK_INCREMENT_TICK( xTickCount );
	if( uxSchedulerSuspended == ( UBaseType_t ) pdFALSE )
 8005d86:	4b4f      	ldr	r3, [pc, #316]	@ (8005ec4 <xTaskIncrementTick+0x148>)
 8005d88:	681b      	ldr	r3, [r3, #0]
 8005d8a:	2b00      	cmp	r3, #0
 8005d8c:	f040 808f 	bne.w	8005eae <xTaskIncrementTick+0x132>
	{
		/* Minor optimisation.  The tick count cannot change in this
		block. */
		const TickType_t xConstTickCount = xTickCount + ( TickType_t ) 1;
 8005d90:	4b4d      	ldr	r3, [pc, #308]	@ (8005ec8 <xTaskIncrementTick+0x14c>)
 8005d92:	681b      	ldr	r3, [r3, #0]
 8005d94:	3301      	adds	r3, #1
 8005d96:	613b      	str	r3, [r7, #16]

		/* Increment the RTOS tick, switching the delayed and overflowed
		delayed lists if it wraps to 0. */
		xTickCount = xConstTickCount;
 8005d98:	4a4b      	ldr	r2, [pc, #300]	@ (8005ec8 <xTaskIncrementTick+0x14c>)
 8005d9a:	693b      	ldr	r3, [r7, #16]
 8005d9c:	6013      	str	r3, [r2, #0]

		if( xConstTickCount == ( TickType_t ) 0U ) /*lint !e774 'if' does not always evaluate to false as it is looking for an overflow. */
 8005d9e:	693b      	ldr	r3, [r7, #16]
 8005da0:	2b00      	cmp	r3, #0
 8005da2:	d121      	bne.n	8005de8 <xTaskIncrementTick+0x6c>
		{
			taskSWITCH_DELAYED_LISTS();
 8005da4:	4b49      	ldr	r3, [pc, #292]	@ (8005ecc <xTaskIncrementTick+0x150>)
 8005da6:	681b      	ldr	r3, [r3, #0]
 8005da8:	681b      	ldr	r3, [r3, #0]
 8005daa:	2b00      	cmp	r3, #0
 8005dac:	d00b      	beq.n	8005dc6 <xTaskIncrementTick+0x4a>
	__asm volatile
 8005dae:	f04f 0350 	mov.w	r3, #80	@ 0x50
 8005db2:	f383 8811 	msr	BASEPRI, r3
 8005db6:	f3bf 8f6f 	isb	sy
 8005dba:	f3bf 8f4f 	dsb	sy
 8005dbe:	603b      	str	r3, [r7, #0]
}
 8005dc0:	bf00      	nop
 8005dc2:	bf00      	nop
 8005dc4:	e7fd      	b.n	8005dc2 <xTaskIncrementTick+0x46>
 8005dc6:	4b41      	ldr	r3, [pc, #260]	@ (8005ecc <xTaskIncrementTick+0x150>)
 8005dc8:	681b      	ldr	r3, [r3, #0]
 8005dca:	60fb      	str	r3, [r7, #12]
 8005dcc:	4b40      	ldr	r3, [pc, #256]	@ (8005ed0 <xTaskIncrementTick+0x154>)
 8005dce:	681b      	ldr	r3, [r3, #0]
 8005dd0:	4a3e      	ldr	r2, [pc, #248]	@ (8005ecc <xTaskIncrementTick+0x150>)
 8005dd2:	6013      	str	r3, [r2, #0]
 8005dd4:	4a3e      	ldr	r2, [pc, #248]	@ (8005ed0 <xTaskIncrementTick+0x154>)
 8005dd6:	68fb      	ldr	r3, [r7, #12]
 8005dd8:	6013      	str	r3, [r2, #0]
 8005dda:	4b3e      	ldr	r3, [pc, #248]	@ (8005ed4 <xTaskIncrementTick+0x158>)
 8005ddc:	681b      	ldr	r3, [r3, #0]
 8005dde:	3301      	adds	r3, #1
 8005de0:	4a3c      	ldr	r2, [pc, #240]	@ (8005ed4 <xTaskIncrementTick+0x158>)
 8005de2:	6013      	str	r3, [r2, #0]
 8005de4:	f000 fa94 	bl	8006310 <prvResetNextTaskUnblockTime>

		/* See if this tick has made a timeout expire.  Tasks are stored in
		the	queue in the order of their wake time - meaning once one task
		has been found whose block time has not expired there is no need to
		look any further down the list. */
		if( xConstTickCount >= xNextTaskUnblockTime )
 8005de8:	4b3b      	ldr	r3, [pc, #236]	@ (8005ed8 <xTaskIncrementTick+0x15c>)
 8005dea:	681b      	ldr	r3, [r3, #0]
 8005dec:	693a      	ldr	r2, [r7, #16]
 8005dee:	429a      	cmp	r2, r3
 8005df0:	d348      	bcc.n	8005e84 <xTaskIncrementTick+0x108>
		{
			for( ;; )
			{
				if( listLIST_IS_EMPTY( pxDelayedTaskList ) != pdFALSE )
 8005df2:	4b36      	ldr	r3, [pc, #216]	@ (8005ecc <xTaskIncrementTick+0x150>)
 8005df4:	681b      	ldr	r3, [r3, #0]
 8005df6:	681b      	ldr	r3, [r3, #0]
 8005df8:	2b00      	cmp	r3, #0
 8005dfa:	d104      	bne.n	8005e06 <xTaskIncrementTick+0x8a>
					/* The delayed list is empty.  Set xNextTaskUnblockTime
					to the maximum possible value so it is extremely
					unlikely that the
					if( xTickCount >= xNextTaskUnblockTime ) test will pass
					next time through. */
					xNextTaskUnblockTime = portMAX_DELAY; /*lint !e961 MISRA exception as the casts are only redundant for some ports. */
 8005dfc:	4b36      	ldr	r3, [pc, #216]	@ (8005ed8 <xTaskIncrementTick+0x15c>)
 8005dfe:	f04f 32ff 	mov.w	r2, #4294967295
 8005e02:	601a      	str	r2, [r3, #0]
					break;
 8005e04:	e03e      	b.n	8005e84 <xTaskIncrementTick+0x108>
				{
					/* The delayed list is not empty, get the value of the
					item at the head of the delayed list.  This is the time
					at which the task at the head of the delayed list must
					be removed from the Blocked state. */
					pxTCB = listGET_OWNER_OF_HEAD_ENTRY( pxDelayedTaskList ); /*lint !e9079 void * is used as this macro is used with timers and co-routines too.  Alignment is known to be fine as the type of the pointer stored and retrieved is the same. */
 8005e06:	4b31      	ldr	r3, [pc, #196]	@ (8005ecc <xTaskIncrementTick+0x150>)
 8005e08:	681b      	ldr	r3, [r3, #0]
 8005e0a:	68db      	ldr	r3, [r3, #12]
 8005e0c:	68db      	ldr	r3, [r3, #12]
 8005e0e:	60bb      	str	r3, [r7, #8]
					xItemValue = listGET_LIST_ITEM_VALUE( &( pxTCB->xStateListItem ) );
 8005e10:	68bb      	ldr	r3, [r7, #8]
 8005e12:	685b      	ldr	r3, [r3, #4]
 8005e14:	607b      	str	r3, [r7, #4]

					if( xConstTickCount < xItemValue )
 8005e16:	693a      	ldr	r2, [r7, #16]
 8005e18:	687b      	ldr	r3, [r7, #4]
 8005e1a:	429a      	cmp	r2, r3
 8005e1c:	d203      	bcs.n	8005e26 <xTaskIncrementTick+0xaa>
						/* It is not time to unblock this item yet, but the
						item value is the time at which the task at the head
						of the blocked list must be removed from the Blocked
						state -	so record the item value in
						xNextTaskUnblockTime. */
						xNextTaskUnblockTime = xItemValue;
 8005e1e:	4a2e      	ldr	r2, [pc, #184]	@ (8005ed8 <xTaskIncrementTick+0x15c>)
 8005e20:	687b      	ldr	r3, [r7, #4]
 8005e22:	6013      	str	r3, [r2, #0]
						break; /*lint !e9011 Code structure here is deedmed easier to understand with multiple breaks. */
 8005e24:	e02e      	b.n	8005e84 <xTaskIncrementTick+0x108>
					{
						mtCOVERAGE_TEST_MARKER();
					}

					/* It is time to remove the item from the Blocked state. */
					( void ) uxListRemove( &( pxTCB->xStateListItem ) );
 8005e26:	68bb      	ldr	r3, [r7, #8]
 8005e28:	3304      	adds	r3, #4
 8005e2a:	4618      	mov	r0, r3
 8005e2c:	f7ff f828 	bl	8004e80 <uxListRemove>

					/* Is the task waiting on an event also?  If so remove
					it from the event list. */
					if( listLIST_ITEM_CONTAINER( &( pxTCB->xEventListItem ) ) != NULL )
 8005e30:	68bb      	ldr	r3, [r7, #8]
 8005e32:	6a9b      	ldr	r3, [r3, #40]	@ 0x28
 8005e34:	2b00      	cmp	r3, #0
 8005e36:	d004      	beq.n	8005e42 <xTaskIncrementTick+0xc6>
					{
						( void ) uxListRemove( &( pxTCB->xEventListItem ) );
 8005e38:	68bb      	ldr	r3, [r7, #8]
 8005e3a:	3318      	adds	r3, #24
 8005e3c:	4618      	mov	r0, r3
 8005e3e:	f7ff f81f 	bl	8004e80 <uxListRemove>
						mtCOVERAGE_TEST_MARKER();
					}

					/* Place the unblocked task into the appropriate ready
					list. */
					prvAddTaskToReadyList( pxTCB );
 8005e42:	68bb      	ldr	r3, [r7, #8]
 8005e44:	6adb      	ldr	r3, [r3, #44]	@ 0x2c
 8005e46:	2201      	movs	r2, #1
 8005e48:	409a      	lsls	r2, r3
 8005e4a:	4b24      	ldr	r3, [pc, #144]	@ (8005edc <xTaskIncrementTick+0x160>)
 8005e4c:	681b      	ldr	r3, [r3, #0]
 8005e4e:	4313      	orrs	r3, r2
 8005e50:	4a22      	ldr	r2, [pc, #136]	@ (8005edc <xTaskIncrementTick+0x160>)
 8005e52:	6013      	str	r3, [r2, #0]
 8005e54:	68bb      	ldr	r3, [r7, #8]
 8005e56:	6ada      	ldr	r2, [r3, #44]	@ 0x2c
 8005e58:	4613      	mov	r3, r2
 8005e5a:	009b      	lsls	r3, r3, #2
 8005e5c:	4413      	add	r3, r2
 8005e5e:	009b      	lsls	r3, r3, #2
 8005e60:	4a1f      	ldr	r2, [pc, #124]	@ (8005ee0 <xTaskIncrementTick+0x164>)
 8005e62:	441a      	add	r2, r3
 8005e64:	68bb      	ldr	r3, [r7, #8]
 8005e66:	3304      	adds	r3, #4
 8005e68:	4619      	mov	r1, r3
 8005e6a:	4610      	mov	r0, r2
 8005e6c:	f7fe ffab 	bl	8004dc6 <vListInsertEnd>
					{
						/* Preemption is on, but a context switch should
						only be performed if the unblocked task has a
						priority that is equal to or higher than the
						currently executing task. */
						if( pxTCB->uxPriority >= pxCurrentTCB->uxPriority )
 8005e70:	68bb      	ldr	r3, [r7, #8]
 8005e72:	6ada      	ldr	r2, [r3, #44]	@ 0x2c
 8005e74:	4b1b      	ldr	r3, [pc, #108]	@ (8005ee4 <xTaskIncrementTick+0x168>)
 8005e76:	681b      	ldr	r3, [r3, #0]
 8005e78:	6adb      	ldr	r3, [r3, #44]	@ 0x2c
 8005e7a:	429a      	cmp	r2, r3
 8005e7c:	d3b9      	bcc.n	8005df2 <xTaskIncrementTick+0x76>
						{
							xSwitchRequired = pdTRUE;
 8005e7e:	2301      	movs	r3, #1
 8005e80:	617b      	str	r3, [r7, #20]
				if( listLIST_IS_EMPTY( pxDelayedTaskList ) != pdFALSE )
 8005e82:	e7b6      	b.n	8005df2 <xTaskIncrementTick+0x76>
		/* Tasks of equal priority to the currently running task will share
		processing time (time slice) if preemption is on, and the application
		writer has not explicitly turned time slicing off. */
		#if ( ( configUSE_PREEMPTION == 1 ) && ( configUSE_TIME_SLICING == 1 ) )
		{
			if( listCURRENT_LIST_LENGTH( &( pxReadyTasksLists[ pxCurrentTCB->uxPriority ] ) ) > ( UBaseType_t ) 1 )
 8005e84:	4b17      	ldr	r3, [pc, #92]	@ (8005ee4 <xTaskIncrementTick+0x168>)
 8005e86:	681b      	ldr	r3, [r3, #0]
 8005e88:	6ada      	ldr	r2, [r3, #44]	@ 0x2c
 8005e8a:	4915      	ldr	r1, [pc, #84]	@ (8005ee0 <xTaskIncrementTick+0x164>)
 8005e8c:	4613      	mov	r3, r2
 8005e8e:	009b      	lsls	r3, r3, #2
 8005e90:	4413      	add	r3, r2
 8005e92:	009b      	lsls	r3, r3, #2
 8005e94:	440b      	add	r3, r1
 8005e96:	681b      	ldr	r3, [r3, #0]
 8005e98:	2b01      	cmp	r3, #1
 8005e9a:	d901      	bls.n	8005ea0 <xTaskIncrementTick+0x124>
			{
				xSwitchRequired = pdTRUE;
 8005e9c:	2301      	movs	r3, #1
 8005e9e:	617b      	str	r3, [r7, #20]
		}
		#endif /* configUSE_TICK_HOOK */

		#if ( configUSE_PREEMPTION == 1 )
		{
			if( xYieldPending != pdFALSE )
 8005ea0:	4b11      	ldr	r3, [pc, #68]	@ (8005ee8 <xTaskIncrementTick+0x16c>)
 8005ea2:	681b      	ldr	r3, [r3, #0]
 8005ea4:	2b00      	cmp	r3, #0
 8005ea6:	d007      	beq.n	8005eb8 <xTaskIncrementTick+0x13c>
			{
				xSwitchRequired = pdTRUE;
 8005ea8:	2301      	movs	r3, #1
 8005eaa:	617b      	str	r3, [r7, #20]
 8005eac:	e004      	b.n	8005eb8 <xTaskIncrementTick+0x13c>
		}
		#endif /* configUSE_PREEMPTION */
	}
	else
	{
		++xPendedTicks;
 8005eae:	4b0f      	ldr	r3, [pc, #60]	@ (8005eec <xTaskIncrementTick+0x170>)
 8005eb0:	681b      	ldr	r3, [r3, #0]
 8005eb2:	3301      	adds	r3, #1
 8005eb4:	4a0d      	ldr	r2, [pc, #52]	@ (8005eec <xTaskIncrementTick+0x170>)
 8005eb6:	6013      	str	r3, [r2, #0]
			vApplicationTickHook();
		}
		#endif
	}

	return xSwitchRequired;
 8005eb8:	697b      	ldr	r3, [r7, #20]
}
 8005eba:	4618      	mov	r0, r3
 8005ebc:	3718      	adds	r7, #24
 8005ebe:	46bd      	mov	sp, r7
 8005ec0:	bd80      	pop	{r7, pc}
 8005ec2:	bf00      	nop
 8005ec4:	200022c8 	.word	0x200022c8
 8005ec8:	200022a4 	.word	0x200022a4
 8005ecc:	20002258 	.word	0x20002258
 8005ed0:	2000225c 	.word	0x2000225c
 8005ed4:	200022b8 	.word	0x200022b8
 8005ed8:	200022c0 	.word	0x200022c0
 8005edc:	200022a8 	.word	0x200022a8
 8005ee0:	200021a4 	.word	0x200021a4
 8005ee4:	200021a0 	.word	0x200021a0
 8005ee8:	200022b4 	.word	0x200022b4
 8005eec:	200022b0 	.word	0x200022b0

08005ef0 <vTaskSwitchContext>:

#endif /* configUSE_APPLICATION_TASK_TAG */
/*-----------------------------------------------------------*/

void vTaskSwitchContext( void )
{
 8005ef0:	b480      	push	{r7}
 8005ef2:	b087      	sub	sp, #28
 8005ef4:	af00      	add	r7, sp, #0
	if( uxSchedulerSuspended != ( UBaseType_t ) pdFALSE )
 8005ef6:	4b2a      	ldr	r3, [pc, #168]	@ (8005fa0 <vTaskSwitchContext+0xb0>)
 8005ef8:	681b      	ldr	r3, [r3, #0]
 8005efa:	2b00      	cmp	r3, #0
 8005efc:	d003      	beq.n	8005f06 <vTaskSwitchContext+0x16>
	{
		/* The scheduler is currently suspended - do not allow a context
		switch. */
		xYieldPending = pdTRUE;
 8005efe:	4b29      	ldr	r3, [pc, #164]	@ (8005fa4 <vTaskSwitchContext+0xb4>)
 8005f00:	2201      	movs	r2, #1
 8005f02:	601a      	str	r2, [r3, #0]
			for additional information. */
			_impure_ptr = &( pxCurrentTCB->xNewLib_reent );
		}
		#endif /* configUSE_NEWLIB_REENTRANT */
	}
}
 8005f04:	e045      	b.n	8005f92 <vTaskSwitchContext+0xa2>
		xYieldPending = pdFALSE;
 8005f06:	4b27      	ldr	r3, [pc, #156]	@ (8005fa4 <vTaskSwitchContext+0xb4>)
 8005f08:	2200      	movs	r2, #0
 8005f0a:	601a      	str	r2, [r3, #0]
		taskSELECT_HIGHEST_PRIORITY_TASK(); /*lint !e9079 void * is used as this macro is used with timers and co-routines too.  Alignment is known to be fine as the type of the pointer stored and retrieved is the same. */
 8005f0c:	4b26      	ldr	r3, [pc, #152]	@ (8005fa8 <vTaskSwitchContext+0xb8>)
 8005f0e:	681b      	ldr	r3, [r3, #0]
 8005f10:	60fb      	str	r3, [r7, #12]
		__asm volatile ( "clz %0, %1" : "=r" ( ucReturn ) : "r" ( ulBitmap ) : "memory" );
 8005f12:	68fb      	ldr	r3, [r7, #12]
 8005f14:	fab3 f383 	clz	r3, r3
 8005f18:	72fb      	strb	r3, [r7, #11]
		return ucReturn;
 8005f1a:	7afb      	ldrb	r3, [r7, #11]
 8005f1c:	f1c3 031f 	rsb	r3, r3, #31
 8005f20:	617b      	str	r3, [r7, #20]
 8005f22:	4922      	ldr	r1, [pc, #136]	@ (8005fac <vTaskSwitchContext+0xbc>)
 8005f24:	697a      	ldr	r2, [r7, #20]
 8005f26:	4613      	mov	r3, r2
 8005f28:	009b      	lsls	r3, r3, #2
 8005f2a:	4413      	add	r3, r2
 8005f2c:	009b      	lsls	r3, r3, #2
 8005f2e:	440b      	add	r3, r1
 8005f30:	681b      	ldr	r3, [r3, #0]
 8005f32:	2b00      	cmp	r3, #0
 8005f34:	d10b      	bne.n	8005f4e <vTaskSwitchContext+0x5e>
	__asm volatile
 8005f36:	f04f 0350 	mov.w	r3, #80	@ 0x50
 8005f3a:	f383 8811 	msr	BASEPRI, r3
 8005f3e:	f3bf 8f6f 	isb	sy
 8005f42:	f3bf 8f4f 	dsb	sy
 8005f46:	607b      	str	r3, [r7, #4]
}
 8005f48:	bf00      	nop
 8005f4a:	bf00      	nop
 8005f4c:	e7fd      	b.n	8005f4a <vTaskSwitchContext+0x5a>
 8005f4e:	697a      	ldr	r2, [r7, #20]
 8005f50:	4613      	mov	r3, r2
 8005f52:	009b      	lsls	r3, r3, #2
 8005f54:	4413      	add	r3, r2
 8005f56:	009b      	lsls	r3, r3, #2
 8005f58:	4a14      	ldr	r2, [pc, #80]	@ (8005fac <vTaskSwitchContext+0xbc>)
 8005f5a:	4413      	add	r3, r2
 8005f5c:	613b      	str	r3, [r7, #16]
 8005f5e:	693b      	ldr	r3, [r7, #16]
 8005f60:	685b      	ldr	r3, [r3, #4]
 8005f62:	685a      	ldr	r2, [r3, #4]
 8005f64:	693b      	ldr	r3, [r7, #16]
 8005f66:	605a      	str	r2, [r3, #4]
 8005f68:	693b      	ldr	r3, [r7, #16]
 8005f6a:	685a      	ldr	r2, [r3, #4]
 8005f6c:	693b      	ldr	r3, [r7, #16]
 8005f6e:	3308      	adds	r3, #8
 8005f70:	429a      	cmp	r2, r3
 8005f72:	d104      	bne.n	8005f7e <vTaskSwitchContext+0x8e>
 8005f74:	693b      	ldr	r3, [r7, #16]
 8005f76:	685b      	ldr	r3, [r3, #4]
 8005f78:	685a      	ldr	r2, [r3, #4]
 8005f7a:	693b      	ldr	r3, [r7, #16]
 8005f7c:	605a      	str	r2, [r3, #4]
 8005f7e:	693b      	ldr	r3, [r7, #16]
 8005f80:	685b      	ldr	r3, [r3, #4]
 8005f82:	68db      	ldr	r3, [r3, #12]
 8005f84:	4a0a      	ldr	r2, [pc, #40]	@ (8005fb0 <vTaskSwitchContext+0xc0>)
 8005f86:	6013      	str	r3, [r2, #0]
			_impure_ptr = &( pxCurrentTCB->xNewLib_reent );
 8005f88:	4b09      	ldr	r3, [pc, #36]	@ (8005fb0 <vTaskSwitchContext+0xc0>)
 8005f8a:	681b      	ldr	r3, [r3, #0]
 8005f8c:	334c      	adds	r3, #76	@ 0x4c
 8005f8e:	4a09      	ldr	r2, [pc, #36]	@ (8005fb4 <vTaskSwitchContext+0xc4>)
 8005f90:	6013      	str	r3, [r2, #0]
}
 8005f92:	bf00      	nop
 8005f94:	371c      	adds	r7, #28
 8005f96:	46bd      	mov	sp, r7
 8005f98:	f85d 7b04 	ldr.w	r7, [sp], #4
 8005f9c:	4770      	bx	lr
 8005f9e:	bf00      	nop
 8005fa0:	200022c8 	.word	0x200022c8
 8005fa4:	200022b4 	.word	0x200022b4
 8005fa8:	200022a8 	.word	0x200022a8
 8005fac:	200021a4 	.word	0x200021a4
 8005fb0:	200021a0 	.word	0x200021a0
 8005fb4:	20000024 	.word	0x20000024

08005fb8 <vTaskPlaceOnEventList>:
/*-----------------------------------------------------------*/

void vTaskPlaceOnEventList( List_t * const pxEventList, const TickType_t xTicksToWait )
{
 8005fb8:	b580      	push	{r7, lr}
 8005fba:	b084      	sub	sp, #16
 8005fbc:	af00      	add	r7, sp, #0
 8005fbe:	6078      	str	r0, [r7, #4]
 8005fc0:	6039      	str	r1, [r7, #0]
	configASSERT( pxEventList );
 8005fc2:	687b      	ldr	r3, [r7, #4]
 8005fc4:	2b00      	cmp	r3, #0
 8005fc6:	d10b      	bne.n	8005fe0 <vTaskPlaceOnEventList+0x28>
	__asm volatile
 8005fc8:	f04f 0350 	mov.w	r3, #80	@ 0x50
 8005fcc:	f383 8811 	msr	BASEPRI, r3
 8005fd0:	f3bf 8f6f 	isb	sy
 8005fd4:	f3bf 8f4f 	dsb	sy
 8005fd8:	60fb      	str	r3, [r7, #12]
}
 8005fda:	bf00      	nop
 8005fdc:	bf00      	nop
 8005fde:	e7fd      	b.n	8005fdc <vTaskPlaceOnEventList+0x24>

	/* Place the event list item of the TCB in the appropriate event list.
	This is placed in the list in priority order so the highest priority task
	is the first to be woken by the event.  The queue that contains the event
	list is locked, preventing simultaneous access from interrupts. */
	vListInsert( pxEventList, &( pxCurrentTCB->xEventListItem ) );
 8005fe0:	4b07      	ldr	r3, [pc, #28]	@ (8006000 <vTaskPlaceOnEventList+0x48>)
 8005fe2:	681b      	ldr	r3, [r3, #0]
 8005fe4:	3318      	adds	r3, #24
 8005fe6:	4619      	mov	r1, r3
 8005fe8:	6878      	ldr	r0, [r7, #4]
 8005fea:	f7fe ff10 	bl	8004e0e <vListInsert>

	prvAddCurrentTaskToDelayedList( xTicksToWait, pdTRUE );
 8005fee:	2101      	movs	r1, #1
 8005ff0:	6838      	ldr	r0, [r7, #0]
 8005ff2:	f000 fa53 	bl	800649c <prvAddCurrentTaskToDelayedList>
}
 8005ff6:	bf00      	nop
 8005ff8:	3710      	adds	r7, #16
 8005ffa:	46bd      	mov	sp, r7
 8005ffc:	bd80      	pop	{r7, pc}
 8005ffe:	bf00      	nop
 8006000:	200021a0 	.word	0x200021a0

08006004 <xTaskRemoveFromEventList>:

#endif /* configUSE_TIMERS */
/*-----------------------------------------------------------*/

BaseType_t xTaskRemoveFromEventList( const List_t * const pxEventList )
{
 8006004:	b580      	push	{r7, lr}
 8006006:	b086      	sub	sp, #24
 8006008:	af00      	add	r7, sp, #0
 800600a:	6078      	str	r0, [r7, #4]
	get called - the lock count on the queue will get modified instead.  This
	means exclusive access to the event list is guaranteed here.

	This function assumes that a check has already been made to ensure that
	pxEventList is not empty. */
	pxUnblockedTCB = listGET_OWNER_OF_HEAD_ENTRY( pxEventList ); /*lint !e9079 void * is used as this macro is used with timers and co-routines too.  Alignment is known to be fine as the type of the pointer stored and retrieved is the same. */
 800600c:	687b      	ldr	r3, [r7, #4]
 800600e:	68db      	ldr	r3, [r3, #12]
 8006010:	68db      	ldr	r3, [r3, #12]
 8006012:	613b      	str	r3, [r7, #16]
	configASSERT( pxUnblockedTCB );
 8006014:	693b      	ldr	r3, [r7, #16]
 8006016:	2b00      	cmp	r3, #0
 8006018:	d10b      	bne.n	8006032 <xTaskRemoveFromEventList+0x2e>
	__asm volatile
 800601a:	f04f 0350 	mov.w	r3, #80	@ 0x50
 800601e:	f383 8811 	msr	BASEPRI, r3
 8006022:	f3bf 8f6f 	isb	sy
 8006026:	f3bf 8f4f 	dsb	sy
 800602a:	60fb      	str	r3, [r7, #12]
}
 800602c:	bf00      	nop
 800602e:	bf00      	nop
 8006030:	e7fd      	b.n	800602e <xTaskRemoveFromEventList+0x2a>
	( void ) uxListRemove( &( pxUnblockedTCB->xEventListItem ) );
 8006032:	693b      	ldr	r3, [r7, #16]
 8006034:	3318      	adds	r3, #24
 8006036:	4618      	mov	r0, r3
 8006038:	f7fe ff22 	bl	8004e80 <uxListRemove>

	if( uxSchedulerSuspended == ( UBaseType_t ) pdFALSE )
 800603c:	4b1d      	ldr	r3, [pc, #116]	@ (80060b4 <xTaskRemoveFromEventList+0xb0>)
 800603e:	681b      	ldr	r3, [r3, #0]
 8006040:	2b00      	cmp	r3, #0
 8006042:	d11c      	bne.n	800607e <xTaskRemoveFromEventList+0x7a>
	{
		( void ) uxListRemove( &( pxUnblockedTCB->xStateListItem ) );
 8006044:	693b      	ldr	r3, [r7, #16]
 8006046:	3304      	adds	r3, #4
 8006048:	4618      	mov	r0, r3
 800604a:	f7fe ff19 	bl	8004e80 <uxListRemove>
		prvAddTaskToReadyList( pxUnblockedTCB );
 800604e:	693b      	ldr	r3, [r7, #16]
 8006050:	6adb      	ldr	r3, [r3, #44]	@ 0x2c
 8006052:	2201      	movs	r2, #1
 8006054:	409a      	lsls	r2, r3
 8006056:	4b18      	ldr	r3, [pc, #96]	@ (80060b8 <xTaskRemoveFromEventList+0xb4>)
 8006058:	681b      	ldr	r3, [r3, #0]
 800605a:	4313      	orrs	r3, r2
 800605c:	4a16      	ldr	r2, [pc, #88]	@ (80060b8 <xTaskRemoveFromEventList+0xb4>)
 800605e:	6013      	str	r3, [r2, #0]
 8006060:	693b      	ldr	r3, [r7, #16]
 8006062:	6ada      	ldr	r2, [r3, #44]	@ 0x2c
 8006064:	4613      	mov	r3, r2
 8006066:	009b      	lsls	r3, r3, #2
 8006068:	4413      	add	r3, r2
 800606a:	009b      	lsls	r3, r3, #2
 800606c:	4a13      	ldr	r2, [pc, #76]	@ (80060bc <xTaskRemoveFromEventList+0xb8>)
 800606e:	441a      	add	r2, r3
 8006070:	693b      	ldr	r3, [r7, #16]
 8006072:	3304      	adds	r3, #4
 8006074:	4619      	mov	r1, r3
 8006076:	4610      	mov	r0, r2
 8006078:	f7fe fea5 	bl	8004dc6 <vListInsertEnd>
 800607c:	e005      	b.n	800608a <xTaskRemoveFromEventList+0x86>
	}
	else
	{
		/* The delayed and ready lists cannot be accessed, so hold this task
		pending until the scheduler is resumed. */
		vListInsertEnd( &( xPendingReadyList ), &( pxUnblockedTCB->xEventListItem ) );
 800607e:	693b      	ldr	r3, [r7, #16]
 8006080:	3318      	adds	r3, #24
 8006082:	4619      	mov	r1, r3
 8006084:	480e      	ldr	r0, [pc, #56]	@ (80060c0 <xTaskRemoveFromEventList+0xbc>)
 8006086:	f7fe fe9e 	bl	8004dc6 <vListInsertEnd>
	}

	if( pxUnblockedTCB->uxPriority > pxCurrentTCB->uxPriority )
 800608a:	693b      	ldr	r3, [r7, #16]
 800608c:	6ada      	ldr	r2, [r3, #44]	@ 0x2c
 800608e:	4b0d      	ldr	r3, [pc, #52]	@ (80060c4 <xTaskRemoveFromEventList+0xc0>)
 8006090:	681b      	ldr	r3, [r3, #0]
 8006092:	6adb      	ldr	r3, [r3, #44]	@ 0x2c
 8006094:	429a      	cmp	r2, r3
 8006096:	d905      	bls.n	80060a4 <xTaskRemoveFromEventList+0xa0>
	{
		/* Return true if the task removed from the event list has a higher
		priority than the calling task.  This allows the calling task to know if
		it should force a context switch now. */
		xReturn = pdTRUE;
 8006098:	2301      	movs	r3, #1
 800609a:	617b      	str	r3, [r7, #20]

		/* Mark that a yield is pending in case the user is not using the
		"xHigherPriorityTaskWoken" parameter to an ISR safe FreeRTOS function. */
		xYieldPending = pdTRUE;
 800609c:	4b0a      	ldr	r3, [pc, #40]	@ (80060c8 <xTaskRemoveFromEventList+0xc4>)
 800609e:	2201      	movs	r2, #1
 80060a0:	601a      	str	r2, [r3, #0]
 80060a2:	e001      	b.n	80060a8 <xTaskRemoveFromEventList+0xa4>
	}
	else
	{
		xReturn = pdFALSE;
 80060a4:	2300      	movs	r3, #0
 80060a6:	617b      	str	r3, [r7, #20]
	}

	return xReturn;
 80060a8:	697b      	ldr	r3, [r7, #20]
}
 80060aa:	4618      	mov	r0, r3
 80060ac:	3718      	adds	r7, #24
 80060ae:	46bd      	mov	sp, r7
 80060b0:	bd80      	pop	{r7, pc}
 80060b2:	bf00      	nop
 80060b4:	200022c8 	.word	0x200022c8
 80060b8:	200022a8 	.word	0x200022a8
 80060bc:	200021a4 	.word	0x200021a4
 80060c0:	20002260 	.word	0x20002260
 80060c4:	200021a0 	.word	0x200021a0
 80060c8:	200022b4 	.word	0x200022b4

080060cc <vTaskInternalSetTimeOutState>:
	taskEXIT_CRITICAL();
}
/*-----------------------------------------------------------*/

void vTaskInternalSetTimeOutState( TimeOut_t * const pxTimeOut )
{
 80060cc:	b480      	push	{r7}
 80060ce:	b083      	sub	sp, #12
 80060d0:	af00      	add	r7, sp, #0
 80060d2:	6078      	str	r0, [r7, #4]
	/* For internal use only as it does not use a critical section. */
	pxTimeOut->xOverflowCount = xNumOfOverflows;
 80060d4:	4b06      	ldr	r3, [pc, #24]	@ (80060f0 <vTaskInternalSetTimeOutState+0x24>)
 80060d6:	681a      	ldr	r2, [r3, #0]
 80060d8:	687b      	ldr	r3, [r7, #4]
 80060da:	601a      	str	r2, [r3, #0]
	pxTimeOut->xTimeOnEntering = xTickCount;
 80060dc:	4b05      	ldr	r3, [pc, #20]	@ (80060f4 <vTaskInternalSetTimeOutState+0x28>)
 80060de:	681a      	ldr	r2, [r3, #0]
 80060e0:	687b      	ldr	r3, [r7, #4]
 80060e2:	605a      	str	r2, [r3, #4]
}
 80060e4:	bf00      	nop
 80060e6:	370c      	adds	r7, #12
 80060e8:	46bd      	mov	sp, r7
 80060ea:	f85d 7b04 	ldr.w	r7, [sp], #4
 80060ee:	4770      	bx	lr
 80060f0:	200022b8 	.word	0x200022b8
 80060f4:	200022a4 	.word	0x200022a4

080060f8 <xTaskCheckForTimeOut>:
/*-----------------------------------------------------------*/

BaseType_t xTaskCheckForTimeOut( TimeOut_t * const pxTimeOut, TickType_t * const pxTicksToWait )
{
 80060f8:	b580      	push	{r7, lr}
 80060fa:	b088      	sub	sp, #32
 80060fc:	af00      	add	r7, sp, #0
 80060fe:	6078      	str	r0, [r7, #4]
 8006100:	6039      	str	r1, [r7, #0]
BaseType_t xReturn;

	configASSERT( pxTimeOut );
 8006102:	687b      	ldr	r3, [r7, #4]
 8006104:	2b00      	cmp	r3, #0
 8006106:	d10b      	bne.n	8006120 <xTaskCheckForTimeOut+0x28>
	__asm volatile
 8006108:	f04f 0350 	mov.w	r3, #80	@ 0x50
 800610c:	f383 8811 	msr	BASEPRI, r3
 8006110:	f3bf 8f6f 	isb	sy
 8006114:	f3bf 8f4f 	dsb	sy
 8006118:	613b      	str	r3, [r7, #16]
}
 800611a:	bf00      	nop
 800611c:	bf00      	nop
 800611e:	e7fd      	b.n	800611c <xTaskCheckForTimeOut+0x24>
	configASSERT( pxTicksToWait );
 8006120:	683b      	ldr	r3, [r7, #0]
 8006122:	2b00      	cmp	r3, #0
 8006124:	d10b      	bne.n	800613e <xTaskCheckForTimeOut+0x46>
	__asm volatile
 8006126:	f04f 0350 	mov.w	r3, #80	@ 0x50
 800612a:	f383 8811 	msr	BASEPRI, r3
 800612e:	f3bf 8f6f 	isb	sy
 8006132:	f3bf 8f4f 	dsb	sy
 8006136:	60fb      	str	r3, [r7, #12]
}
 8006138:	bf00      	nop
 800613a:	bf00      	nop
 800613c:	e7fd      	b.n	800613a <xTaskCheckForTimeOut+0x42>

	taskENTER_CRITICAL();
 800613e:	f000 fb43 	bl	80067c8 <vPortEnterCritical>
	{
		/* Minor optimisation.  The tick count cannot change in this block. */
		const TickType_t xConstTickCount = xTickCount;
 8006142:	4b1d      	ldr	r3, [pc, #116]	@ (80061b8 <xTaskCheckForTimeOut+0xc0>)
 8006144:	681b      	ldr	r3, [r3, #0]
 8006146:	61bb      	str	r3, [r7, #24]
		const TickType_t xElapsedTime = xConstTickCount - pxTimeOut->xTimeOnEntering;
 8006148:	687b      	ldr	r3, [r7, #4]
 800614a:	685b      	ldr	r3, [r3, #4]
 800614c:	69ba      	ldr	r2, [r7, #24]
 800614e:	1ad3      	subs	r3, r2, r3
 8006150:	617b      	str	r3, [r7, #20]
			}
			else
		#endif

		#if ( INCLUDE_vTaskSuspend == 1 )
			if( *pxTicksToWait == portMAX_DELAY )
 8006152:	683b      	ldr	r3, [r7, #0]
 8006154:	681b      	ldr	r3, [r3, #0]
 8006156:	f1b3 3fff 	cmp.w	r3, #4294967295
 800615a:	d102      	bne.n	8006162 <xTaskCheckForTimeOut+0x6a>
			{
				/* If INCLUDE_vTaskSuspend is set to 1 and the block time
				specified is the maximum block time then the task should block
				indefinitely, and therefore never time out. */
				xReturn = pdFALSE;
 800615c:	2300      	movs	r3, #0
 800615e:	61fb      	str	r3, [r7, #28]
 8006160:	e023      	b.n	80061aa <xTaskCheckForTimeOut+0xb2>
			}
			else
		#endif

		if( ( xNumOfOverflows != pxTimeOut->xOverflowCount ) && ( xConstTickCount >= pxTimeOut->xTimeOnEntering ) ) /*lint !e525 Indentation preferred as is to make code within pre-processor directives clearer. */
 8006162:	687b      	ldr	r3, [r7, #4]
 8006164:	681a      	ldr	r2, [r3, #0]
 8006166:	4b15      	ldr	r3, [pc, #84]	@ (80061bc <xTaskCheckForTimeOut+0xc4>)
 8006168:	681b      	ldr	r3, [r3, #0]
 800616a:	429a      	cmp	r2, r3
 800616c:	d007      	beq.n	800617e <xTaskCheckForTimeOut+0x86>
 800616e:	687b      	ldr	r3, [r7, #4]
 8006170:	685b      	ldr	r3, [r3, #4]
 8006172:	69ba      	ldr	r2, [r7, #24]
 8006174:	429a      	cmp	r2, r3
 8006176:	d302      	bcc.n	800617e <xTaskCheckForTimeOut+0x86>
			/* The tick count is greater than the time at which
			vTaskSetTimeout() was called, but has also overflowed since
			vTaskSetTimeOut() was called.  It must have wrapped all the way
			around and gone past again. This passed since vTaskSetTimeout()
			was called. */
			xReturn = pdTRUE;
 8006178:	2301      	movs	r3, #1
 800617a:	61fb      	str	r3, [r7, #28]
 800617c:	e015      	b.n	80061aa <xTaskCheckForTimeOut+0xb2>
		}
		else if( xElapsedTime < *pxTicksToWait ) /*lint !e961 Explicit casting is only redundant with some compilers, whereas others require it to prevent integer conversion errors. */
 800617e:	683b      	ldr	r3, [r7, #0]
 8006180:	681b      	ldr	r3, [r3, #0]
 8006182:	697a      	ldr	r2, [r7, #20]
 8006184:	429a      	cmp	r2, r3
 8006186:	d20b      	bcs.n	80061a0 <xTaskCheckForTimeOut+0xa8>
		{
			/* Not a genuine timeout. Adjust parameters for time remaining. */
			*pxTicksToWait -= xElapsedTime;
 8006188:	683b      	ldr	r3, [r7, #0]
 800618a:	681a      	ldr	r2, [r3, #0]
 800618c:	697b      	ldr	r3, [r7, #20]
 800618e:	1ad2      	subs	r2, r2, r3
 8006190:	683b      	ldr	r3, [r7, #0]
 8006192:	601a      	str	r2, [r3, #0]
			vTaskInternalSetTimeOutState( pxTimeOut );
 8006194:	6878      	ldr	r0, [r7, #4]
 8006196:	f7ff ff99 	bl	80060cc <vTaskInternalSetTimeOutState>
			xReturn = pdFALSE;
 800619a:	2300      	movs	r3, #0
 800619c:	61fb      	str	r3, [r7, #28]
 800619e:	e004      	b.n	80061aa <xTaskCheckForTimeOut+0xb2>
		}
		else
		{
			*pxTicksToWait = 0;
 80061a0:	683b      	ldr	r3, [r7, #0]
 80061a2:	2200      	movs	r2, #0
 80061a4:	601a      	str	r2, [r3, #0]
			xReturn = pdTRUE;
 80061a6:	2301      	movs	r3, #1
 80061a8:	61fb      	str	r3, [r7, #28]
		}
	}
	taskEXIT_CRITICAL();
 80061aa:	f000 fb3f 	bl	800682c <vPortExitCritical>

	return xReturn;
 80061ae:	69fb      	ldr	r3, [r7, #28]
}
 80061b0:	4618      	mov	r0, r3
 80061b2:	3720      	adds	r7, #32
 80061b4:	46bd      	mov	sp, r7
 80061b6:	bd80      	pop	{r7, pc}
 80061b8:	200022a4 	.word	0x200022a4
 80061bc:	200022b8 	.word	0x200022b8

080061c0 <vTaskMissedYield>:
/*-----------------------------------------------------------*/

void vTaskMissedYield( void )
{
 80061c0:	b480      	push	{r7}
 80061c2:	af00      	add	r7, sp, #0
	xYieldPending = pdTRUE;
 80061c4:	4b03      	ldr	r3, [pc, #12]	@ (80061d4 <vTaskMissedYield+0x14>)
 80061c6:	2201      	movs	r2, #1
 80061c8:	601a      	str	r2, [r3, #0]
}
 80061ca:	bf00      	nop
 80061cc:	46bd      	mov	sp, r7
 80061ce:	f85d 7b04 	ldr.w	r7, [sp], #4
 80061d2:	4770      	bx	lr
 80061d4:	200022b4 	.word	0x200022b4

080061d8 <prvIdleTask>:
 *
 * void prvIdleTask( void *pvParameters );
 *
 */
static portTASK_FUNCTION( prvIdleTask, pvParameters )
{
 80061d8:	b580      	push	{r7, lr}
 80061da:	b082      	sub	sp, #8
 80061dc:	af00      	add	r7, sp, #0
 80061de:	6078      	str	r0, [r7, #4]

	for( ;; )
	{
		/* See if any tasks have deleted themselves - if so then the idle task
		is responsible for freeing the deleted task's TCB and stack. */
		prvCheckTasksWaitingTermination();
 80061e0:	f000 f852 	bl	8006288 <prvCheckTasksWaitingTermination>

			A critical region is not required here as we are just reading from
			the list, and an occasional incorrect value will not matter.  If
			the ready list at the idle priority contains more than one task
			then a task other than the idle task is ready to execute. */
			if( listCURRENT_LIST_LENGTH( &( pxReadyTasksLists[ tskIDLE_PRIORITY ] ) ) > ( UBaseType_t ) 1 )
 80061e4:	4b06      	ldr	r3, [pc, #24]	@ (8006200 <prvIdleTask+0x28>)
 80061e6:	681b      	ldr	r3, [r3, #0]
 80061e8:	2b01      	cmp	r3, #1
 80061ea:	d9f9      	bls.n	80061e0 <prvIdleTask+0x8>
			{
				taskYIELD();
 80061ec:	4b05      	ldr	r3, [pc, #20]	@ (8006204 <prvIdleTask+0x2c>)
 80061ee:	f04f 5280 	mov.w	r2, #268435456	@ 0x10000000
 80061f2:	601a      	str	r2, [r3, #0]
 80061f4:	f3bf 8f4f 	dsb	sy
 80061f8:	f3bf 8f6f 	isb	sy
		prvCheckTasksWaitingTermination();
 80061fc:	e7f0      	b.n	80061e0 <prvIdleTask+0x8>
 80061fe:	bf00      	nop
 8006200:	200021a4 	.word	0x200021a4
 8006204:	e000ed04 	.word	0xe000ed04

08006208 <prvInitialiseTaskLists>:

#endif /* portUSING_MPU_WRAPPERS */
/*-----------------------------------------------------------*/

static void prvInitialiseTaskLists( void )
{
 8006208:	b580      	push	{r7, lr}
 800620a:	b082      	sub	sp, #8
 800620c:	af00      	add	r7, sp, #0
UBaseType_t uxPriority;

	for( uxPriority = ( UBaseType_t ) 0U; uxPriority < ( UBaseType_t ) configMAX_PRIORITIES; uxPriority++ )
 800620e:	2300      	movs	r3, #0
 8006210:	607b      	str	r3, [r7, #4]
 8006212:	e00c      	b.n	800622e <prvInitialiseTaskLists+0x26>
	{
		vListInitialise( &( pxReadyTasksLists[ uxPriority ] ) );
 8006214:	687a      	ldr	r2, [r7, #4]
 8006216:	4613      	mov	r3, r2
 8006218:	009b      	lsls	r3, r3, #2
 800621a:	4413      	add	r3, r2
 800621c:	009b      	lsls	r3, r3, #2
 800621e:	4a12      	ldr	r2, [pc, #72]	@ (8006268 <prvInitialiseTaskLists+0x60>)
 8006220:	4413      	add	r3, r2
 8006222:	4618      	mov	r0, r3
 8006224:	f7fe fda2 	bl	8004d6c <vListInitialise>
	for( uxPriority = ( UBaseType_t ) 0U; uxPriority < ( UBaseType_t ) configMAX_PRIORITIES; uxPriority++ )
 8006228:	687b      	ldr	r3, [r7, #4]
 800622a:	3301      	adds	r3, #1
 800622c:	607b      	str	r3, [r7, #4]
 800622e:	687b      	ldr	r3, [r7, #4]
 8006230:	2b06      	cmp	r3, #6
 8006232:	d9ef      	bls.n	8006214 <prvInitialiseTaskLists+0xc>
	}

	vListInitialise( &xDelayedTaskList1 );
 8006234:	480d      	ldr	r0, [pc, #52]	@ (800626c <prvInitialiseTaskLists+0x64>)
 8006236:	f7fe fd99 	bl	8004d6c <vListInitialise>
	vListInitialise( &xDelayedTaskList2 );
 800623a:	480d      	ldr	r0, [pc, #52]	@ (8006270 <prvInitialiseTaskLists+0x68>)
 800623c:	f7fe fd96 	bl	8004d6c <vListInitialise>
	vListInitialise( &xPendingReadyList );
 8006240:	480c      	ldr	r0, [pc, #48]	@ (8006274 <prvInitialiseTaskLists+0x6c>)
 8006242:	f7fe fd93 	bl	8004d6c <vListInitialise>

	#if ( INCLUDE_vTaskDelete == 1 )
	{
		vListInitialise( &xTasksWaitingTermination );
 8006246:	480c      	ldr	r0, [pc, #48]	@ (8006278 <prvInitialiseTaskLists+0x70>)
 8006248:	f7fe fd90 	bl	8004d6c <vListInitialise>
	}
	#endif /* INCLUDE_vTaskDelete */

	#if ( INCLUDE_vTaskSuspend == 1 )
	{
		vListInitialise( &xSuspendedTaskList );
 800624c:	480b      	ldr	r0, [pc, #44]	@ (800627c <prvInitialiseTaskLists+0x74>)
 800624e:	f7fe fd8d 	bl	8004d6c <vListInitialise>
	}
	#endif /* INCLUDE_vTaskSuspend */

	/* Start with pxDelayedTaskList using list1 and the pxOverflowDelayedTaskList
	using list2. */
	pxDelayedTaskList = &xDelayedTaskList1;
 8006252:	4b0b      	ldr	r3, [pc, #44]	@ (8006280 <prvInitialiseTaskLists+0x78>)
 8006254:	4a05      	ldr	r2, [pc, #20]	@ (800626c <prvInitialiseTaskLists+0x64>)
 8006256:	601a      	str	r2, [r3, #0]
	pxOverflowDelayedTaskList = &xDelayedTaskList2;
 8006258:	4b0a      	ldr	r3, [pc, #40]	@ (8006284 <prvInitialiseTaskLists+0x7c>)
 800625a:	4a05      	ldr	r2, [pc, #20]	@ (8006270 <prvInitialiseTaskLists+0x68>)
 800625c:	601a      	str	r2, [r3, #0]
}
 800625e:	bf00      	nop
 8006260:	3708      	adds	r7, #8
 8006262:	46bd      	mov	sp, r7
 8006264:	bd80      	pop	{r7, pc}
 8006266:	bf00      	nop
 8006268:	200021a4 	.word	0x200021a4
 800626c:	20002230 	.word	0x20002230
 8006270:	20002244 	.word	0x20002244
 8006274:	20002260 	.word	0x20002260
 8006278:	20002274 	.word	0x20002274
 800627c:	2000228c 	.word	0x2000228c
 8006280:	20002258 	.word	0x20002258
 8006284:	2000225c 	.word	0x2000225c

08006288 <prvCheckTasksWaitingTermination>:
/*-----------------------------------------------------------*/

static void prvCheckTasksWaitingTermination( void )
{
 8006288:	b580      	push	{r7, lr}
 800628a:	b082      	sub	sp, #8
 800628c:	af00      	add	r7, sp, #0
	{
		TCB_t *pxTCB;

		/* uxDeletedTasksWaitingCleanUp is used to prevent taskENTER_CRITICAL()
		being called too often in the idle task. */
		while( uxDeletedTasksWaitingCleanUp > ( UBaseType_t ) 0U )
 800628e:	e019      	b.n	80062c4 <prvCheckTasksWaitingTermination+0x3c>
		{
			taskENTER_CRITICAL();
 8006290:	f000 fa9a 	bl	80067c8 <vPortEnterCritical>
			{
				pxTCB = listGET_OWNER_OF_HEAD_ENTRY( ( &xTasksWaitingTermination ) ); /*lint !e9079 void * is used as this macro is used with timers and co-routines too.  Alignment is known to be fine as the type of the pointer stored and retrieved is the same. */
 8006294:	4b10      	ldr	r3, [pc, #64]	@ (80062d8 <prvCheckTasksWaitingTermination+0x50>)
 8006296:	68db      	ldr	r3, [r3, #12]
 8006298:	68db      	ldr	r3, [r3, #12]
 800629a:	607b      	str	r3, [r7, #4]
				( void ) uxListRemove( &( pxTCB->xStateListItem ) );
 800629c:	687b      	ldr	r3, [r7, #4]
 800629e:	3304      	adds	r3, #4
 80062a0:	4618      	mov	r0, r3
 80062a2:	f7fe fded 	bl	8004e80 <uxListRemove>
				--uxCurrentNumberOfTasks;
 80062a6:	4b0d      	ldr	r3, [pc, #52]	@ (80062dc <prvCheckTasksWaitingTermination+0x54>)
 80062a8:	681b      	ldr	r3, [r3, #0]
 80062aa:	3b01      	subs	r3, #1
 80062ac:	4a0b      	ldr	r2, [pc, #44]	@ (80062dc <prvCheckTasksWaitingTermination+0x54>)
 80062ae:	6013      	str	r3, [r2, #0]
				--uxDeletedTasksWaitingCleanUp;
 80062b0:	4b0b      	ldr	r3, [pc, #44]	@ (80062e0 <prvCheckTasksWaitingTermination+0x58>)
 80062b2:	681b      	ldr	r3, [r3, #0]
 80062b4:	3b01      	subs	r3, #1
 80062b6:	4a0a      	ldr	r2, [pc, #40]	@ (80062e0 <prvCheckTasksWaitingTermination+0x58>)
 80062b8:	6013      	str	r3, [r2, #0]
			}
			taskEXIT_CRITICAL();
 80062ba:	f000 fab7 	bl	800682c <vPortExitCritical>

			prvDeleteTCB( pxTCB );
 80062be:	6878      	ldr	r0, [r7, #4]
 80062c0:	f000 f810 	bl	80062e4 <prvDeleteTCB>
		while( uxDeletedTasksWaitingCleanUp > ( UBaseType_t ) 0U )
 80062c4:	4b06      	ldr	r3, [pc, #24]	@ (80062e0 <prvCheckTasksWaitingTermination+0x58>)
 80062c6:	681b      	ldr	r3, [r3, #0]
 80062c8:	2b00      	cmp	r3, #0
 80062ca:	d1e1      	bne.n	8006290 <prvCheckTasksWaitingTermination+0x8>
		}
	}
	#endif /* INCLUDE_vTaskDelete */
}
 80062cc:	bf00      	nop
 80062ce:	bf00      	nop
 80062d0:	3708      	adds	r7, #8
 80062d2:	46bd      	mov	sp, r7
 80062d4:	bd80      	pop	{r7, pc}
 80062d6:	bf00      	nop
 80062d8:	20002274 	.word	0x20002274
 80062dc:	200022a0 	.word	0x200022a0
 80062e0:	20002288 	.word	0x20002288

080062e4 <prvDeleteTCB>:
/*-----------------------------------------------------------*/

#if ( INCLUDE_vTaskDelete == 1 )

	static void prvDeleteTCB( TCB_t *pxTCB )
	{
 80062e4:	b580      	push	{r7, lr}
 80062e6:	b082      	sub	sp, #8
 80062e8:	af00      	add	r7, sp, #0
 80062ea:	6078      	str	r0, [r7, #4]
		to the task to free any memory allocated at the application level.
		See the third party link http://www.nadler.com/embedded/newlibAndFreeRTOS.html
		for additional information. */
		#if ( configUSE_NEWLIB_REENTRANT == 1 )
		{
			_reclaim_reent( &( pxTCB->xNewLib_reent ) );
 80062ec:	687b      	ldr	r3, [r7, #4]
 80062ee:	334c      	adds	r3, #76	@ 0x4c
 80062f0:	4618      	mov	r0, r3
 80062f2:	f000 fd81 	bl	8006df8 <_reclaim_reent>

		#if( ( configSUPPORT_DYNAMIC_ALLOCATION == 1 ) && ( configSUPPORT_STATIC_ALLOCATION == 0 ) && ( portUSING_MPU_WRAPPERS == 0 ) )
		{
			/* The task can only have been allocated dynamically - free both
			the stack and TCB. */
			vPortFree( pxTCB->pxStack );
 80062f6:	687b      	ldr	r3, [r7, #4]
 80062f8:	6b1b      	ldr	r3, [r3, #48]	@ 0x30
 80062fa:	4618      	mov	r0, r3
 80062fc:	f000 fc54 	bl	8006ba8 <vPortFree>
			vPortFree( pxTCB );
 8006300:	6878      	ldr	r0, [r7, #4]
 8006302:	f000 fc51 	bl	8006ba8 <vPortFree>
				configASSERT( pxTCB->ucStaticallyAllocated == tskSTATICALLY_ALLOCATED_STACK_AND_TCB	);
				mtCOVERAGE_TEST_MARKER();
			}
		}
		#endif /* configSUPPORT_DYNAMIC_ALLOCATION */
	}
 8006306:	bf00      	nop
 8006308:	3708      	adds	r7, #8
 800630a:	46bd      	mov	sp, r7
 800630c:	bd80      	pop	{r7, pc}
	...

08006310 <prvResetNextTaskUnblockTime>:

#endif /* INCLUDE_vTaskDelete */
/*-----------------------------------------------------------*/

static void prvResetNextTaskUnblockTime( void )
{
 8006310:	b480      	push	{r7}
 8006312:	b083      	sub	sp, #12
 8006314:	af00      	add	r7, sp, #0
TCB_t *pxTCB;

	if( listLIST_IS_EMPTY( pxDelayedTaskList ) != pdFALSE )
 8006316:	4b0c      	ldr	r3, [pc, #48]	@ (8006348 <prvResetNextTaskUnblockTime+0x38>)
 8006318:	681b      	ldr	r3, [r3, #0]
 800631a:	681b      	ldr	r3, [r3, #0]
 800631c:	2b00      	cmp	r3, #0
 800631e:	d104      	bne.n	800632a <prvResetNextTaskUnblockTime+0x1a>
	{
		/* The new current delayed list is empty.  Set xNextTaskUnblockTime to
		the maximum possible value so it is	extremely unlikely that the
		if( xTickCount >= xNextTaskUnblockTime ) test will pass until
		there is an item in the delayed list. */
		xNextTaskUnblockTime = portMAX_DELAY;
 8006320:	4b0a      	ldr	r3, [pc, #40]	@ (800634c <prvResetNextTaskUnblockTime+0x3c>)
 8006322:	f04f 32ff 	mov.w	r2, #4294967295
 8006326:	601a      	str	r2, [r3, #0]
		which the task at the head of the delayed list should be removed
		from the Blocked state. */
		( pxTCB ) = listGET_OWNER_OF_HEAD_ENTRY( pxDelayedTaskList ); /*lint !e9079 void * is used as this macro is used with timers and co-routines too.  Alignment is known to be fine as the type of the pointer stored and retrieved is the same. */
		xNextTaskUnblockTime = listGET_LIST_ITEM_VALUE( &( ( pxTCB )->xStateListItem ) );
	}
}
 8006328:	e008      	b.n	800633c <prvResetNextTaskUnblockTime+0x2c>
		( pxTCB ) = listGET_OWNER_OF_HEAD_ENTRY( pxDelayedTaskList ); /*lint !e9079 void * is used as this macro is used with timers and co-routines too.  Alignment is known to be fine as the type of the pointer stored and retrieved is the same. */
 800632a:	4b07      	ldr	r3, [pc, #28]	@ (8006348 <prvResetNextTaskUnblockTime+0x38>)
 800632c:	681b      	ldr	r3, [r3, #0]
 800632e:	68db      	ldr	r3, [r3, #12]
 8006330:	68db      	ldr	r3, [r3, #12]
 8006332:	607b      	str	r3, [r7, #4]
		xNextTaskUnblockTime = listGET_LIST_ITEM_VALUE( &( ( pxTCB )->xStateListItem ) );
 8006334:	687b      	ldr	r3, [r7, #4]
 8006336:	685b      	ldr	r3, [r3, #4]
 8006338:	4a04      	ldr	r2, [pc, #16]	@ (800634c <prvResetNextTaskUnblockTime+0x3c>)
 800633a:	6013      	str	r3, [r2, #0]
}
 800633c:	bf00      	nop
 800633e:	370c      	adds	r7, #12
 8006340:	46bd      	mov	sp, r7
 8006342:	f85d 7b04 	ldr.w	r7, [sp], #4
 8006346:	4770      	bx	lr
 8006348:	20002258 	.word	0x20002258
 800634c:	200022c0 	.word	0x200022c0

08006350 <xTaskGetSchedulerState>:
/*-----------------------------------------------------------*/

#if ( ( INCLUDE_xTaskGetSchedulerState == 1 ) || ( configUSE_TIMERS == 1 ) )

	BaseType_t xTaskGetSchedulerState( void )
	{
 8006350:	b480      	push	{r7}
 8006352:	b083      	sub	sp, #12
 8006354:	af00      	add	r7, sp, #0
	BaseType_t xReturn;

		if( xSchedulerRunning == pdFALSE )
 8006356:	4b0b      	ldr	r3, [pc, #44]	@ (8006384 <xTaskGetSchedulerState+0x34>)
 8006358:	681b      	ldr	r3, [r3, #0]
 800635a:	2b00      	cmp	r3, #0
 800635c:	d102      	bne.n	8006364 <xTaskGetSchedulerState+0x14>
		{
			xReturn = taskSCHEDULER_NOT_STARTED;
 800635e:	2301      	movs	r3, #1
 8006360:	607b      	str	r3, [r7, #4]
 8006362:	e008      	b.n	8006376 <xTaskGetSchedulerState+0x26>
		}
		else
		{
			if( uxSchedulerSuspended == ( UBaseType_t ) pdFALSE )
 8006364:	4b08      	ldr	r3, [pc, #32]	@ (8006388 <xTaskGetSchedulerState+0x38>)
 8006366:	681b      	ldr	r3, [r3, #0]
 8006368:	2b00      	cmp	r3, #0
 800636a:	d102      	bne.n	8006372 <xTaskGetSchedulerState+0x22>
			{
				xReturn = taskSCHEDULER_RUNNING;
 800636c:	2302      	movs	r3, #2
 800636e:	607b      	str	r3, [r7, #4]
 8006370:	e001      	b.n	8006376 <xTaskGetSchedulerState+0x26>
			}
			else
			{
				xReturn = taskSCHEDULER_SUSPENDED;
 8006372:	2300      	movs	r3, #0
 8006374:	607b      	str	r3, [r7, #4]
			}
		}

		return xReturn;
 8006376:	687b      	ldr	r3, [r7, #4]
	}
 8006378:	4618      	mov	r0, r3
 800637a:	370c      	adds	r7, #12
 800637c:	46bd      	mov	sp, r7
 800637e:	f85d 7b04 	ldr.w	r7, [sp], #4
 8006382:	4770      	bx	lr
 8006384:	200022ac 	.word	0x200022ac
 8006388:	200022c8 	.word	0x200022c8

0800638c <xTaskPriorityDisinherit>:
/*-----------------------------------------------------------*/

#if ( configUSE_MUTEXES == 1 )

	BaseType_t xTaskPriorityDisinherit( TaskHandle_t const pxMutexHolder )
	{
 800638c:	b580      	push	{r7, lr}
 800638e:	b086      	sub	sp, #24
 8006390:	af00      	add	r7, sp, #0
 8006392:	6078      	str	r0, [r7, #4]
	TCB_t * const pxTCB = pxMutexHolder;
 8006394:	687b      	ldr	r3, [r7, #4]
 8006396:	613b      	str	r3, [r7, #16]
	BaseType_t xReturn = pdFALSE;
 8006398:	2300      	movs	r3, #0
 800639a:	617b      	str	r3, [r7, #20]

		if( pxMutexHolder != NULL )
 800639c:	687b      	ldr	r3, [r7, #4]
 800639e:	2b00      	cmp	r3, #0
 80063a0:	d070      	beq.n	8006484 <xTaskPriorityDisinherit+0xf8>
		{
			/* A task can only have an inherited priority if it holds the mutex.
			If the mutex is held by a task then it cannot be given from an
			interrupt, and if a mutex is given by the holding task then it must
			be the running state task. */
			configASSERT( pxTCB == pxCurrentTCB );
 80063a2:	4b3b      	ldr	r3, [pc, #236]	@ (8006490 <xTaskPriorityDisinherit+0x104>)
 80063a4:	681b      	ldr	r3, [r3, #0]
 80063a6:	693a      	ldr	r2, [r7, #16]
 80063a8:	429a      	cmp	r2, r3
 80063aa:	d00b      	beq.n	80063c4 <xTaskPriorityDisinherit+0x38>
	__asm volatile
 80063ac:	f04f 0350 	mov.w	r3, #80	@ 0x50
 80063b0:	f383 8811 	msr	BASEPRI, r3
 80063b4:	f3bf 8f6f 	isb	sy
 80063b8:	f3bf 8f4f 	dsb	sy
 80063bc:	60fb      	str	r3, [r7, #12]
}
 80063be:	bf00      	nop
 80063c0:	bf00      	nop
 80063c2:	e7fd      	b.n	80063c0 <xTaskPriorityDisinherit+0x34>
			configASSERT( pxTCB->uxMutexesHeld );
 80063c4:	693b      	ldr	r3, [r7, #16]
 80063c6:	6c9b      	ldr	r3, [r3, #72]	@ 0x48
 80063c8:	2b00      	cmp	r3, #0
 80063ca:	d10b      	bne.n	80063e4 <xTaskPriorityDisinherit+0x58>
	__asm volatile
 80063cc:	f04f 0350 	mov.w	r3, #80	@ 0x50
 80063d0:	f383 8811 	msr	BASEPRI, r3
 80063d4:	f3bf 8f6f 	isb	sy
 80063d8:	f3bf 8f4f 	dsb	sy
 80063dc:	60bb      	str	r3, [r7, #8]
}
 80063de:	bf00      	nop
 80063e0:	bf00      	nop
 80063e2:	e7fd      	b.n	80063e0 <xTaskPriorityDisinherit+0x54>
			( pxTCB->uxMutexesHeld )--;
 80063e4:	693b      	ldr	r3, [r7, #16]
 80063e6:	6c9b      	ldr	r3, [r3, #72]	@ 0x48
 80063e8:	1e5a      	subs	r2, r3, #1
 80063ea:	693b      	ldr	r3, [r7, #16]
 80063ec:	649a      	str	r2, [r3, #72]	@ 0x48

			/* Has the holder of the mutex inherited the priority of another
			task? */
			if( pxTCB->uxPriority != pxTCB->uxBasePriority )
 80063ee:	693b      	ldr	r3, [r7, #16]
 80063f0:	6ada      	ldr	r2, [r3, #44]	@ 0x2c
 80063f2:	693b      	ldr	r3, [r7, #16]
 80063f4:	6c5b      	ldr	r3, [r3, #68]	@ 0x44
 80063f6:	429a      	cmp	r2, r3
 80063f8:	d044      	beq.n	8006484 <xTaskPriorityDisinherit+0xf8>
			{
				/* Only disinherit if no other mutexes are held. */
				if( pxTCB->uxMutexesHeld == ( UBaseType_t ) 0 )
 80063fa:	693b      	ldr	r3, [r7, #16]
 80063fc:	6c9b      	ldr	r3, [r3, #72]	@ 0x48
 80063fe:	2b00      	cmp	r3, #0
 8006400:	d140      	bne.n	8006484 <xTaskPriorityDisinherit+0xf8>
					/* A task can only have an inherited priority if it holds
					the mutex.  If the mutex is held by a task then it cannot be
					given from an interrupt, and if a mutex is given by the
					holding task then it must be the running state task.  Remove
					the holding task from the ready/delayed list. */
					if( uxListRemove( &( pxTCB->xStateListItem ) ) == ( UBaseType_t ) 0 )
 8006402:	693b      	ldr	r3, [r7, #16]
 8006404:	3304      	adds	r3, #4
 8006406:	4618      	mov	r0, r3
 8006408:	f7fe fd3a 	bl	8004e80 <uxListRemove>
 800640c:	4603      	mov	r3, r0
 800640e:	2b00      	cmp	r3, #0
 8006410:	d115      	bne.n	800643e <xTaskPriorityDisinherit+0xb2>
					{
						taskRESET_READY_PRIORITY( pxTCB->uxPriority );
 8006412:	693b      	ldr	r3, [r7, #16]
 8006414:	6ada      	ldr	r2, [r3, #44]	@ 0x2c
 8006416:	491f      	ldr	r1, [pc, #124]	@ (8006494 <xTaskPriorityDisinherit+0x108>)
 8006418:	4613      	mov	r3, r2
 800641a:	009b      	lsls	r3, r3, #2
 800641c:	4413      	add	r3, r2
 800641e:	009b      	lsls	r3, r3, #2
 8006420:	440b      	add	r3, r1
 8006422:	681b      	ldr	r3, [r3, #0]
 8006424:	2b00      	cmp	r3, #0
 8006426:	d10a      	bne.n	800643e <xTaskPriorityDisinherit+0xb2>
 8006428:	693b      	ldr	r3, [r7, #16]
 800642a:	6adb      	ldr	r3, [r3, #44]	@ 0x2c
 800642c:	2201      	movs	r2, #1
 800642e:	fa02 f303 	lsl.w	r3, r2, r3
 8006432:	43da      	mvns	r2, r3
 8006434:	4b18      	ldr	r3, [pc, #96]	@ (8006498 <xTaskPriorityDisinherit+0x10c>)
 8006436:	681b      	ldr	r3, [r3, #0]
 8006438:	4013      	ands	r3, r2
 800643a:	4a17      	ldr	r2, [pc, #92]	@ (8006498 <xTaskPriorityDisinherit+0x10c>)
 800643c:	6013      	str	r3, [r2, #0]
					}

					/* Disinherit the priority before adding the task into the
					new	ready list. */
					traceTASK_PRIORITY_DISINHERIT( pxTCB, pxTCB->uxBasePriority );
					pxTCB->uxPriority = pxTCB->uxBasePriority;
 800643e:	693b      	ldr	r3, [r7, #16]
 8006440:	6c5a      	ldr	r2, [r3, #68]	@ 0x44
 8006442:	693b      	ldr	r3, [r7, #16]
 8006444:	62da      	str	r2, [r3, #44]	@ 0x2c

					/* Reset the event list item value.  It cannot be in use for
					any other purpose if this task is running, and it must be
					running to give back the mutex. */
					listSET_LIST_ITEM_VALUE( &( pxTCB->xEventListItem ), ( TickType_t ) configMAX_PRIORITIES - ( TickType_t ) pxTCB->uxPriority ); /*lint !e961 MISRA exception as the casts are only redundant for some ports. */
 8006446:	693b      	ldr	r3, [r7, #16]
 8006448:	6adb      	ldr	r3, [r3, #44]	@ 0x2c
 800644a:	f1c3 0207 	rsb	r2, r3, #7
 800644e:	693b      	ldr	r3, [r7, #16]
 8006450:	619a      	str	r2, [r3, #24]
					prvAddTaskToReadyList( pxTCB );
 8006452:	693b      	ldr	r3, [r7, #16]
 8006454:	6adb      	ldr	r3, [r3, #44]	@ 0x2c
 8006456:	2201      	movs	r2, #1
 8006458:	409a      	lsls	r2, r3
 800645a:	4b0f      	ldr	r3, [pc, #60]	@ (8006498 <xTaskPriorityDisinherit+0x10c>)
 800645c:	681b      	ldr	r3, [r3, #0]
 800645e:	4313      	orrs	r3, r2
 8006460:	4a0d      	ldr	r2, [pc, #52]	@ (8006498 <xTaskPriorityDisinherit+0x10c>)
 8006462:	6013      	str	r3, [r2, #0]
 8006464:	693b      	ldr	r3, [r7, #16]
 8006466:	6ada      	ldr	r2, [r3, #44]	@ 0x2c
 8006468:	4613      	mov	r3, r2
 800646a:	009b      	lsls	r3, r3, #2
 800646c:	4413      	add	r3, r2
 800646e:	009b      	lsls	r3, r3, #2
 8006470:	4a08      	ldr	r2, [pc, #32]	@ (8006494 <xTaskPriorityDisinherit+0x108>)
 8006472:	441a      	add	r2, r3
 8006474:	693b      	ldr	r3, [r7, #16]
 8006476:	3304      	adds	r3, #4
 8006478:	4619      	mov	r1, r3
 800647a:	4610      	mov	r0, r2
 800647c:	f7fe fca3 	bl	8004dc6 <vListInsertEnd>
					in an order different to that in which they were taken.
					If a context switch did not occur when the first mutex was
					returned, even if a task was waiting on it, then a context
					switch should occur when the last mutex is returned whether
					a task is waiting on it or not. */
					xReturn = pdTRUE;
 8006480:	2301      	movs	r3, #1
 8006482:	617b      	str	r3, [r7, #20]
		else
		{
			mtCOVERAGE_TEST_MARKER();
		}

		return xReturn;
 8006484:	697b      	ldr	r3, [r7, #20]
	}
 8006486:	4618      	mov	r0, r3
 8006488:	3718      	adds	r7, #24
 800648a:	46bd      	mov	sp, r7
 800648c:	bd80      	pop	{r7, pc}
 800648e:	bf00      	nop
 8006490:	200021a0 	.word	0x200021a0
 8006494:	200021a4 	.word	0x200021a4
 8006498:	200022a8 	.word	0x200022a8

0800649c <prvAddCurrentTaskToDelayedList>:

#endif
/*-----------------------------------------------------------*/

static void prvAddCurrentTaskToDelayedList( TickType_t xTicksToWait, const BaseType_t xCanBlockIndefinitely )
{
 800649c:	b580      	push	{r7, lr}
 800649e:	b084      	sub	sp, #16
 80064a0:	af00      	add	r7, sp, #0
 80064a2:	6078      	str	r0, [r7, #4]
 80064a4:	6039      	str	r1, [r7, #0]
TickType_t xTimeToWake;
const TickType_t xConstTickCount = xTickCount;
 80064a6:	4b29      	ldr	r3, [pc, #164]	@ (800654c <prvAddCurrentTaskToDelayedList+0xb0>)
 80064a8:	681b      	ldr	r3, [r3, #0]
 80064aa:	60fb      	str	r3, [r7, #12]
	}
	#endif

	/* Remove the task from the ready list before adding it to the blocked list
	as the same list item is used for both lists. */
	if( uxListRemove( &( pxCurrentTCB->xStateListItem ) ) == ( UBaseType_t ) 0 )
 80064ac:	4b28      	ldr	r3, [pc, #160]	@ (8006550 <prvAddCurrentTaskToDelayedList+0xb4>)
 80064ae:	681b      	ldr	r3, [r3, #0]
 80064b0:	3304      	adds	r3, #4
 80064b2:	4618      	mov	r0, r3
 80064b4:	f7fe fce4 	bl	8004e80 <uxListRemove>
 80064b8:	4603      	mov	r3, r0
 80064ba:	2b00      	cmp	r3, #0
 80064bc:	d10b      	bne.n	80064d6 <prvAddCurrentTaskToDelayedList+0x3a>
	{
		/* The current task must be in a ready list, so there is no need to
		check, and the port reset macro can be called directly. */
		portRESET_READY_PRIORITY( pxCurrentTCB->uxPriority, uxTopReadyPriority ); /*lint !e931 pxCurrentTCB cannot change as it is the calling task.  pxCurrentTCB->uxPriority and uxTopReadyPriority cannot change as called with scheduler suspended or in a critical section. */
 80064be:	4b24      	ldr	r3, [pc, #144]	@ (8006550 <prvAddCurrentTaskToDelayedList+0xb4>)
 80064c0:	681b      	ldr	r3, [r3, #0]
 80064c2:	6adb      	ldr	r3, [r3, #44]	@ 0x2c
 80064c4:	2201      	movs	r2, #1
 80064c6:	fa02 f303 	lsl.w	r3, r2, r3
 80064ca:	43da      	mvns	r2, r3
 80064cc:	4b21      	ldr	r3, [pc, #132]	@ (8006554 <prvAddCurrentTaskToDelayedList+0xb8>)
 80064ce:	681b      	ldr	r3, [r3, #0]
 80064d0:	4013      	ands	r3, r2
 80064d2:	4a20      	ldr	r2, [pc, #128]	@ (8006554 <prvAddCurrentTaskToDelayedList+0xb8>)
 80064d4:	6013      	str	r3, [r2, #0]
		mtCOVERAGE_TEST_MARKER();
	}

	#if ( INCLUDE_vTaskSuspend == 1 )
	{
		if( ( xTicksToWait == portMAX_DELAY ) && ( xCanBlockIndefinitely != pdFALSE ) )
 80064d6:	687b      	ldr	r3, [r7, #4]
 80064d8:	f1b3 3fff 	cmp.w	r3, #4294967295
 80064dc:	d10a      	bne.n	80064f4 <prvAddCurrentTaskToDelayedList+0x58>
 80064de:	683b      	ldr	r3, [r7, #0]
 80064e0:	2b00      	cmp	r3, #0
 80064e2:	d007      	beq.n	80064f4 <prvAddCurrentTaskToDelayedList+0x58>
		{
			/* Add the task to the suspended task list instead of a delayed task
			list to ensure it is not woken by a timing event.  It will block
			indefinitely. */
			vListInsertEnd( &xSuspendedTaskList, &( pxCurrentTCB->xStateListItem ) );
 80064e4:	4b1a      	ldr	r3, [pc, #104]	@ (8006550 <prvAddCurrentTaskToDelayedList+0xb4>)
 80064e6:	681b      	ldr	r3, [r3, #0]
 80064e8:	3304      	adds	r3, #4
 80064ea:	4619      	mov	r1, r3
 80064ec:	481a      	ldr	r0, [pc, #104]	@ (8006558 <prvAddCurrentTaskToDelayedList+0xbc>)
 80064ee:	f7fe fc6a 	bl	8004dc6 <vListInsertEnd>

		/* Avoid compiler warning when INCLUDE_vTaskSuspend is not 1. */
		( void ) xCanBlockIndefinitely;
	}
	#endif /* INCLUDE_vTaskSuspend */
}
 80064f2:	e026      	b.n	8006542 <prvAddCurrentTaskToDelayedList+0xa6>
			xTimeToWake = xConstTickCount + xTicksToWait;
 80064f4:	68fa      	ldr	r2, [r7, #12]
 80064f6:	687b      	ldr	r3, [r7, #4]
 80064f8:	4413      	add	r3, r2
 80064fa:	60bb      	str	r3, [r7, #8]
			listSET_LIST_ITEM_VALUE( &( pxCurrentTCB->xStateListItem ), xTimeToWake );
 80064fc:	4b14      	ldr	r3, [pc, #80]	@ (8006550 <prvAddCurrentTaskToDelayedList+0xb4>)
 80064fe:	681b      	ldr	r3, [r3, #0]
 8006500:	68ba      	ldr	r2, [r7, #8]
 8006502:	605a      	str	r2, [r3, #4]
			if( xTimeToWake < xConstTickCount )
 8006504:	68ba      	ldr	r2, [r7, #8]
 8006506:	68fb      	ldr	r3, [r7, #12]
 8006508:	429a      	cmp	r2, r3
 800650a:	d209      	bcs.n	8006520 <prvAddCurrentTaskToDelayedList+0x84>
				vListInsert( pxOverflowDelayedTaskList, &( pxCurrentTCB->xStateListItem ) );
 800650c:	4b13      	ldr	r3, [pc, #76]	@ (800655c <prvAddCurrentTaskToDelayedList+0xc0>)
 800650e:	681a      	ldr	r2, [r3, #0]
 8006510:	4b0f      	ldr	r3, [pc, #60]	@ (8006550 <prvAddCurrentTaskToDelayedList+0xb4>)
 8006512:	681b      	ldr	r3, [r3, #0]
 8006514:	3304      	adds	r3, #4
 8006516:	4619      	mov	r1, r3
 8006518:	4610      	mov	r0, r2
 800651a:	f7fe fc78 	bl	8004e0e <vListInsert>
}
 800651e:	e010      	b.n	8006542 <prvAddCurrentTaskToDelayedList+0xa6>
				vListInsert( pxDelayedTaskList, &( pxCurrentTCB->xStateListItem ) );
 8006520:	4b0f      	ldr	r3, [pc, #60]	@ (8006560 <prvAddCurrentTaskToDelayedList+0xc4>)
 8006522:	681a      	ldr	r2, [r3, #0]
 8006524:	4b0a      	ldr	r3, [pc, #40]	@ (8006550 <prvAddCurrentTaskToDelayedList+0xb4>)
 8006526:	681b      	ldr	r3, [r3, #0]
 8006528:	3304      	adds	r3, #4
 800652a:	4619      	mov	r1, r3
 800652c:	4610      	mov	r0, r2
 800652e:	f7fe fc6e 	bl	8004e0e <vListInsert>
				if( xTimeToWake < xNextTaskUnblockTime )
 8006532:	4b0c      	ldr	r3, [pc, #48]	@ (8006564 <prvAddCurrentTaskToDelayedList+0xc8>)
 8006534:	681b      	ldr	r3, [r3, #0]
 8006536:	68ba      	ldr	r2, [r7, #8]
 8006538:	429a      	cmp	r2, r3
 800653a:	d202      	bcs.n	8006542 <prvAddCurrentTaskToDelayedList+0xa6>
					xNextTaskUnblockTime = xTimeToWake;
 800653c:	4a09      	ldr	r2, [pc, #36]	@ (8006564 <prvAddCurrentTaskToDelayedList+0xc8>)
 800653e:	68bb      	ldr	r3, [r7, #8]
 8006540:	6013      	str	r3, [r2, #0]
}
 8006542:	bf00      	nop
 8006544:	3710      	adds	r7, #16
 8006546:	46bd      	mov	sp, r7
 8006548:	bd80      	pop	{r7, pc}
 800654a:	bf00      	nop
 800654c:	200022a4 	.word	0x200022a4
 8006550:	200021a0 	.word	0x200021a0
 8006554:	200022a8 	.word	0x200022a8
 8006558:	2000228c 	.word	0x2000228c
 800655c:	2000225c 	.word	0x2000225c
 8006560:	20002258 	.word	0x20002258
 8006564:	200022c0 	.word	0x200022c0

08006568 <pxPortInitialiseStack>:

/*
 * See header file for description.
 */
StackType_t *pxPortInitialiseStack( StackType_t *pxTopOfStack, TaskFunction_t pxCode, void *pvParameters )
{
 8006568:	b480      	push	{r7}
 800656a:	b085      	sub	sp, #20
 800656c:	af00      	add	r7, sp, #0
 800656e:	60f8      	str	r0, [r7, #12]
 8006570:	60b9      	str	r1, [r7, #8]
 8006572:	607a      	str	r2, [r7, #4]
	/* Simulate the stack frame as it would be created by a context switch
	interrupt. */

	/* Offset added to account for the way the MCU uses the stack on entry/exit
	of interrupts, and to ensure alignment. */
	pxTopOfStack--;
 8006574:	68fb      	ldr	r3, [r7, #12]
 8006576:	3b04      	subs	r3, #4
 8006578:	60fb      	str	r3, [r7, #12]

	*pxTopOfStack = portINITIAL_XPSR;	/* xPSR */
 800657a:	68fb      	ldr	r3, [r7, #12]
 800657c:	f04f 7280 	mov.w	r2, #16777216	@ 0x1000000
 8006580:	601a      	str	r2, [r3, #0]
	pxTopOfStack--;
 8006582:	68fb      	ldr	r3, [r7, #12]
 8006584:	3b04      	subs	r3, #4
 8006586:	60fb      	str	r3, [r7, #12]
	*pxTopOfStack = ( ( StackType_t ) pxCode ) & portSTART_ADDRESS_MASK;	/* PC */
 8006588:	68bb      	ldr	r3, [r7, #8]
 800658a:	f023 0201 	bic.w	r2, r3, #1
 800658e:	68fb      	ldr	r3, [r7, #12]
 8006590:	601a      	str	r2, [r3, #0]
	pxTopOfStack--;
 8006592:	68fb      	ldr	r3, [r7, #12]
 8006594:	3b04      	subs	r3, #4
 8006596:	60fb      	str	r3, [r7, #12]
	*pxTopOfStack = ( StackType_t ) portTASK_RETURN_ADDRESS;	/* LR */
 8006598:	4a0c      	ldr	r2, [pc, #48]	@ (80065cc <pxPortInitialiseStack+0x64>)
 800659a:	68fb      	ldr	r3, [r7, #12]
 800659c:	601a      	str	r2, [r3, #0]

	/* Save code space by skipping register initialisation. */
	pxTopOfStack -= 5;	/* R12, R3, R2 and R1. */
 800659e:	68fb      	ldr	r3, [r7, #12]
 80065a0:	3b14      	subs	r3, #20
 80065a2:	60fb      	str	r3, [r7, #12]
	*pxTopOfStack = ( StackType_t ) pvParameters;	/* R0 */
 80065a4:	687a      	ldr	r2, [r7, #4]
 80065a6:	68fb      	ldr	r3, [r7, #12]
 80065a8:	601a      	str	r2, [r3, #0]

	/* A save method is being used that requires each task to maintain its
	own exec return value. */
	pxTopOfStack--;
 80065aa:	68fb      	ldr	r3, [r7, #12]
 80065ac:	3b04      	subs	r3, #4
 80065ae:	60fb      	str	r3, [r7, #12]
	*pxTopOfStack = portINITIAL_EXC_RETURN;
 80065b0:	68fb      	ldr	r3, [r7, #12]
 80065b2:	f06f 0202 	mvn.w	r2, #2
 80065b6:	601a      	str	r2, [r3, #0]

	pxTopOfStack -= 8;	/* R11, R10, R9, R8, R7, R6, R5 and R4. */
 80065b8:	68fb      	ldr	r3, [r7, #12]
 80065ba:	3b20      	subs	r3, #32
 80065bc:	60fb      	str	r3, [r7, #12]

	return pxTopOfStack;
 80065be:	68fb      	ldr	r3, [r7, #12]
}
 80065c0:	4618      	mov	r0, r3
 80065c2:	3714      	adds	r7, #20
 80065c4:	46bd      	mov	sp, r7
 80065c6:	f85d 7b04 	ldr.w	r7, [sp], #4
 80065ca:	4770      	bx	lr
 80065cc:	080065d1 	.word	0x080065d1

080065d0 <prvTaskExitError>:
/*-----------------------------------------------------------*/

static void prvTaskExitError( void )
{
 80065d0:	b480      	push	{r7}
 80065d2:	b085      	sub	sp, #20
 80065d4:	af00      	add	r7, sp, #0
volatile uint32_t ulDummy = 0;
 80065d6:	2300      	movs	r3, #0
 80065d8:	607b      	str	r3, [r7, #4]
	its caller as there is nothing to return to.  If a task wants to exit it
	should instead call vTaskDelete( NULL ).

	Artificially force an assert() to be triggered if configASSERT() is
	defined, then stop here so application writers can catch the error. */
	configASSERT( uxCriticalNesting == ~0UL );
 80065da:	4b13      	ldr	r3, [pc, #76]	@ (8006628 <prvTaskExitError+0x58>)
 80065dc:	681b      	ldr	r3, [r3, #0]
 80065de:	f1b3 3fff 	cmp.w	r3, #4294967295
 80065e2:	d00b      	beq.n	80065fc <prvTaskExitError+0x2c>
	__asm volatile
 80065e4:	f04f 0350 	mov.w	r3, #80	@ 0x50
 80065e8:	f383 8811 	msr	BASEPRI, r3
 80065ec:	f3bf 8f6f 	isb	sy
 80065f0:	f3bf 8f4f 	dsb	sy
 80065f4:	60fb      	str	r3, [r7, #12]
}
 80065f6:	bf00      	nop
 80065f8:	bf00      	nop
 80065fa:	e7fd      	b.n	80065f8 <prvTaskExitError+0x28>
	__asm volatile
 80065fc:	f04f 0350 	mov.w	r3, #80	@ 0x50
 8006600:	f383 8811 	msr	BASEPRI, r3
 8006604:	f3bf 8f6f 	isb	sy
 8006608:	f3bf 8f4f 	dsb	sy
 800660c:	60bb      	str	r3, [r7, #8]
}
 800660e:	bf00      	nop
	portDISABLE_INTERRUPTS();
	while( ulDummy == 0 )
 8006610:	bf00      	nop
 8006612:	687b      	ldr	r3, [r7, #4]
 8006614:	2b00      	cmp	r3, #0
 8006616:	d0fc      	beq.n	8006612 <prvTaskExitError+0x42>
		about code appearing after this function is called - making ulDummy
		volatile makes the compiler think the function could return and
		therefore not output an 'unreachable code' warning for code that appears
		after it. */
	}
}
 8006618:	bf00      	nop
 800661a:	bf00      	nop
 800661c:	3714      	adds	r7, #20
 800661e:	46bd      	mov	sp, r7
 8006620:	f85d 7b04 	ldr.w	r7, [sp], #4
 8006624:	4770      	bx	lr
 8006626:	bf00      	nop
 8006628:	20000020 	.word	0x20000020
 800662c:	00000000 	.word	0x00000000

08006630 <SVC_Handler>:
/*-----------------------------------------------------------*/

void vPortSVCHandler( void )
{
	__asm volatile (
 8006630:	4b07      	ldr	r3, [pc, #28]	@ (8006650 <pxCurrentTCBConst2>)
 8006632:	6819      	ldr	r1, [r3, #0]
 8006634:	6808      	ldr	r0, [r1, #0]
 8006636:	e8b0 4ff0 	ldmia.w	r0!, {r4, r5, r6, r7, r8, r9, sl, fp, lr}
 800663a:	f380 8809 	msr	PSP, r0
 800663e:	f3bf 8f6f 	isb	sy
 8006642:	f04f 0000 	mov.w	r0, #0
 8006646:	f380 8811 	msr	BASEPRI, r0
 800664a:	4770      	bx	lr
 800664c:	f3af 8000 	nop.w

08006650 <pxCurrentTCBConst2>:
 8006650:	200021a0 	.word	0x200021a0
					"	bx r14							\n"
					"									\n"
					"	.align 4						\n"
					"pxCurrentTCBConst2: .word pxCurrentTCB				\n"
				);
}
 8006654:	bf00      	nop
 8006656:	bf00      	nop

08006658 <prvPortStartFirstTask>:
{
	/* Start the first task.  This also clears the bit that indicates the FPU is
	in use in case the FPU was used before the scheduler was started - which
	would otherwise result in the unnecessary leaving of space in the SVC stack
	for lazy saving of FPU registers. */
	__asm volatile(
 8006658:	4808      	ldr	r0, [pc, #32]	@ (800667c <prvPortStartFirstTask+0x24>)
 800665a:	6800      	ldr	r0, [r0, #0]
 800665c:	6800      	ldr	r0, [r0, #0]
 800665e:	f380 8808 	msr	MSP, r0
 8006662:	f04f 0000 	mov.w	r0, #0
 8006666:	f380 8814 	msr	CONTROL, r0
 800666a:	b662      	cpsie	i
 800666c:	b661      	cpsie	f
 800666e:	f3bf 8f4f 	dsb	sy
 8006672:	f3bf 8f6f 	isb	sy
 8006676:	df00      	svc	0
 8006678:	bf00      	nop
					" dsb					\n"
					" isb					\n"
					" svc 0					\n" /* System call to start first task. */
					" nop					\n"
				);
}
 800667a:	bf00      	nop
 800667c:	e000ed08 	.word	0xe000ed08

08006680 <xPortStartScheduler>:

/*
 * See header file for description.
 */
BaseType_t xPortStartScheduler( void )
{
 8006680:	b580      	push	{r7, lr}
 8006682:	b086      	sub	sp, #24
 8006684:	af00      	add	r7, sp, #0
	configASSERT( configMAX_SYSCALL_INTERRUPT_PRIORITY );

	/* This port can be used on all revisions of the Cortex-M7 core other than
	the r0p1 parts.  r0p1 parts should use the port from the
	/source/portable/GCC/ARM_CM7/r0p1 directory. */
	configASSERT( portCPUID != portCORTEX_M7_r0p1_ID );
 8006686:	4b47      	ldr	r3, [pc, #284]	@ (80067a4 <xPortStartScheduler+0x124>)
 8006688:	681b      	ldr	r3, [r3, #0]
 800668a:	4a47      	ldr	r2, [pc, #284]	@ (80067a8 <xPortStartScheduler+0x128>)
 800668c:	4293      	cmp	r3, r2
 800668e:	d10b      	bne.n	80066a8 <xPortStartScheduler+0x28>
	__asm volatile
 8006690:	f04f 0350 	mov.w	r3, #80	@ 0x50
 8006694:	f383 8811 	msr	BASEPRI, r3
 8006698:	f3bf 8f6f 	isb	sy
 800669c:	f3bf 8f4f 	dsb	sy
 80066a0:	60fb      	str	r3, [r7, #12]
}
 80066a2:	bf00      	nop
 80066a4:	bf00      	nop
 80066a6:	e7fd      	b.n	80066a4 <xPortStartScheduler+0x24>
	configASSERT( portCPUID != portCORTEX_M7_r0p0_ID );
 80066a8:	4b3e      	ldr	r3, [pc, #248]	@ (80067a4 <xPortStartScheduler+0x124>)
 80066aa:	681b      	ldr	r3, [r3, #0]
 80066ac:	4a3f      	ldr	r2, [pc, #252]	@ (80067ac <xPortStartScheduler+0x12c>)
 80066ae:	4293      	cmp	r3, r2
 80066b0:	d10b      	bne.n	80066ca <xPortStartScheduler+0x4a>
	__asm volatile
 80066b2:	f04f 0350 	mov.w	r3, #80	@ 0x50
 80066b6:	f383 8811 	msr	BASEPRI, r3
 80066ba:	f3bf 8f6f 	isb	sy
 80066be:	f3bf 8f4f 	dsb	sy
 80066c2:	613b      	str	r3, [r7, #16]
}
 80066c4:	bf00      	nop
 80066c6:	bf00      	nop
 80066c8:	e7fd      	b.n	80066c6 <xPortStartScheduler+0x46>

	#if( configASSERT_DEFINED == 1 )
	{
		volatile uint32_t ulOriginalPriority;
		volatile uint8_t * const pucFirstUserPriorityRegister = ( volatile uint8_t * const ) ( portNVIC_IP_REGISTERS_OFFSET_16 + portFIRST_USER_INTERRUPT_NUMBER );
 80066ca:	4b39      	ldr	r3, [pc, #228]	@ (80067b0 <xPortStartScheduler+0x130>)
 80066cc:	617b      	str	r3, [r7, #20]
		functions can be called.  ISR safe functions are those that end in
		"FromISR".  FreeRTOS maintains separate thread and ISR API functions to
		ensure interrupt entry is as fast and simple as possible.

		Save the interrupt priority value that is about to be clobbered. */
		ulOriginalPriority = *pucFirstUserPriorityRegister;
 80066ce:	697b      	ldr	r3, [r7, #20]
 80066d0:	781b      	ldrb	r3, [r3, #0]
 80066d2:	b2db      	uxtb	r3, r3
 80066d4:	607b      	str	r3, [r7, #4]

		/* Determine the number of priority bits available.  First write to all
		possible bits. */
		*pucFirstUserPriorityRegister = portMAX_8_BIT_VALUE;
 80066d6:	697b      	ldr	r3, [r7, #20]
 80066d8:	22ff      	movs	r2, #255	@ 0xff
 80066da:	701a      	strb	r2, [r3, #0]

		/* Read the value back to see how many bits stuck. */
		ucMaxPriorityValue = *pucFirstUserPriorityRegister;
 80066dc:	697b      	ldr	r3, [r7, #20]
 80066de:	781b      	ldrb	r3, [r3, #0]
 80066e0:	b2db      	uxtb	r3, r3
 80066e2:	70fb      	strb	r3, [r7, #3]

		/* Use the same mask on the maximum system call priority. */
		ucMaxSysCallPriority = configMAX_SYSCALL_INTERRUPT_PRIORITY & ucMaxPriorityValue;
 80066e4:	78fb      	ldrb	r3, [r7, #3]
 80066e6:	b2db      	uxtb	r3, r3
 80066e8:	f003 0350 	and.w	r3, r3, #80	@ 0x50
 80066ec:	b2da      	uxtb	r2, r3
 80066ee:	4b31      	ldr	r3, [pc, #196]	@ (80067b4 <xPortStartScheduler+0x134>)
 80066f0:	701a      	strb	r2, [r3, #0]

		/* Calculate the maximum acceptable priority group value for the number
		of bits read back. */
		ulMaxPRIGROUPValue = portMAX_PRIGROUP_BITS;
 80066f2:	4b31      	ldr	r3, [pc, #196]	@ (80067b8 <xPortStartScheduler+0x138>)
 80066f4:	2207      	movs	r2, #7
 80066f6:	601a      	str	r2, [r3, #0]
		while( ( ucMaxPriorityValue & portTOP_BIT_OF_BYTE ) == portTOP_BIT_OF_BYTE )
 80066f8:	e009      	b.n	800670e <xPortStartScheduler+0x8e>
		{
			ulMaxPRIGROUPValue--;
 80066fa:	4b2f      	ldr	r3, [pc, #188]	@ (80067b8 <xPortStartScheduler+0x138>)
 80066fc:	681b      	ldr	r3, [r3, #0]
 80066fe:	3b01      	subs	r3, #1
 8006700:	4a2d      	ldr	r2, [pc, #180]	@ (80067b8 <xPortStartScheduler+0x138>)
 8006702:	6013      	str	r3, [r2, #0]
			ucMaxPriorityValue <<= ( uint8_t ) 0x01;
 8006704:	78fb      	ldrb	r3, [r7, #3]
 8006706:	b2db      	uxtb	r3, r3
 8006708:	005b      	lsls	r3, r3, #1
 800670a:	b2db      	uxtb	r3, r3
 800670c:	70fb      	strb	r3, [r7, #3]
		while( ( ucMaxPriorityValue & portTOP_BIT_OF_BYTE ) == portTOP_BIT_OF_BYTE )
 800670e:	78fb      	ldrb	r3, [r7, #3]
 8006710:	b2db      	uxtb	r3, r3
 8006712:	f003 0380 	and.w	r3, r3, #128	@ 0x80
 8006716:	2b80      	cmp	r3, #128	@ 0x80
 8006718:	d0ef      	beq.n	80066fa <xPortStartScheduler+0x7a>
		#ifdef configPRIO_BITS
		{
			/* Check the FreeRTOS configuration that defines the number of
			priority bits matches the number of priority bits actually queried
			from the hardware. */
			configASSERT( ( portMAX_PRIGROUP_BITS - ulMaxPRIGROUPValue ) == configPRIO_BITS );
 800671a:	4b27      	ldr	r3, [pc, #156]	@ (80067b8 <xPortStartScheduler+0x138>)
 800671c:	681b      	ldr	r3, [r3, #0]
 800671e:	f1c3 0307 	rsb	r3, r3, #7
 8006722:	2b04      	cmp	r3, #4
 8006724:	d00b      	beq.n	800673e <xPortStartScheduler+0xbe>
	__asm volatile
 8006726:	f04f 0350 	mov.w	r3, #80	@ 0x50
 800672a:	f383 8811 	msr	BASEPRI, r3
 800672e:	f3bf 8f6f 	isb	sy
 8006732:	f3bf 8f4f 	dsb	sy
 8006736:	60bb      	str	r3, [r7, #8]
}
 8006738:	bf00      	nop
 800673a:	bf00      	nop
 800673c:	e7fd      	b.n	800673a <xPortStartScheduler+0xba>
		}
		#endif

		/* Shift the priority group value back to its position within the AIRCR
		register. */
		ulMaxPRIGROUPValue <<= portPRIGROUP_SHIFT;
 800673e:	4b1e      	ldr	r3, [pc, #120]	@ (80067b8 <xPortStartScheduler+0x138>)
 8006740:	681b      	ldr	r3, [r3, #0]
 8006742:	021b      	lsls	r3, r3, #8
 8006744:	4a1c      	ldr	r2, [pc, #112]	@ (80067b8 <xPortStartScheduler+0x138>)
 8006746:	6013      	str	r3, [r2, #0]
		ulMaxPRIGROUPValue &= portPRIORITY_GROUP_MASK;
 8006748:	4b1b      	ldr	r3, [pc, #108]	@ (80067b8 <xPortStartScheduler+0x138>)
 800674a:	681b      	ldr	r3, [r3, #0]
 800674c:	f403 63e0 	and.w	r3, r3, #1792	@ 0x700
 8006750:	4a19      	ldr	r2, [pc, #100]	@ (80067b8 <xPortStartScheduler+0x138>)
 8006752:	6013      	str	r3, [r2, #0]

		/* Restore the clobbered interrupt priority register to its original
		value. */
		*pucFirstUserPriorityRegister = ulOriginalPriority;
 8006754:	687b      	ldr	r3, [r7, #4]
 8006756:	b2da      	uxtb	r2, r3
 8006758:	697b      	ldr	r3, [r7, #20]
 800675a:	701a      	strb	r2, [r3, #0]
	}
	#endif /* conifgASSERT_DEFINED */

	/* Make PendSV and SysTick the lowest priority interrupts. */
	portNVIC_SYSPRI2_REG |= portNVIC_PENDSV_PRI;
 800675c:	4b17      	ldr	r3, [pc, #92]	@ (80067bc <xPortStartScheduler+0x13c>)
 800675e:	681b      	ldr	r3, [r3, #0]
 8006760:	4a16      	ldr	r2, [pc, #88]	@ (80067bc <xPortStartScheduler+0x13c>)
 8006762:	f443 0370 	orr.w	r3, r3, #15728640	@ 0xf00000
 8006766:	6013      	str	r3, [r2, #0]
	portNVIC_SYSPRI2_REG |= portNVIC_SYSTICK_PRI;
 8006768:	4b14      	ldr	r3, [pc, #80]	@ (80067bc <xPortStartScheduler+0x13c>)
 800676a:	681b      	ldr	r3, [r3, #0]
 800676c:	4a13      	ldr	r2, [pc, #76]	@ (80067bc <xPortStartScheduler+0x13c>)
 800676e:	f043 4370 	orr.w	r3, r3, #4026531840	@ 0xf0000000
 8006772:	6013      	str	r3, [r2, #0]

	/* Start the timer that generates the tick ISR.  Interrupts are disabled
	here already. */
	vPortSetupTimerInterrupt();
 8006774:	f000 f8da 	bl	800692c <vPortSetupTimerInterrupt>

	/* Initialise the critical nesting count ready for the first task. */
	uxCriticalNesting = 0;
 8006778:	4b11      	ldr	r3, [pc, #68]	@ (80067c0 <xPortStartScheduler+0x140>)
 800677a:	2200      	movs	r2, #0
 800677c:	601a      	str	r2, [r3, #0]

	/* Ensure the VFP is enabled - it should be anyway. */
	vPortEnableVFP();
 800677e:	f000 f8f9 	bl	8006974 <vPortEnableVFP>

	/* Lazy save always. */
	*( portFPCCR ) |= portASPEN_AND_LSPEN_BITS;
 8006782:	4b10      	ldr	r3, [pc, #64]	@ (80067c4 <xPortStartScheduler+0x144>)
 8006784:	681b      	ldr	r3, [r3, #0]
 8006786:	4a0f      	ldr	r2, [pc, #60]	@ (80067c4 <xPortStartScheduler+0x144>)
 8006788:	f043 4340 	orr.w	r3, r3, #3221225472	@ 0xc0000000
 800678c:	6013      	str	r3, [r2, #0]

	/* Start the first task. */
	prvPortStartFirstTask();
 800678e:	f7ff ff63 	bl	8006658 <prvPortStartFirstTask>
	exit error function to prevent compiler warnings about a static function
	not being called in the case that the application writer overrides this
	functionality by defining configTASK_RETURN_ADDRESS.  Call
	vTaskSwitchContext() so link time optimisation does not remove the
	symbol. */
	vTaskSwitchContext();
 8006792:	f7ff fbad 	bl	8005ef0 <vTaskSwitchContext>
	prvTaskExitError();
 8006796:	f7ff ff1b 	bl	80065d0 <prvTaskExitError>

	/* Should not get here! */
	return 0;
 800679a:	2300      	movs	r3, #0
}
 800679c:	4618      	mov	r0, r3
 800679e:	3718      	adds	r7, #24
 80067a0:	46bd      	mov	sp, r7
 80067a2:	bd80      	pop	{r7, pc}
 80067a4:	e000ed00 	.word	0xe000ed00
 80067a8:	410fc271 	.word	0x410fc271
 80067ac:	410fc270 	.word	0x410fc270
 80067b0:	e000e400 	.word	0xe000e400
 80067b4:	200022cc 	.word	0x200022cc
 80067b8:	200022d0 	.word	0x200022d0
 80067bc:	e000ed20 	.word	0xe000ed20
 80067c0:	20000020 	.word	0x20000020
 80067c4:	e000ef34 	.word	0xe000ef34

080067c8 <vPortEnterCritical>:
	configASSERT( uxCriticalNesting == 1000UL );
}
/*-----------------------------------------------------------*/

void vPortEnterCritical( void )
{
 80067c8:	b480      	push	{r7}
 80067ca:	b083      	sub	sp, #12
 80067cc:	af00      	add	r7, sp, #0
	__asm volatile
 80067ce:	f04f 0350 	mov.w	r3, #80	@ 0x50
 80067d2:	f383 8811 	msr	BASEPRI, r3
 80067d6:	f3bf 8f6f 	isb	sy
 80067da:	f3bf 8f4f 	dsb	sy
 80067de:	607b      	str	r3, [r7, #4]
}
 80067e0:	bf00      	nop
	portDISABLE_INTERRUPTS();
	uxCriticalNesting++;
 80067e2:	4b10      	ldr	r3, [pc, #64]	@ (8006824 <vPortEnterCritical+0x5c>)
 80067e4:	681b      	ldr	r3, [r3, #0]
 80067e6:	3301      	adds	r3, #1
 80067e8:	4a0e      	ldr	r2, [pc, #56]	@ (8006824 <vPortEnterCritical+0x5c>)
 80067ea:	6013      	str	r3, [r2, #0]
	/* This is not the interrupt safe version of the enter critical function so
	assert() if it is being called from an interrupt context.  Only API
	functions that end in "FromISR" can be used in an interrupt.  Only assert if
	the critical nesting count is 1 to protect against recursive calls if the
	assert function also uses a critical section. */
	if( uxCriticalNesting == 1 )
 80067ec:	4b0d      	ldr	r3, [pc, #52]	@ (8006824 <vPortEnterCritical+0x5c>)
 80067ee:	681b      	ldr	r3, [r3, #0]
 80067f0:	2b01      	cmp	r3, #1
 80067f2:	d110      	bne.n	8006816 <vPortEnterCritical+0x4e>
	{
		configASSERT( ( portNVIC_INT_CTRL_REG & portVECTACTIVE_MASK ) == 0 );
 80067f4:	4b0c      	ldr	r3, [pc, #48]	@ (8006828 <vPortEnterCritical+0x60>)
 80067f6:	681b      	ldr	r3, [r3, #0]
 80067f8:	b2db      	uxtb	r3, r3
 80067fa:	2b00      	cmp	r3, #0
 80067fc:	d00b      	beq.n	8006816 <vPortEnterCritical+0x4e>
	__asm volatile
 80067fe:	f04f 0350 	mov.w	r3, #80	@ 0x50
 8006802:	f383 8811 	msr	BASEPRI, r3
 8006806:	f3bf 8f6f 	isb	sy
 800680a:	f3bf 8f4f 	dsb	sy
 800680e:	603b      	str	r3, [r7, #0]
}
 8006810:	bf00      	nop
 8006812:	bf00      	nop
 8006814:	e7fd      	b.n	8006812 <vPortEnterCritical+0x4a>
	}
}
 8006816:	bf00      	nop
 8006818:	370c      	adds	r7, #12
 800681a:	46bd      	mov	sp, r7
 800681c:	f85d 7b04 	ldr.w	r7, [sp], #4
 8006820:	4770      	bx	lr
 8006822:	bf00      	nop
 8006824:	20000020 	.word	0x20000020
 8006828:	e000ed04 	.word	0xe000ed04

0800682c <vPortExitCritical>:
/*-----------------------------------------------------------*/

void vPortExitCritical( void )
{
 800682c:	b480      	push	{r7}
 800682e:	b083      	sub	sp, #12
 8006830:	af00      	add	r7, sp, #0
	configASSERT( uxCriticalNesting );
 8006832:	4b12      	ldr	r3, [pc, #72]	@ (800687c <vPortExitCritical+0x50>)
 8006834:	681b      	ldr	r3, [r3, #0]
 8006836:	2b00      	cmp	r3, #0
 8006838:	d10b      	bne.n	8006852 <vPortExitCritical+0x26>
	__asm volatile
 800683a:	f04f 0350 	mov.w	r3, #80	@ 0x50
 800683e:	f383 8811 	msr	BASEPRI, r3
 8006842:	f3bf 8f6f 	isb	sy
 8006846:	f3bf 8f4f 	dsb	sy
 800684a:	607b      	str	r3, [r7, #4]
}
 800684c:	bf00      	nop
 800684e:	bf00      	nop
 8006850:	e7fd      	b.n	800684e <vPortExitCritical+0x22>
	uxCriticalNesting--;
 8006852:	4b0a      	ldr	r3, [pc, #40]	@ (800687c <vPortExitCritical+0x50>)
 8006854:	681b      	ldr	r3, [r3, #0]
 8006856:	3b01      	subs	r3, #1
 8006858:	4a08      	ldr	r2, [pc, #32]	@ (800687c <vPortExitCritical+0x50>)
 800685a:	6013      	str	r3, [r2, #0]
	if( uxCriticalNesting == 0 )
 800685c:	4b07      	ldr	r3, [pc, #28]	@ (800687c <vPortExitCritical+0x50>)
 800685e:	681b      	ldr	r3, [r3, #0]
 8006860:	2b00      	cmp	r3, #0
 8006862:	d105      	bne.n	8006870 <vPortExitCritical+0x44>
 8006864:	2300      	movs	r3, #0
 8006866:	603b      	str	r3, [r7, #0]
	__asm volatile
 8006868:	683b      	ldr	r3, [r7, #0]
 800686a:	f383 8811 	msr	BASEPRI, r3
}
 800686e:	bf00      	nop
	{
		portENABLE_INTERRUPTS();
	}
}
 8006870:	bf00      	nop
 8006872:	370c      	adds	r7, #12
 8006874:	46bd      	mov	sp, r7
 8006876:	f85d 7b04 	ldr.w	r7, [sp], #4
 800687a:	4770      	bx	lr
 800687c:	20000020 	.word	0x20000020

08006880 <PendSV_Handler>:

void xPortPendSVHandler( void )
{
	/* This is a naked function. */

	__asm volatile
 8006880:	f3ef 8009 	mrs	r0, PSP
 8006884:	f3bf 8f6f 	isb	sy
 8006888:	4b15      	ldr	r3, [pc, #84]	@ (80068e0 <pxCurrentTCBConst>)
 800688a:	681a      	ldr	r2, [r3, #0]
 800688c:	f01e 0f10 	tst.w	lr, #16
 8006890:	bf08      	it	eq
 8006892:	ed20 8a10 	vstmdbeq	r0!, {s16-s31}
 8006896:	e920 4ff0 	stmdb	r0!, {r4, r5, r6, r7, r8, r9, sl, fp, lr}
 800689a:	6010      	str	r0, [r2, #0]
 800689c:	e92d 0009 	stmdb	sp!, {r0, r3}
 80068a0:	f04f 0050 	mov.w	r0, #80	@ 0x50
 80068a4:	f380 8811 	msr	BASEPRI, r0
 80068a8:	f3bf 8f4f 	dsb	sy
 80068ac:	f3bf 8f6f 	isb	sy
 80068b0:	f7ff fb1e 	bl	8005ef0 <vTaskSwitchContext>
 80068b4:	f04f 0000 	mov.w	r0, #0
 80068b8:	f380 8811 	msr	BASEPRI, r0
 80068bc:	bc09      	pop	{r0, r3}
 80068be:	6819      	ldr	r1, [r3, #0]
 80068c0:	6808      	ldr	r0, [r1, #0]
 80068c2:	e8b0 4ff0 	ldmia.w	r0!, {r4, r5, r6, r7, r8, r9, sl, fp, lr}
 80068c6:	f01e 0f10 	tst.w	lr, #16
 80068ca:	bf08      	it	eq
 80068cc:	ecb0 8a10 	vldmiaeq	r0!, {s16-s31}
 80068d0:	f380 8809 	msr	PSP, r0
 80068d4:	f3bf 8f6f 	isb	sy
 80068d8:	4770      	bx	lr
 80068da:	bf00      	nop
 80068dc:	f3af 8000 	nop.w

080068e0 <pxCurrentTCBConst>:
 80068e0:	200021a0 	.word	0x200021a0
	"										\n"
	"	.align 4							\n"
	"pxCurrentTCBConst: .word pxCurrentTCB	\n"
	::"i"(configMAX_SYSCALL_INTERRUPT_PRIORITY)
	);
}
 80068e4:	bf00      	nop
 80068e6:	bf00      	nop

080068e8 <SysTick_Handler>:
/*-----------------------------------------------------------*/

void xPortSysTickHandler( void )
{
 80068e8:	b580      	push	{r7, lr}
 80068ea:	b082      	sub	sp, #8
 80068ec:	af00      	add	r7, sp, #0
	__asm volatile
 80068ee:	f04f 0350 	mov.w	r3, #80	@ 0x50
 80068f2:	f383 8811 	msr	BASEPRI, r3
 80068f6:	f3bf 8f6f 	isb	sy
 80068fa:	f3bf 8f4f 	dsb	sy
 80068fe:	607b      	str	r3, [r7, #4]
}
 8006900:	bf00      	nop
	save and then restore the interrupt mask value as its value is already
	known. */
	portDISABLE_INTERRUPTS();
	{
		/* Increment the RTOS tick. */
		if( xTaskIncrementTick() != pdFALSE )
 8006902:	f7ff fa3b 	bl	8005d7c <xTaskIncrementTick>
 8006906:	4603      	mov	r3, r0
 8006908:	2b00      	cmp	r3, #0
 800690a:	d003      	beq.n	8006914 <SysTick_Handler+0x2c>
		{
			/* A context switch is required.  Context switching is performed in
			the PendSV interrupt.  Pend the PendSV interrupt. */
			portNVIC_INT_CTRL_REG = portNVIC_PENDSVSET_BIT;
 800690c:	4b06      	ldr	r3, [pc, #24]	@ (8006928 <SysTick_Handler+0x40>)
 800690e:	f04f 5280 	mov.w	r2, #268435456	@ 0x10000000
 8006912:	601a      	str	r2, [r3, #0]
 8006914:	2300      	movs	r3, #0
 8006916:	603b      	str	r3, [r7, #0]
	__asm volatile
 8006918:	683b      	ldr	r3, [r7, #0]
 800691a:	f383 8811 	msr	BASEPRI, r3
}
 800691e:	bf00      	nop
		}
	}
	portENABLE_INTERRUPTS();
}
 8006920:	bf00      	nop
 8006922:	3708      	adds	r7, #8
 8006924:	46bd      	mov	sp, r7
 8006926:	bd80      	pop	{r7, pc}
 8006928:	e000ed04 	.word	0xe000ed04

0800692c <vPortSetupTimerInterrupt>:
/*
 * Setup the systick timer to generate the tick interrupts at the required
 * frequency.
 */
__attribute__(( weak )) void vPortSetupTimerInterrupt( void )
{
 800692c:	b480      	push	{r7}
 800692e:	af00      	add	r7, sp, #0
		ulStoppedTimerCompensation = portMISSED_COUNTS_FACTOR / ( configCPU_CLOCK_HZ / configSYSTICK_CLOCK_HZ );
	}
	#endif /* configUSE_TICKLESS_IDLE */

	/* Stop and clear the SysTick. */
	portNVIC_SYSTICK_CTRL_REG = 0UL;
 8006930:	4b0b      	ldr	r3, [pc, #44]	@ (8006960 <vPortSetupTimerInterrupt+0x34>)
 8006932:	2200      	movs	r2, #0
 8006934:	601a      	str	r2, [r3, #0]
	portNVIC_SYSTICK_CURRENT_VALUE_REG = 0UL;
 8006936:	4b0b      	ldr	r3, [pc, #44]	@ (8006964 <vPortSetupTimerInterrupt+0x38>)
 8006938:	2200      	movs	r2, #0
 800693a:	601a      	str	r2, [r3, #0]

	/* Configure SysTick to interrupt at the requested rate. */
	portNVIC_SYSTICK_LOAD_REG = ( configSYSTICK_CLOCK_HZ / configTICK_RATE_HZ ) - 1UL;
 800693c:	4b0a      	ldr	r3, [pc, #40]	@ (8006968 <vPortSetupTimerInterrupt+0x3c>)
 800693e:	681b      	ldr	r3, [r3, #0]
 8006940:	4a0a      	ldr	r2, [pc, #40]	@ (800696c <vPortSetupTimerInterrupt+0x40>)
 8006942:	fba2 2303 	umull	r2, r3, r2, r3
 8006946:	099b      	lsrs	r3, r3, #6
 8006948:	4a09      	ldr	r2, [pc, #36]	@ (8006970 <vPortSetupTimerInterrupt+0x44>)
 800694a:	3b01      	subs	r3, #1
 800694c:	6013      	str	r3, [r2, #0]
	portNVIC_SYSTICK_CTRL_REG = ( portNVIC_SYSTICK_CLK_BIT | portNVIC_SYSTICK_INT_BIT | portNVIC_SYSTICK_ENABLE_BIT );
 800694e:	4b04      	ldr	r3, [pc, #16]	@ (8006960 <vPortSetupTimerInterrupt+0x34>)
 8006950:	2207      	movs	r2, #7
 8006952:	601a      	str	r2, [r3, #0]
}
 8006954:	bf00      	nop
 8006956:	46bd      	mov	sp, r7
 8006958:	f85d 7b04 	ldr.w	r7, [sp], #4
 800695c:	4770      	bx	lr
 800695e:	bf00      	nop
 8006960:	e000e010 	.word	0xe000e010
 8006964:	e000e018 	.word	0xe000e018
 8006968:	20000000 	.word	0x20000000
 800696c:	10624dd3 	.word	0x10624dd3
 8006970:	e000e014 	.word	0xe000e014

08006974 <vPortEnableVFP>:
/*-----------------------------------------------------------*/

/* This is a naked function. */
static void vPortEnableVFP( void )
{
	__asm volatile
 8006974:	f8df 000c 	ldr.w	r0, [pc, #12]	@ 8006984 <vPortEnableVFP+0x10>
 8006978:	6801      	ldr	r1, [r0, #0]
 800697a:	f441 0170 	orr.w	r1, r1, #15728640	@ 0xf00000
 800697e:	6001      	str	r1, [r0, #0]
 8006980:	4770      	bx	lr
		"								\n"
		"	orr r1, r1, #( 0xf << 20 )	\n" /* Enable CP10 and CP11 coprocessors, then save back. */
		"	str r1, [r0]				\n"
		"	bx r14						"
	);
}
 8006982:	bf00      	nop
 8006984:	e000ed88 	.word	0xe000ed88

08006988 <vPortValidateInterruptPriority>:
/*-----------------------------------------------------------*/

#if( configASSERT_DEFINED == 1 )

	void vPortValidateInterruptPriority( void )
	{
 8006988:	b480      	push	{r7}
 800698a:	b085      	sub	sp, #20
 800698c:	af00      	add	r7, sp, #0
	uint32_t ulCurrentInterrupt;
	uint8_t ucCurrentPriority;

		/* Obtain the number of the currently executing interrupt. */
		__asm volatile( "mrs %0, ipsr" : "=r"( ulCurrentInterrupt ) :: "memory" );
 800698e:	f3ef 8305 	mrs	r3, IPSR
 8006992:	60fb      	str	r3, [r7, #12]

		/* Is the interrupt number a user defined interrupt? */
		if( ulCurrentInterrupt >= portFIRST_USER_INTERRUPT_NUMBER )
 8006994:	68fb      	ldr	r3, [r7, #12]
 8006996:	2b0f      	cmp	r3, #15
 8006998:	d915      	bls.n	80069c6 <vPortValidateInterruptPriority+0x3e>
		{
			/* Look up the interrupt's priority. */
			ucCurrentPriority = pcInterruptPriorityRegisters[ ulCurrentInterrupt ];
 800699a:	4a18      	ldr	r2, [pc, #96]	@ (80069fc <vPortValidateInterruptPriority+0x74>)
 800699c:	68fb      	ldr	r3, [r7, #12]
 800699e:	4413      	add	r3, r2
 80069a0:	781b      	ldrb	r3, [r3, #0]
 80069a2:	72fb      	strb	r3, [r7, #11]
			interrupt entry is as fast and simple as possible.

			The following links provide detailed information:
			http://www.freertos.org/RTOS-Cortex-M3-M4.html
			http://www.freertos.org/FAQHelp.html */
			configASSERT( ucCurrentPriority >= ucMaxSysCallPriority );
 80069a4:	4b16      	ldr	r3, [pc, #88]	@ (8006a00 <vPortValidateInterruptPriority+0x78>)
 80069a6:	781b      	ldrb	r3, [r3, #0]
 80069a8:	7afa      	ldrb	r2, [r7, #11]
 80069aa:	429a      	cmp	r2, r3
 80069ac:	d20b      	bcs.n	80069c6 <vPortValidateInterruptPriority+0x3e>
	__asm volatile
 80069ae:	f04f 0350 	mov.w	r3, #80	@ 0x50
 80069b2:	f383 8811 	msr	BASEPRI, r3
 80069b6:	f3bf 8f6f 	isb	sy
 80069ba:	f3bf 8f4f 	dsb	sy
 80069be:	607b      	str	r3, [r7, #4]
}
 80069c0:	bf00      	nop
 80069c2:	bf00      	nop
 80069c4:	e7fd      	b.n	80069c2 <vPortValidateInterruptPriority+0x3a>
		configuration then the correct setting can be achieved on all Cortex-M
		devices by calling NVIC_SetPriorityGrouping( 0 ); before starting the
		scheduler.  Note however that some vendor specific peripheral libraries
		assume a non-zero priority group setting, in which cases using a value
		of zero will result in unpredictable behaviour. */
		configASSERT( ( portAIRCR_REG & portPRIORITY_GROUP_MASK ) <= ulMaxPRIGROUPValue );
 80069c6:	4b0f      	ldr	r3, [pc, #60]	@ (8006a04 <vPortValidateInterruptPriority+0x7c>)
 80069c8:	681b      	ldr	r3, [r3, #0]
 80069ca:	f403 62e0 	and.w	r2, r3, #1792	@ 0x700
 80069ce:	4b0e      	ldr	r3, [pc, #56]	@ (8006a08 <vPortValidateInterruptPriority+0x80>)
 80069d0:	681b      	ldr	r3, [r3, #0]
 80069d2:	429a      	cmp	r2, r3
 80069d4:	d90b      	bls.n	80069ee <vPortValidateInterruptPriority+0x66>
	__asm volatile
 80069d6:	f04f 0350 	mov.w	r3, #80	@ 0x50
 80069da:	f383 8811 	msr	BASEPRI, r3
 80069de:	f3bf 8f6f 	isb	sy
 80069e2:	f3bf 8f4f 	dsb	sy
 80069e6:	603b      	str	r3, [r7, #0]
}
 80069e8:	bf00      	nop
 80069ea:	bf00      	nop
 80069ec:	e7fd      	b.n	80069ea <vPortValidateInterruptPriority+0x62>
	}
 80069ee:	bf00      	nop
 80069f0:	3714      	adds	r7, #20
 80069f2:	46bd      	mov	sp, r7
 80069f4:	f85d 7b04 	ldr.w	r7, [sp], #4
 80069f8:	4770      	bx	lr
 80069fa:	bf00      	nop
 80069fc:	e000e3f0 	.word	0xe000e3f0
 8006a00:	200022cc 	.word	0x200022cc
 8006a04:	e000ed0c 	.word	0xe000ed0c
 8006a08:	200022d0 	.word	0x200022d0

08006a0c <pvPortMalloc>:
static size_t xBlockAllocatedBit = 0;

/*-----------------------------------------------------------*/

void *pvPortMalloc( size_t xWantedSize )
{
 8006a0c:	b580      	push	{r7, lr}
 8006a0e:	b08a      	sub	sp, #40	@ 0x28
 8006a10:	af00      	add	r7, sp, #0
 8006a12:	6078      	str	r0, [r7, #4]
BlockLink_t *pxBlock, *pxPreviousBlock, *pxNewBlockLink;
void *pvReturn = NULL;
 8006a14:	2300      	movs	r3, #0
 8006a16:	61fb      	str	r3, [r7, #28]

	vTaskSuspendAll();
 8006a18:	f7ff f904 	bl	8005c24 <vTaskSuspendAll>
	{
		/* If this is the first call to malloc then the heap will require
		initialisation to setup the list of free blocks. */
		if( pxEnd == NULL )
 8006a1c:	4b5c      	ldr	r3, [pc, #368]	@ (8006b90 <pvPortMalloc+0x184>)
 8006a1e:	681b      	ldr	r3, [r3, #0]
 8006a20:	2b00      	cmp	r3, #0
 8006a22:	d101      	bne.n	8006a28 <pvPortMalloc+0x1c>
		{
			prvHeapInit();
 8006a24:	f000 f924 	bl	8006c70 <prvHeapInit>

		/* Check the requested block size is not so large that the top bit is
		set.  The top bit of the block size member of the BlockLink_t structure
		is used to determine who owns the block - the application or the
		kernel, so it must be free. */
		if( ( xWantedSize & xBlockAllocatedBit ) == 0 )
 8006a28:	4b5a      	ldr	r3, [pc, #360]	@ (8006b94 <pvPortMalloc+0x188>)
 8006a2a:	681a      	ldr	r2, [r3, #0]
 8006a2c:	687b      	ldr	r3, [r7, #4]
 8006a2e:	4013      	ands	r3, r2
 8006a30:	2b00      	cmp	r3, #0
 8006a32:	f040 8095 	bne.w	8006b60 <pvPortMalloc+0x154>
		{
			/* The wanted size is increased so it can contain a BlockLink_t
			structure in addition to the requested amount of bytes. */
			if( xWantedSize > 0 )
 8006a36:	687b      	ldr	r3, [r7, #4]
 8006a38:	2b00      	cmp	r3, #0
 8006a3a:	d01e      	beq.n	8006a7a <pvPortMalloc+0x6e>
			{
				xWantedSize += xHeapStructSize;
 8006a3c:	2208      	movs	r2, #8
 8006a3e:	687b      	ldr	r3, [r7, #4]
 8006a40:	4413      	add	r3, r2
 8006a42:	607b      	str	r3, [r7, #4]

				/* Ensure that blocks are always aligned to the required number
				of bytes. */
				if( ( xWantedSize & portBYTE_ALIGNMENT_MASK ) != 0x00 )
 8006a44:	687b      	ldr	r3, [r7, #4]
 8006a46:	f003 0307 	and.w	r3, r3, #7
 8006a4a:	2b00      	cmp	r3, #0
 8006a4c:	d015      	beq.n	8006a7a <pvPortMalloc+0x6e>
				{
					/* Byte alignment required. */
					xWantedSize += ( portBYTE_ALIGNMENT - ( xWantedSize & portBYTE_ALIGNMENT_MASK ) );
 8006a4e:	687b      	ldr	r3, [r7, #4]
 8006a50:	f023 0307 	bic.w	r3, r3, #7
 8006a54:	3308      	adds	r3, #8
 8006a56:	607b      	str	r3, [r7, #4]
					configASSERT( ( xWantedSize & portBYTE_ALIGNMENT_MASK ) == 0 );
 8006a58:	687b      	ldr	r3, [r7, #4]
 8006a5a:	f003 0307 	and.w	r3, r3, #7
 8006a5e:	2b00      	cmp	r3, #0
 8006a60:	d00b      	beq.n	8006a7a <pvPortMalloc+0x6e>
	__asm volatile
 8006a62:	f04f 0350 	mov.w	r3, #80	@ 0x50
 8006a66:	f383 8811 	msr	BASEPRI, r3
 8006a6a:	f3bf 8f6f 	isb	sy
 8006a6e:	f3bf 8f4f 	dsb	sy
 8006a72:	617b      	str	r3, [r7, #20]
}
 8006a74:	bf00      	nop
 8006a76:	bf00      	nop
 8006a78:	e7fd      	b.n	8006a76 <pvPortMalloc+0x6a>
			else
			{
				mtCOVERAGE_TEST_MARKER();
			}

			if( ( xWantedSize > 0 ) && ( xWantedSize <= xFreeBytesRemaining ) )
 8006a7a:	687b      	ldr	r3, [r7, #4]
 8006a7c:	2b00      	cmp	r3, #0
 8006a7e:	d06f      	beq.n	8006b60 <pvPortMalloc+0x154>
 8006a80:	4b45      	ldr	r3, [pc, #276]	@ (8006b98 <pvPortMalloc+0x18c>)
 8006a82:	681b      	ldr	r3, [r3, #0]
 8006a84:	687a      	ldr	r2, [r7, #4]
 8006a86:	429a      	cmp	r2, r3
 8006a88:	d86a      	bhi.n	8006b60 <pvPortMalloc+0x154>
			{
				/* Traverse the list from the start	(lowest address) block until
				one	of adequate size is found. */
				pxPreviousBlock = &xStart;
 8006a8a:	4b44      	ldr	r3, [pc, #272]	@ (8006b9c <pvPortMalloc+0x190>)
 8006a8c:	623b      	str	r3, [r7, #32]
				pxBlock = xStart.pxNextFreeBlock;
 8006a8e:	4b43      	ldr	r3, [pc, #268]	@ (8006b9c <pvPortMalloc+0x190>)
 8006a90:	681b      	ldr	r3, [r3, #0]
 8006a92:	627b      	str	r3, [r7, #36]	@ 0x24
				while( ( pxBlock->xBlockSize < xWantedSize ) && ( pxBlock->pxNextFreeBlock != NULL ) )
 8006a94:	e004      	b.n	8006aa0 <pvPortMalloc+0x94>
				{
					pxPreviousBlock = pxBlock;
 8006a96:	6a7b      	ldr	r3, [r7, #36]	@ 0x24
 8006a98:	623b      	str	r3, [r7, #32]
					pxBlock = pxBlock->pxNextFreeBlock;
 8006a9a:	6a7b      	ldr	r3, [r7, #36]	@ 0x24
 8006a9c:	681b      	ldr	r3, [r3, #0]
 8006a9e:	627b      	str	r3, [r7, #36]	@ 0x24
				while( ( pxBlock->xBlockSize < xWantedSize ) && ( pxBlock->pxNextFreeBlock != NULL ) )
 8006aa0:	6a7b      	ldr	r3, [r7, #36]	@ 0x24
 8006aa2:	685b      	ldr	r3, [r3, #4]
 8006aa4:	687a      	ldr	r2, [r7, #4]
 8006aa6:	429a      	cmp	r2, r3
 8006aa8:	d903      	bls.n	8006ab2 <pvPortMalloc+0xa6>
 8006aaa:	6a7b      	ldr	r3, [r7, #36]	@ 0x24
 8006aac:	681b      	ldr	r3, [r3, #0]
 8006aae:	2b00      	cmp	r3, #0
 8006ab0:	d1f1      	bne.n	8006a96 <pvPortMalloc+0x8a>
				}

				/* If the end marker was reached then a block of adequate size
				was	not found. */
				if( pxBlock != pxEnd )
 8006ab2:	4b37      	ldr	r3, [pc, #220]	@ (8006b90 <pvPortMalloc+0x184>)
 8006ab4:	681b      	ldr	r3, [r3, #0]
 8006ab6:	6a7a      	ldr	r2, [r7, #36]	@ 0x24
 8006ab8:	429a      	cmp	r2, r3
 8006aba:	d051      	beq.n	8006b60 <pvPortMalloc+0x154>
				{
					/* Return the memory space pointed to - jumping over the
					BlockLink_t structure at its start. */
					pvReturn = ( void * ) ( ( ( uint8_t * ) pxPreviousBlock->pxNextFreeBlock ) + xHeapStructSize );
 8006abc:	6a3b      	ldr	r3, [r7, #32]
 8006abe:	681b      	ldr	r3, [r3, #0]
 8006ac0:	2208      	movs	r2, #8
 8006ac2:	4413      	add	r3, r2
 8006ac4:	61fb      	str	r3, [r7, #28]

					/* This block is being returned for use so must be taken out
					of the list of free blocks. */
					pxPreviousBlock->pxNextFreeBlock = pxBlock->pxNextFreeBlock;
 8006ac6:	6a7b      	ldr	r3, [r7, #36]	@ 0x24
 8006ac8:	681a      	ldr	r2, [r3, #0]
 8006aca:	6a3b      	ldr	r3, [r7, #32]
 8006acc:	601a      	str	r2, [r3, #0]

					/* If the block is larger than required it can be split into
					two. */
					if( ( pxBlock->xBlockSize - xWantedSize ) > heapMINIMUM_BLOCK_SIZE )
 8006ace:	6a7b      	ldr	r3, [r7, #36]	@ 0x24
 8006ad0:	685a      	ldr	r2, [r3, #4]
 8006ad2:	687b      	ldr	r3, [r7, #4]
 8006ad4:	1ad2      	subs	r2, r2, r3
 8006ad6:	2308      	movs	r3, #8
 8006ad8:	005b      	lsls	r3, r3, #1
 8006ada:	429a      	cmp	r2, r3
 8006adc:	d920      	bls.n	8006b20 <pvPortMalloc+0x114>
					{
						/* This block is to be split into two.  Create a new
						block following the number of bytes requested. The void
						cast is used to prevent byte alignment warnings from the
						compiler. */
						pxNewBlockLink = ( void * ) ( ( ( uint8_t * ) pxBlock ) + xWantedSize );
 8006ade:	6a7a      	ldr	r2, [r7, #36]	@ 0x24
 8006ae0:	687b      	ldr	r3, [r7, #4]
 8006ae2:	4413      	add	r3, r2
 8006ae4:	61bb      	str	r3, [r7, #24]
						configASSERT( ( ( ( size_t ) pxNewBlockLink ) & portBYTE_ALIGNMENT_MASK ) == 0 );
 8006ae6:	69bb      	ldr	r3, [r7, #24]
 8006ae8:	f003 0307 	and.w	r3, r3, #7
 8006aec:	2b00      	cmp	r3, #0
 8006aee:	d00b      	beq.n	8006b08 <pvPortMalloc+0xfc>
	__asm volatile
 8006af0:	f04f 0350 	mov.w	r3, #80	@ 0x50
 8006af4:	f383 8811 	msr	BASEPRI, r3
 8006af8:	f3bf 8f6f 	isb	sy
 8006afc:	f3bf 8f4f 	dsb	sy
 8006b00:	613b      	str	r3, [r7, #16]
}
 8006b02:	bf00      	nop
 8006b04:	bf00      	nop
 8006b06:	e7fd      	b.n	8006b04 <pvPortMalloc+0xf8>

						/* Calculate the sizes of two blocks split from the
						single block. */
						pxNewBlockLink->xBlockSize = pxBlock->xBlockSize - xWantedSize;
 8006b08:	6a7b      	ldr	r3, [r7, #36]	@ 0x24
 8006b0a:	685a      	ldr	r2, [r3, #4]
 8006b0c:	687b      	ldr	r3, [r7, #4]
 8006b0e:	1ad2      	subs	r2, r2, r3
 8006b10:	69bb      	ldr	r3, [r7, #24]
 8006b12:	605a      	str	r2, [r3, #4]
						pxBlock->xBlockSize = xWantedSize;
 8006b14:	6a7b      	ldr	r3, [r7, #36]	@ 0x24
 8006b16:	687a      	ldr	r2, [r7, #4]
 8006b18:	605a      	str	r2, [r3, #4]

						/* Insert the new block into the list of free blocks. */
						prvInsertBlockIntoFreeList( pxNewBlockLink );
 8006b1a:	69b8      	ldr	r0, [r7, #24]
 8006b1c:	f000 f90a 	bl	8006d34 <prvInsertBlockIntoFreeList>
					else
					{
						mtCOVERAGE_TEST_MARKER();
					}

					xFreeBytesRemaining -= pxBlock->xBlockSize;
 8006b20:	4b1d      	ldr	r3, [pc, #116]	@ (8006b98 <pvPortMalloc+0x18c>)
 8006b22:	681a      	ldr	r2, [r3, #0]
 8006b24:	6a7b      	ldr	r3, [r7, #36]	@ 0x24
 8006b26:	685b      	ldr	r3, [r3, #4]
 8006b28:	1ad3      	subs	r3, r2, r3
 8006b2a:	4a1b      	ldr	r2, [pc, #108]	@ (8006b98 <pvPortMalloc+0x18c>)
 8006b2c:	6013      	str	r3, [r2, #0]

					if( xFreeBytesRemaining < xMinimumEverFreeBytesRemaining )
 8006b2e:	4b1a      	ldr	r3, [pc, #104]	@ (8006b98 <pvPortMalloc+0x18c>)
 8006b30:	681a      	ldr	r2, [r3, #0]
 8006b32:	4b1b      	ldr	r3, [pc, #108]	@ (8006ba0 <pvPortMalloc+0x194>)
 8006b34:	681b      	ldr	r3, [r3, #0]
 8006b36:	429a      	cmp	r2, r3
 8006b38:	d203      	bcs.n	8006b42 <pvPortMalloc+0x136>
					{
						xMinimumEverFreeBytesRemaining = xFreeBytesRemaining;
 8006b3a:	4b17      	ldr	r3, [pc, #92]	@ (8006b98 <pvPortMalloc+0x18c>)
 8006b3c:	681b      	ldr	r3, [r3, #0]
 8006b3e:	4a18      	ldr	r2, [pc, #96]	@ (8006ba0 <pvPortMalloc+0x194>)
 8006b40:	6013      	str	r3, [r2, #0]
						mtCOVERAGE_TEST_MARKER();
					}

					/* The block is being returned - it is allocated and owned
					by the application and has no "next" block. */
					pxBlock->xBlockSize |= xBlockAllocatedBit;
 8006b42:	6a7b      	ldr	r3, [r7, #36]	@ 0x24
 8006b44:	685a      	ldr	r2, [r3, #4]
 8006b46:	4b13      	ldr	r3, [pc, #76]	@ (8006b94 <pvPortMalloc+0x188>)
 8006b48:	681b      	ldr	r3, [r3, #0]
 8006b4a:	431a      	orrs	r2, r3
 8006b4c:	6a7b      	ldr	r3, [r7, #36]	@ 0x24
 8006b4e:	605a      	str	r2, [r3, #4]
					pxBlock->pxNextFreeBlock = NULL;
 8006b50:	6a7b      	ldr	r3, [r7, #36]	@ 0x24
 8006b52:	2200      	movs	r2, #0
 8006b54:	601a      	str	r2, [r3, #0]
					xNumberOfSuccessfulAllocations++;
 8006b56:	4b13      	ldr	r3, [pc, #76]	@ (8006ba4 <pvPortMalloc+0x198>)
 8006b58:	681b      	ldr	r3, [r3, #0]
 8006b5a:	3301      	adds	r3, #1
 8006b5c:	4a11      	ldr	r2, [pc, #68]	@ (8006ba4 <pvPortMalloc+0x198>)
 8006b5e:	6013      	str	r3, [r2, #0]
			mtCOVERAGE_TEST_MARKER();
		}

		traceMALLOC( pvReturn, xWantedSize );
	}
	( void ) xTaskResumeAll();
 8006b60:	f7ff f86e 	bl	8005c40 <xTaskResumeAll>
			mtCOVERAGE_TEST_MARKER();
		}
	}
	#endif

	configASSERT( ( ( ( size_t ) pvReturn ) & ( size_t ) portBYTE_ALIGNMENT_MASK ) == 0 );
 8006b64:	69fb      	ldr	r3, [r7, #28]
 8006b66:	f003 0307 	and.w	r3, r3, #7
 8006b6a:	2b00      	cmp	r3, #0
 8006b6c:	d00b      	beq.n	8006b86 <pvPortMalloc+0x17a>
	__asm volatile
 8006b6e:	f04f 0350 	mov.w	r3, #80	@ 0x50
 8006b72:	f383 8811 	msr	BASEPRI, r3
 8006b76:	f3bf 8f6f 	isb	sy
 8006b7a:	f3bf 8f4f 	dsb	sy
 8006b7e:	60fb      	str	r3, [r7, #12]
}
 8006b80:	bf00      	nop
 8006b82:	bf00      	nop
 8006b84:	e7fd      	b.n	8006b82 <pvPortMalloc+0x176>
	return pvReturn;
 8006b86:	69fb      	ldr	r3, [r7, #28]
}
 8006b88:	4618      	mov	r0, r3
 8006b8a:	3728      	adds	r7, #40	@ 0x28
 8006b8c:	46bd      	mov	sp, r7
 8006b8e:	bd80      	pop	{r7, pc}
 8006b90:	200072dc 	.word	0x200072dc
 8006b94:	200072f0 	.word	0x200072f0
 8006b98:	200072e0 	.word	0x200072e0
 8006b9c:	200072d4 	.word	0x200072d4
 8006ba0:	200072e4 	.word	0x200072e4
 8006ba4:	200072e8 	.word	0x200072e8

08006ba8 <vPortFree>:
/*-----------------------------------------------------------*/

void vPortFree( void *pv )
{
 8006ba8:	b580      	push	{r7, lr}
 8006baa:	b086      	sub	sp, #24
 8006bac:	af00      	add	r7, sp, #0
 8006bae:	6078      	str	r0, [r7, #4]
uint8_t *puc = ( uint8_t * ) pv;
 8006bb0:	687b      	ldr	r3, [r7, #4]
 8006bb2:	617b      	str	r3, [r7, #20]
BlockLink_t *pxLink;

	if( pv != NULL )
 8006bb4:	687b      	ldr	r3, [r7, #4]
 8006bb6:	2b00      	cmp	r3, #0
 8006bb8:	d04f      	beq.n	8006c5a <vPortFree+0xb2>
	{
		/* The memory being freed will have an BlockLink_t structure immediately
		before it. */
		puc -= xHeapStructSize;
 8006bba:	2308      	movs	r3, #8
 8006bbc:	425b      	negs	r3, r3
 8006bbe:	697a      	ldr	r2, [r7, #20]
 8006bc0:	4413      	add	r3, r2
 8006bc2:	617b      	str	r3, [r7, #20]

		/* This casting is to keep the compiler from issuing warnings. */
		pxLink = ( void * ) puc;
 8006bc4:	697b      	ldr	r3, [r7, #20]
 8006bc6:	613b      	str	r3, [r7, #16]

		/* Check the block is actually allocated. */
		configASSERT( ( pxLink->xBlockSize & xBlockAllocatedBit ) != 0 );
 8006bc8:	693b      	ldr	r3, [r7, #16]
 8006bca:	685a      	ldr	r2, [r3, #4]
 8006bcc:	4b25      	ldr	r3, [pc, #148]	@ (8006c64 <vPortFree+0xbc>)
 8006bce:	681b      	ldr	r3, [r3, #0]
 8006bd0:	4013      	ands	r3, r2
 8006bd2:	2b00      	cmp	r3, #0
 8006bd4:	d10b      	bne.n	8006bee <vPortFree+0x46>
	__asm volatile
 8006bd6:	f04f 0350 	mov.w	r3, #80	@ 0x50
 8006bda:	f383 8811 	msr	BASEPRI, r3
 8006bde:	f3bf 8f6f 	isb	sy
 8006be2:	f3bf 8f4f 	dsb	sy
 8006be6:	60fb      	str	r3, [r7, #12]
}
 8006be8:	bf00      	nop
 8006bea:	bf00      	nop
 8006bec:	e7fd      	b.n	8006bea <vPortFree+0x42>
		configASSERT( pxLink->pxNextFreeBlock == NULL );
 8006bee:	693b      	ldr	r3, [r7, #16]
 8006bf0:	681b      	ldr	r3, [r3, #0]
 8006bf2:	2b00      	cmp	r3, #0
 8006bf4:	d00b      	beq.n	8006c0e <vPortFree+0x66>
	__asm volatile
 8006bf6:	f04f 0350 	mov.w	r3, #80	@ 0x50
 8006bfa:	f383 8811 	msr	BASEPRI, r3
 8006bfe:	f3bf 8f6f 	isb	sy
 8006c02:	f3bf 8f4f 	dsb	sy
 8006c06:	60bb      	str	r3, [r7, #8]
}
 8006c08:	bf00      	nop
 8006c0a:	bf00      	nop
 8006c0c:	e7fd      	b.n	8006c0a <vPortFree+0x62>

		if( ( pxLink->xBlockSize & xBlockAllocatedBit ) != 0 )
 8006c0e:	693b      	ldr	r3, [r7, #16]
 8006c10:	685a      	ldr	r2, [r3, #4]
 8006c12:	4b14      	ldr	r3, [pc, #80]	@ (8006c64 <vPortFree+0xbc>)
 8006c14:	681b      	ldr	r3, [r3, #0]
 8006c16:	4013      	ands	r3, r2
 8006c18:	2b00      	cmp	r3, #0
 8006c1a:	d01e      	beq.n	8006c5a <vPortFree+0xb2>
		{
			if( pxLink->pxNextFreeBlock == NULL )
 8006c1c:	693b      	ldr	r3, [r7, #16]
 8006c1e:	681b      	ldr	r3, [r3, #0]
 8006c20:	2b00      	cmp	r3, #0
 8006c22:	d11a      	bne.n	8006c5a <vPortFree+0xb2>
			{
				/* The block is being returned to the heap - it is no longer
				allocated. */
				pxLink->xBlockSize &= ~xBlockAllocatedBit;
 8006c24:	693b      	ldr	r3, [r7, #16]
 8006c26:	685a      	ldr	r2, [r3, #4]
 8006c28:	4b0e      	ldr	r3, [pc, #56]	@ (8006c64 <vPortFree+0xbc>)
 8006c2a:	681b      	ldr	r3, [r3, #0]
 8006c2c:	43db      	mvns	r3, r3
 8006c2e:	401a      	ands	r2, r3
 8006c30:	693b      	ldr	r3, [r7, #16]
 8006c32:	605a      	str	r2, [r3, #4]

				vTaskSuspendAll();
 8006c34:	f7fe fff6 	bl	8005c24 <vTaskSuspendAll>
				{
					/* Add this block to the list of free blocks. */
					xFreeBytesRemaining += pxLink->xBlockSize;
 8006c38:	693b      	ldr	r3, [r7, #16]
 8006c3a:	685a      	ldr	r2, [r3, #4]
 8006c3c:	4b0a      	ldr	r3, [pc, #40]	@ (8006c68 <vPortFree+0xc0>)
 8006c3e:	681b      	ldr	r3, [r3, #0]
 8006c40:	4413      	add	r3, r2
 8006c42:	4a09      	ldr	r2, [pc, #36]	@ (8006c68 <vPortFree+0xc0>)
 8006c44:	6013      	str	r3, [r2, #0]
					traceFREE( pv, pxLink->xBlockSize );
					prvInsertBlockIntoFreeList( ( ( BlockLink_t * ) pxLink ) );
 8006c46:	6938      	ldr	r0, [r7, #16]
 8006c48:	f000 f874 	bl	8006d34 <prvInsertBlockIntoFreeList>
					xNumberOfSuccessfulFrees++;
 8006c4c:	4b07      	ldr	r3, [pc, #28]	@ (8006c6c <vPortFree+0xc4>)
 8006c4e:	681b      	ldr	r3, [r3, #0]
 8006c50:	3301      	adds	r3, #1
 8006c52:	4a06      	ldr	r2, [pc, #24]	@ (8006c6c <vPortFree+0xc4>)
 8006c54:	6013      	str	r3, [r2, #0]
				}
				( void ) xTaskResumeAll();
 8006c56:	f7fe fff3 	bl	8005c40 <xTaskResumeAll>
		else
		{
			mtCOVERAGE_TEST_MARKER();
		}
	}
}
 8006c5a:	bf00      	nop
 8006c5c:	3718      	adds	r7, #24
 8006c5e:	46bd      	mov	sp, r7
 8006c60:	bd80      	pop	{r7, pc}
 8006c62:	bf00      	nop
 8006c64:	200072f0 	.word	0x200072f0
 8006c68:	200072e0 	.word	0x200072e0
 8006c6c:	200072ec 	.word	0x200072ec

08006c70 <prvHeapInit>:
	/* This just exists to keep the linker quiet. */
}
/*-----------------------------------------------------------*/

static void prvHeapInit( void )
{
 8006c70:	b480      	push	{r7}
 8006c72:	b085      	sub	sp, #20
 8006c74:	af00      	add	r7, sp, #0
BlockLink_t *pxFirstFreeBlock;
uint8_t *pucAlignedHeap;
size_t uxAddress;
size_t xTotalHeapSize = configTOTAL_HEAP_SIZE;
 8006c76:	f44f 43a0 	mov.w	r3, #20480	@ 0x5000
 8006c7a:	60bb      	str	r3, [r7, #8]

	/* Ensure the heap starts on a correctly aligned boundary. */
	uxAddress = ( size_t ) ucHeap;
 8006c7c:	4b27      	ldr	r3, [pc, #156]	@ (8006d1c <prvHeapInit+0xac>)
 8006c7e:	60fb      	str	r3, [r7, #12]

	if( ( uxAddress & portBYTE_ALIGNMENT_MASK ) != 0 )
 8006c80:	68fb      	ldr	r3, [r7, #12]
 8006c82:	f003 0307 	and.w	r3, r3, #7
 8006c86:	2b00      	cmp	r3, #0
 8006c88:	d00c      	beq.n	8006ca4 <prvHeapInit+0x34>
	{
		uxAddress += ( portBYTE_ALIGNMENT - 1 );
 8006c8a:	68fb      	ldr	r3, [r7, #12]
 8006c8c:	3307      	adds	r3, #7
 8006c8e:	60fb      	str	r3, [r7, #12]
		uxAddress &= ~( ( size_t ) portBYTE_ALIGNMENT_MASK );
 8006c90:	68fb      	ldr	r3, [r7, #12]
 8006c92:	f023 0307 	bic.w	r3, r3, #7
 8006c96:	60fb      	str	r3, [r7, #12]
		xTotalHeapSize -= uxAddress - ( size_t ) ucHeap;
 8006c98:	68ba      	ldr	r2, [r7, #8]
 8006c9a:	68fb      	ldr	r3, [r7, #12]
 8006c9c:	1ad3      	subs	r3, r2, r3
 8006c9e:	4a1f      	ldr	r2, [pc, #124]	@ (8006d1c <prvHeapInit+0xac>)
 8006ca0:	4413      	add	r3, r2
 8006ca2:	60bb      	str	r3, [r7, #8]
	}

	pucAlignedHeap = ( uint8_t * ) uxAddress;
 8006ca4:	68fb      	ldr	r3, [r7, #12]
 8006ca6:	607b      	str	r3, [r7, #4]

	/* xStart is used to hold a pointer to the first item in the list of free
	blocks.  The void cast is used to prevent compiler warnings. */
	xStart.pxNextFreeBlock = ( void * ) pucAlignedHeap;
 8006ca8:	4a1d      	ldr	r2, [pc, #116]	@ (8006d20 <prvHeapInit+0xb0>)
 8006caa:	687b      	ldr	r3, [r7, #4]
 8006cac:	6013      	str	r3, [r2, #0]
	xStart.xBlockSize = ( size_t ) 0;
 8006cae:	4b1c      	ldr	r3, [pc, #112]	@ (8006d20 <prvHeapInit+0xb0>)
 8006cb0:	2200      	movs	r2, #0
 8006cb2:	605a      	str	r2, [r3, #4]

	/* pxEnd is used to mark the end of the list of free blocks and is inserted
	at the end of the heap space. */
	uxAddress = ( ( size_t ) pucAlignedHeap ) + xTotalHeapSize;
 8006cb4:	687b      	ldr	r3, [r7, #4]
 8006cb6:	68ba      	ldr	r2, [r7, #8]
 8006cb8:	4413      	add	r3, r2
 8006cba:	60fb      	str	r3, [r7, #12]
	uxAddress -= xHeapStructSize;
 8006cbc:	2208      	movs	r2, #8
 8006cbe:	68fb      	ldr	r3, [r7, #12]
 8006cc0:	1a9b      	subs	r3, r3, r2
 8006cc2:	60fb      	str	r3, [r7, #12]
	uxAddress &= ~( ( size_t ) portBYTE_ALIGNMENT_MASK );
 8006cc4:	68fb      	ldr	r3, [r7, #12]
 8006cc6:	f023 0307 	bic.w	r3, r3, #7
 8006cca:	60fb      	str	r3, [r7, #12]
	pxEnd = ( void * ) uxAddress;
 8006ccc:	68fb      	ldr	r3, [r7, #12]
 8006cce:	4a15      	ldr	r2, [pc, #84]	@ (8006d24 <prvHeapInit+0xb4>)
 8006cd0:	6013      	str	r3, [r2, #0]
	pxEnd->xBlockSize = 0;
 8006cd2:	4b14      	ldr	r3, [pc, #80]	@ (8006d24 <prvHeapInit+0xb4>)
 8006cd4:	681b      	ldr	r3, [r3, #0]
 8006cd6:	2200      	movs	r2, #0
 8006cd8:	605a      	str	r2, [r3, #4]
	pxEnd->pxNextFreeBlock = NULL;
 8006cda:	4b12      	ldr	r3, [pc, #72]	@ (8006d24 <prvHeapInit+0xb4>)
 8006cdc:	681b      	ldr	r3, [r3, #0]
 8006cde:	2200      	movs	r2, #0
 8006ce0:	601a      	str	r2, [r3, #0]

	/* To start with there is a single free block that is sized to take up the
	entire heap space, minus the space taken by pxEnd. */
	pxFirstFreeBlock = ( void * ) pucAlignedHeap;
 8006ce2:	687b      	ldr	r3, [r7, #4]
 8006ce4:	603b      	str	r3, [r7, #0]
	pxFirstFreeBlock->xBlockSize = uxAddress - ( size_t ) pxFirstFreeBlock;
 8006ce6:	683b      	ldr	r3, [r7, #0]
 8006ce8:	68fa      	ldr	r2, [r7, #12]
 8006cea:	1ad2      	subs	r2, r2, r3
 8006cec:	683b      	ldr	r3, [r7, #0]
 8006cee:	605a      	str	r2, [r3, #4]
	pxFirstFreeBlock->pxNextFreeBlock = pxEnd;
 8006cf0:	4b0c      	ldr	r3, [pc, #48]	@ (8006d24 <prvHeapInit+0xb4>)
 8006cf2:	681a      	ldr	r2, [r3, #0]
 8006cf4:	683b      	ldr	r3, [r7, #0]
 8006cf6:	601a      	str	r2, [r3, #0]

	/* Only one block exists - and it covers the entire usable heap space. */
	xMinimumEverFreeBytesRemaining = pxFirstFreeBlock->xBlockSize;
 8006cf8:	683b      	ldr	r3, [r7, #0]
 8006cfa:	685b      	ldr	r3, [r3, #4]
 8006cfc:	4a0a      	ldr	r2, [pc, #40]	@ (8006d28 <prvHeapInit+0xb8>)
 8006cfe:	6013      	str	r3, [r2, #0]
	xFreeBytesRemaining = pxFirstFreeBlock->xBlockSize;
 8006d00:	683b      	ldr	r3, [r7, #0]
 8006d02:	685b      	ldr	r3, [r3, #4]
 8006d04:	4a09      	ldr	r2, [pc, #36]	@ (8006d2c <prvHeapInit+0xbc>)
 8006d06:	6013      	str	r3, [r2, #0]

	/* Work out the position of the top bit in a size_t variable. */
	xBlockAllocatedBit = ( ( size_t ) 1 ) << ( ( sizeof( size_t ) * heapBITS_PER_BYTE ) - 1 );
 8006d08:	4b09      	ldr	r3, [pc, #36]	@ (8006d30 <prvHeapInit+0xc0>)
 8006d0a:	f04f 4200 	mov.w	r2, #2147483648	@ 0x80000000
 8006d0e:	601a      	str	r2, [r3, #0]
}
 8006d10:	bf00      	nop
 8006d12:	3714      	adds	r7, #20
 8006d14:	46bd      	mov	sp, r7
 8006d16:	f85d 7b04 	ldr.w	r7, [sp], #4
 8006d1a:	4770      	bx	lr
 8006d1c:	200022d4 	.word	0x200022d4
 8006d20:	200072d4 	.word	0x200072d4
 8006d24:	200072dc 	.word	0x200072dc
 8006d28:	200072e4 	.word	0x200072e4
 8006d2c:	200072e0 	.word	0x200072e0
 8006d30:	200072f0 	.word	0x200072f0

08006d34 <prvInsertBlockIntoFreeList>:
/*-----------------------------------------------------------*/

static void prvInsertBlockIntoFreeList( BlockLink_t *pxBlockToInsert )
{
 8006d34:	b480      	push	{r7}
 8006d36:	b085      	sub	sp, #20
 8006d38:	af00      	add	r7, sp, #0
 8006d3a:	6078      	str	r0, [r7, #4]
BlockLink_t *pxIterator;
uint8_t *puc;

	/* Iterate through the list until a block is found that has a higher address
	than the block being inserted. */
	for( pxIterator = &xStart; pxIterator->pxNextFreeBlock < pxBlockToInsert; pxIterator = pxIterator->pxNextFreeBlock )
 8006d3c:	4b28      	ldr	r3, [pc, #160]	@ (8006de0 <prvInsertBlockIntoFreeList+0xac>)
 8006d3e:	60fb      	str	r3, [r7, #12]
 8006d40:	e002      	b.n	8006d48 <prvInsertBlockIntoFreeList+0x14>
 8006d42:	68fb      	ldr	r3, [r7, #12]
 8006d44:	681b      	ldr	r3, [r3, #0]
 8006d46:	60fb      	str	r3, [r7, #12]
 8006d48:	68fb      	ldr	r3, [r7, #12]
 8006d4a:	681b      	ldr	r3, [r3, #0]
 8006d4c:	687a      	ldr	r2, [r7, #4]
 8006d4e:	429a      	cmp	r2, r3
 8006d50:	d8f7      	bhi.n	8006d42 <prvInsertBlockIntoFreeList+0xe>
		/* Nothing to do here, just iterate to the right position. */
	}

	/* Do the block being inserted, and the block it is being inserted after
	make a contiguous block of memory? */
	puc = ( uint8_t * ) pxIterator;
 8006d52:	68fb      	ldr	r3, [r7, #12]
 8006d54:	60bb      	str	r3, [r7, #8]
	if( ( puc + pxIterator->xBlockSize ) == ( uint8_t * ) pxBlockToInsert )
 8006d56:	68fb      	ldr	r3, [r7, #12]
 8006d58:	685b      	ldr	r3, [r3, #4]
 8006d5a:	68ba      	ldr	r2, [r7, #8]
 8006d5c:	4413      	add	r3, r2
 8006d5e:	687a      	ldr	r2, [r7, #4]
 8006d60:	429a      	cmp	r2, r3
 8006d62:	d108      	bne.n	8006d76 <prvInsertBlockIntoFreeList+0x42>
	{
		pxIterator->xBlockSize += pxBlockToInsert->xBlockSize;
 8006d64:	68fb      	ldr	r3, [r7, #12]
 8006d66:	685a      	ldr	r2, [r3, #4]
 8006d68:	687b      	ldr	r3, [r7, #4]
 8006d6a:	685b      	ldr	r3, [r3, #4]
 8006d6c:	441a      	add	r2, r3
 8006d6e:	68fb      	ldr	r3, [r7, #12]
 8006d70:	605a      	str	r2, [r3, #4]
		pxBlockToInsert = pxIterator;
 8006d72:	68fb      	ldr	r3, [r7, #12]
 8006d74:	607b      	str	r3, [r7, #4]
		mtCOVERAGE_TEST_MARKER();
	}

	/* Do the block being inserted, and the block it is being inserted before
	make a contiguous block of memory? */
	puc = ( uint8_t * ) pxBlockToInsert;
 8006d76:	687b      	ldr	r3, [r7, #4]
 8006d78:	60bb      	str	r3, [r7, #8]
	if( ( puc + pxBlockToInsert->xBlockSize ) == ( uint8_t * ) pxIterator->pxNextFreeBlock )
 8006d7a:	687b      	ldr	r3, [r7, #4]
 8006d7c:	685b      	ldr	r3, [r3, #4]
 8006d7e:	68ba      	ldr	r2, [r7, #8]
 8006d80:	441a      	add	r2, r3
 8006d82:	68fb      	ldr	r3, [r7, #12]
 8006d84:	681b      	ldr	r3, [r3, #0]
 8006d86:	429a      	cmp	r2, r3
 8006d88:	d118      	bne.n	8006dbc <prvInsertBlockIntoFreeList+0x88>
	{
		if( pxIterator->pxNextFreeBlock != pxEnd )
 8006d8a:	68fb      	ldr	r3, [r7, #12]
 8006d8c:	681a      	ldr	r2, [r3, #0]
 8006d8e:	4b15      	ldr	r3, [pc, #84]	@ (8006de4 <prvInsertBlockIntoFreeList+0xb0>)
 8006d90:	681b      	ldr	r3, [r3, #0]
 8006d92:	429a      	cmp	r2, r3
 8006d94:	d00d      	beq.n	8006db2 <prvInsertBlockIntoFreeList+0x7e>
		{
			/* Form one big block from the two blocks. */
			pxBlockToInsert->xBlockSize += pxIterator->pxNextFreeBlock->xBlockSize;
 8006d96:	687b      	ldr	r3, [r7, #4]
 8006d98:	685a      	ldr	r2, [r3, #4]
 8006d9a:	68fb      	ldr	r3, [r7, #12]
 8006d9c:	681b      	ldr	r3, [r3, #0]
 8006d9e:	685b      	ldr	r3, [r3, #4]
 8006da0:	441a      	add	r2, r3
 8006da2:	687b      	ldr	r3, [r7, #4]
 8006da4:	605a      	str	r2, [r3, #4]
			pxBlockToInsert->pxNextFreeBlock = pxIterator->pxNextFreeBlock->pxNextFreeBlock;
 8006da6:	68fb      	ldr	r3, [r7, #12]
 8006da8:	681b      	ldr	r3, [r3, #0]
 8006daa:	681a      	ldr	r2, [r3, #0]
 8006dac:	687b      	ldr	r3, [r7, #4]
 8006dae:	601a      	str	r2, [r3, #0]
 8006db0:	e008      	b.n	8006dc4 <prvInsertBlockIntoFreeList+0x90>
		}
		else
		{
			pxBlockToInsert->pxNextFreeBlock = pxEnd;
 8006db2:	4b0c      	ldr	r3, [pc, #48]	@ (8006de4 <prvInsertBlockIntoFreeList+0xb0>)
 8006db4:	681a      	ldr	r2, [r3, #0]
 8006db6:	687b      	ldr	r3, [r7, #4]
 8006db8:	601a      	str	r2, [r3, #0]
 8006dba:	e003      	b.n	8006dc4 <prvInsertBlockIntoFreeList+0x90>
		}
	}
	else
	{
		pxBlockToInsert->pxNextFreeBlock = pxIterator->pxNextFreeBlock;
 8006dbc:	68fb      	ldr	r3, [r7, #12]
 8006dbe:	681a      	ldr	r2, [r3, #0]
 8006dc0:	687b      	ldr	r3, [r7, #4]
 8006dc2:	601a      	str	r2, [r3, #0]

	/* If the block being inserted plugged a gab, so was merged with the block
	before and the block after, then it's pxNextFreeBlock pointer will have
	already been set, and should not be set here as that would make it point
	to itself. */
	if( pxIterator != pxBlockToInsert )
 8006dc4:	68fa      	ldr	r2, [r7, #12]
 8006dc6:	687b      	ldr	r3, [r7, #4]
 8006dc8:	429a      	cmp	r2, r3
 8006dca:	d002      	beq.n	8006dd2 <prvInsertBlockIntoFreeList+0x9e>
	{
		pxIterator->pxNextFreeBlock = pxBlockToInsert;
 8006dcc:	68fb      	ldr	r3, [r7, #12]
 8006dce:	687a      	ldr	r2, [r7, #4]
 8006dd0:	601a      	str	r2, [r3, #0]
	}
	else
	{
		mtCOVERAGE_TEST_MARKER();
	}
}
 8006dd2:	bf00      	nop
 8006dd4:	3714      	adds	r7, #20
 8006dd6:	46bd      	mov	sp, r7
 8006dd8:	f85d 7b04 	ldr.w	r7, [sp], #4
 8006ddc:	4770      	bx	lr
 8006dde:	bf00      	nop
 8006de0:	200072d4 	.word	0x200072d4
 8006de4:	200072dc 	.word	0x200072dc

08006de8 <memset>:
 8006de8:	4402      	add	r2, r0
 8006dea:	4603      	mov	r3, r0
 8006dec:	4293      	cmp	r3, r2
 8006dee:	d100      	bne.n	8006df2 <memset+0xa>
 8006df0:	4770      	bx	lr
 8006df2:	f803 1b01 	strb.w	r1, [r3], #1
 8006df6:	e7f9      	b.n	8006dec <memset+0x4>

08006df8 <_reclaim_reent>:
 8006df8:	4b2d      	ldr	r3, [pc, #180]	@ (8006eb0 <_reclaim_reent+0xb8>)
 8006dfa:	681b      	ldr	r3, [r3, #0]
 8006dfc:	4283      	cmp	r3, r0
 8006dfe:	b570      	push	{r4, r5, r6, lr}
 8006e00:	4604      	mov	r4, r0
 8006e02:	d053      	beq.n	8006eac <_reclaim_reent+0xb4>
 8006e04:	69c3      	ldr	r3, [r0, #28]
 8006e06:	b31b      	cbz	r3, 8006e50 <_reclaim_reent+0x58>
 8006e08:	68db      	ldr	r3, [r3, #12]
 8006e0a:	b163      	cbz	r3, 8006e26 <_reclaim_reent+0x2e>
 8006e0c:	2500      	movs	r5, #0
 8006e0e:	69e3      	ldr	r3, [r4, #28]
 8006e10:	68db      	ldr	r3, [r3, #12]
 8006e12:	5959      	ldr	r1, [r3, r5]
 8006e14:	b9b1      	cbnz	r1, 8006e44 <_reclaim_reent+0x4c>
 8006e16:	3504      	adds	r5, #4
 8006e18:	2d80      	cmp	r5, #128	@ 0x80
 8006e1a:	d1f8      	bne.n	8006e0e <_reclaim_reent+0x16>
 8006e1c:	69e3      	ldr	r3, [r4, #28]
 8006e1e:	4620      	mov	r0, r4
 8006e20:	68d9      	ldr	r1, [r3, #12]
 8006e22:	f000 f881 	bl	8006f28 <_free_r>
 8006e26:	69e3      	ldr	r3, [r4, #28]
 8006e28:	6819      	ldr	r1, [r3, #0]
 8006e2a:	b111      	cbz	r1, 8006e32 <_reclaim_reent+0x3a>
 8006e2c:	4620      	mov	r0, r4
 8006e2e:	f000 f87b 	bl	8006f28 <_free_r>
 8006e32:	69e3      	ldr	r3, [r4, #28]
 8006e34:	689d      	ldr	r5, [r3, #8]
 8006e36:	b15d      	cbz	r5, 8006e50 <_reclaim_reent+0x58>
 8006e38:	4629      	mov	r1, r5
 8006e3a:	4620      	mov	r0, r4
 8006e3c:	682d      	ldr	r5, [r5, #0]
 8006e3e:	f000 f873 	bl	8006f28 <_free_r>
 8006e42:	e7f8      	b.n	8006e36 <_reclaim_reent+0x3e>
 8006e44:	680e      	ldr	r6, [r1, #0]
 8006e46:	4620      	mov	r0, r4
 8006e48:	f000 f86e 	bl	8006f28 <_free_r>
 8006e4c:	4631      	mov	r1, r6
 8006e4e:	e7e1      	b.n	8006e14 <_reclaim_reent+0x1c>
 8006e50:	6961      	ldr	r1, [r4, #20]
 8006e52:	b111      	cbz	r1, 8006e5a <_reclaim_reent+0x62>
 8006e54:	4620      	mov	r0, r4
 8006e56:	f000 f867 	bl	8006f28 <_free_r>
 8006e5a:	69e1      	ldr	r1, [r4, #28]
 8006e5c:	b111      	cbz	r1, 8006e64 <_reclaim_reent+0x6c>
 8006e5e:	4620      	mov	r0, r4
 8006e60:	f000 f862 	bl	8006f28 <_free_r>
 8006e64:	6b21      	ldr	r1, [r4, #48]	@ 0x30
 8006e66:	b111      	cbz	r1, 8006e6e <_reclaim_reent+0x76>
 8006e68:	4620      	mov	r0, r4
 8006e6a:	f000 f85d 	bl	8006f28 <_free_r>
 8006e6e:	6b61      	ldr	r1, [r4, #52]	@ 0x34
 8006e70:	b111      	cbz	r1, 8006e78 <_reclaim_reent+0x80>
 8006e72:	4620      	mov	r0, r4
 8006e74:	f000 f858 	bl	8006f28 <_free_r>
 8006e78:	6ba1      	ldr	r1, [r4, #56]	@ 0x38
 8006e7a:	b111      	cbz	r1, 8006e82 <_reclaim_reent+0x8a>
 8006e7c:	4620      	mov	r0, r4
 8006e7e:	f000 f853 	bl	8006f28 <_free_r>
 8006e82:	6ca1      	ldr	r1, [r4, #72]	@ 0x48
 8006e84:	b111      	cbz	r1, 8006e8c <_reclaim_reent+0x94>
 8006e86:	4620      	mov	r0, r4
 8006e88:	f000 f84e 	bl	8006f28 <_free_r>
 8006e8c:	6c61      	ldr	r1, [r4, #68]	@ 0x44
 8006e8e:	b111      	cbz	r1, 8006e96 <_reclaim_reent+0x9e>
 8006e90:	4620      	mov	r0, r4
 8006e92:	f000 f849 	bl	8006f28 <_free_r>
 8006e96:	6ae1      	ldr	r1, [r4, #44]	@ 0x2c
 8006e98:	b111      	cbz	r1, 8006ea0 <_reclaim_reent+0xa8>
 8006e9a:	4620      	mov	r0, r4
 8006e9c:	f000 f844 	bl	8006f28 <_free_r>
 8006ea0:	6a23      	ldr	r3, [r4, #32]
 8006ea2:	b11b      	cbz	r3, 8006eac <_reclaim_reent+0xb4>
 8006ea4:	4620      	mov	r0, r4
 8006ea6:	e8bd 4070 	ldmia.w	sp!, {r4, r5, r6, lr}
 8006eaa:	4718      	bx	r3
 8006eac:	bd70      	pop	{r4, r5, r6, pc}
 8006eae:	bf00      	nop
 8006eb0:	20000024 	.word	0x20000024

08006eb4 <__errno>:
 8006eb4:	4b01      	ldr	r3, [pc, #4]	@ (8006ebc <__errno+0x8>)
 8006eb6:	6818      	ldr	r0, [r3, #0]
 8006eb8:	4770      	bx	lr
 8006eba:	bf00      	nop
 8006ebc:	20000024 	.word	0x20000024

08006ec0 <__libc_init_array>:
 8006ec0:	b570      	push	{r4, r5, r6, lr}
 8006ec2:	4d0d      	ldr	r5, [pc, #52]	@ (8006ef8 <__libc_init_array+0x38>)
 8006ec4:	4c0d      	ldr	r4, [pc, #52]	@ (8006efc <__libc_init_array+0x3c>)
 8006ec6:	1b64      	subs	r4, r4, r5
 8006ec8:	10a4      	asrs	r4, r4, #2
 8006eca:	2600      	movs	r6, #0
 8006ecc:	42a6      	cmp	r6, r4
 8006ece:	d109      	bne.n	8006ee4 <__libc_init_array+0x24>
 8006ed0:	4d0b      	ldr	r5, [pc, #44]	@ (8006f00 <__libc_init_array+0x40>)
 8006ed2:	4c0c      	ldr	r4, [pc, #48]	@ (8006f04 <__libc_init_array+0x44>)
 8006ed4:	f000 f9a0 	bl	8007218 <_init>
 8006ed8:	1b64      	subs	r4, r4, r5
 8006eda:	10a4      	asrs	r4, r4, #2
 8006edc:	2600      	movs	r6, #0
 8006ede:	42a6      	cmp	r6, r4
 8006ee0:	d105      	bne.n	8006eee <__libc_init_array+0x2e>
 8006ee2:	bd70      	pop	{r4, r5, r6, pc}
 8006ee4:	f855 3b04 	ldr.w	r3, [r5], #4
 8006ee8:	4798      	blx	r3
 8006eea:	3601      	adds	r6, #1
 8006eec:	e7ee      	b.n	8006ecc <__libc_init_array+0xc>
 8006eee:	f855 3b04 	ldr.w	r3, [r5], #4
 8006ef2:	4798      	blx	r3
 8006ef4:	3601      	adds	r6, #1
 8006ef6:	e7f2      	b.n	8006ede <__libc_init_array+0x1e>
 8006ef8:	08007308 	.word	0x08007308
 8006efc:	08007308 	.word	0x08007308
 8006f00:	08007308 	.word	0x08007308
 8006f04:	0800730c 	.word	0x0800730c

08006f08 <__retarget_lock_acquire_recursive>:
 8006f08:	4770      	bx	lr

08006f0a <__retarget_lock_release_recursive>:
 8006f0a:	4770      	bx	lr

08006f0c <memcpy>:
 8006f0c:	440a      	add	r2, r1
 8006f0e:	4291      	cmp	r1, r2
 8006f10:	f100 33ff 	add.w	r3, r0, #4294967295
 8006f14:	d100      	bne.n	8006f18 <memcpy+0xc>
 8006f16:	4770      	bx	lr
 8006f18:	b510      	push	{r4, lr}
 8006f1a:	f811 4b01 	ldrb.w	r4, [r1], #1
 8006f1e:	f803 4f01 	strb.w	r4, [r3, #1]!
 8006f22:	4291      	cmp	r1, r2
 8006f24:	d1f9      	bne.n	8006f1a <memcpy+0xe>
 8006f26:	bd10      	pop	{r4, pc}

08006f28 <_free_r>:
 8006f28:	b538      	push	{r3, r4, r5, lr}
 8006f2a:	4605      	mov	r5, r0
 8006f2c:	2900      	cmp	r1, #0
 8006f2e:	d041      	beq.n	8006fb4 <_free_r+0x8c>
 8006f30:	f851 3c04 	ldr.w	r3, [r1, #-4]
 8006f34:	1f0c      	subs	r4, r1, #4
 8006f36:	2b00      	cmp	r3, #0
 8006f38:	bfb8      	it	lt
 8006f3a:	18e4      	addlt	r4, r4, r3
 8006f3c:	f000 f83e 	bl	8006fbc <__malloc_lock>
 8006f40:	4a1d      	ldr	r2, [pc, #116]	@ (8006fb8 <_free_r+0x90>)
 8006f42:	6813      	ldr	r3, [r2, #0]
 8006f44:	b933      	cbnz	r3, 8006f54 <_free_r+0x2c>
 8006f46:	6063      	str	r3, [r4, #4]
 8006f48:	6014      	str	r4, [r2, #0]
 8006f4a:	4628      	mov	r0, r5
 8006f4c:	e8bd 4038 	ldmia.w	sp!, {r3, r4, r5, lr}
 8006f50:	f000 b83a 	b.w	8006fc8 <__malloc_unlock>
 8006f54:	42a3      	cmp	r3, r4
 8006f56:	d908      	bls.n	8006f6a <_free_r+0x42>
 8006f58:	6820      	ldr	r0, [r4, #0]
 8006f5a:	1821      	adds	r1, r4, r0
 8006f5c:	428b      	cmp	r3, r1
 8006f5e:	bf01      	itttt	eq
 8006f60:	6819      	ldreq	r1, [r3, #0]
 8006f62:	685b      	ldreq	r3, [r3, #4]
 8006f64:	1809      	addeq	r1, r1, r0
 8006f66:	6021      	streq	r1, [r4, #0]
 8006f68:	e7ed      	b.n	8006f46 <_free_r+0x1e>
 8006f6a:	461a      	mov	r2, r3
 8006f6c:	685b      	ldr	r3, [r3, #4]
 8006f6e:	b10b      	cbz	r3, 8006f74 <_free_r+0x4c>
 8006f70:	42a3      	cmp	r3, r4
 8006f72:	d9fa      	bls.n	8006f6a <_free_r+0x42>
 8006f74:	6811      	ldr	r1, [r2, #0]
 8006f76:	1850      	adds	r0, r2, r1
 8006f78:	42a0      	cmp	r0, r4
 8006f7a:	d10b      	bne.n	8006f94 <_free_r+0x6c>
 8006f7c:	6820      	ldr	r0, [r4, #0]
 8006f7e:	4401      	add	r1, r0
 8006f80:	1850      	adds	r0, r2, r1
 8006f82:	4283      	cmp	r3, r0
 8006f84:	6011      	str	r1, [r2, #0]
 8006f86:	d1e0      	bne.n	8006f4a <_free_r+0x22>
 8006f88:	6818      	ldr	r0, [r3, #0]
 8006f8a:	685b      	ldr	r3, [r3, #4]
 8006f8c:	6053      	str	r3, [r2, #4]
 8006f8e:	4408      	add	r0, r1
 8006f90:	6010      	str	r0, [r2, #0]
 8006f92:	e7da      	b.n	8006f4a <_free_r+0x22>
 8006f94:	d902      	bls.n	8006f9c <_free_r+0x74>
 8006f96:	230c      	movs	r3, #12
 8006f98:	602b      	str	r3, [r5, #0]
 8006f9a:	e7d6      	b.n	8006f4a <_free_r+0x22>
 8006f9c:	6820      	ldr	r0, [r4, #0]
 8006f9e:	1821      	adds	r1, r4, r0
 8006fa0:	428b      	cmp	r3, r1
 8006fa2:	bf04      	itt	eq
 8006fa4:	6819      	ldreq	r1, [r3, #0]
 8006fa6:	685b      	ldreq	r3, [r3, #4]
 8006fa8:	6063      	str	r3, [r4, #4]
 8006faa:	bf04      	itt	eq
 8006fac:	1809      	addeq	r1, r1, r0
 8006fae:	6021      	streq	r1, [r4, #0]
 8006fb0:	6054      	str	r4, [r2, #4]
 8006fb2:	e7ca      	b.n	8006f4a <_free_r+0x22>
 8006fb4:	bd38      	pop	{r3, r4, r5, pc}
 8006fb6:	bf00      	nop
 8006fb8:	20007430 	.word	0x20007430

08006fbc <__malloc_lock>:
 8006fbc:	4801      	ldr	r0, [pc, #4]	@ (8006fc4 <__malloc_lock+0x8>)
 8006fbe:	f7ff bfa3 	b.w	8006f08 <__retarget_lock_acquire_recursive>
 8006fc2:	bf00      	nop
 8006fc4:	2000742c 	.word	0x2000742c

08006fc8 <__malloc_unlock>:
 8006fc8:	4801      	ldr	r0, [pc, #4]	@ (8006fd0 <__malloc_unlock+0x8>)
 8006fca:	f7ff bf9e 	b.w	8006f0a <__retarget_lock_release_recursive>
 8006fce:	bf00      	nop
 8006fd0:	2000742c 	.word	0x2000742c

08006fd4 <asinf>:
 8006fd4:	b508      	push	{r3, lr}
 8006fd6:	ed2d 8b02 	vpush	{d8}
 8006fda:	eeb0 8a40 	vmov.f32	s16, s0
 8006fde:	f000 f833 	bl	8007048 <__ieee754_asinf>
 8006fe2:	eeb4 8a48 	vcmp.f32	s16, s16
 8006fe6:	eef1 fa10 	vmrs	APSR_nzcv, fpscr
 8006fea:	eef0 8a40 	vmov.f32	s17, s0
 8006fee:	d615      	bvs.n	800701c <asinf+0x48>
 8006ff0:	eeb0 0a48 	vmov.f32	s0, s16
 8006ff4:	f000 f81a 	bl	800702c <fabsf>
 8006ff8:	eef7 7a00 	vmov.f32	s15, #112	@ 0x3f800000  1.0
 8006ffc:	eeb4 0ae7 	vcmpe.f32	s0, s15
 8007000:	eef1 fa10 	vmrs	APSR_nzcv, fpscr
 8007004:	dd0a      	ble.n	800701c <asinf+0x48>
 8007006:	f7ff ff55 	bl	8006eb4 <__errno>
 800700a:	ecbd 8b02 	vpop	{d8}
 800700e:	2321      	movs	r3, #33	@ 0x21
 8007010:	6003      	str	r3, [r0, #0]
 8007012:	e8bd 4008 	ldmia.w	sp!, {r3, lr}
 8007016:	4804      	ldr	r0, [pc, #16]	@ (8007028 <asinf+0x54>)
 8007018:	f000 b810 	b.w	800703c <nanf>
 800701c:	eeb0 0a68 	vmov.f32	s0, s17
 8007020:	ecbd 8b02 	vpop	{d8}
 8007024:	bd08      	pop	{r3, pc}
 8007026:	bf00      	nop
 8007028:	080072fc 	.word	0x080072fc

0800702c <fabsf>:
 800702c:	ee10 3a10 	vmov	r3, s0
 8007030:	f023 4300 	bic.w	r3, r3, #2147483648	@ 0x80000000
 8007034:	ee00 3a10 	vmov	s0, r3
 8007038:	4770      	bx	lr
	...

0800703c <nanf>:
 800703c:	ed9f 0a01 	vldr	s0, [pc, #4]	@ 8007044 <nanf+0x8>
 8007040:	4770      	bx	lr
 8007042:	bf00      	nop
 8007044:	7fc00000 	.word	0x7fc00000

08007048 <__ieee754_asinf>:
 8007048:	b538      	push	{r3, r4, r5, lr}
 800704a:	ee10 5a10 	vmov	r5, s0
 800704e:	f025 4400 	bic.w	r4, r5, #2147483648	@ 0x80000000
 8007052:	f1b4 5f7e 	cmp.w	r4, #1065353216	@ 0x3f800000
 8007056:	ed2d 8b04 	vpush	{d8-d9}
 800705a:	d10c      	bne.n	8007076 <__ieee754_asinf+0x2e>
 800705c:	eddf 7a5c 	vldr	s15, [pc, #368]	@ 80071d0 <__ieee754_asinf+0x188>
 8007060:	ed9f 7a5c 	vldr	s14, [pc, #368]	@ 80071d4 <__ieee754_asinf+0x18c>
 8007064:	ee60 7a27 	vmul.f32	s15, s0, s15
 8007068:	eee0 7a07 	vfma.f32	s15, s0, s14
 800706c:	eeb0 0a67 	vmov.f32	s0, s15
 8007070:	ecbd 8b04 	vpop	{d8-d9}
 8007074:	bd38      	pop	{r3, r4, r5, pc}
 8007076:	d904      	bls.n	8007082 <__ieee754_asinf+0x3a>
 8007078:	ee70 7a40 	vsub.f32	s15, s0, s0
 800707c:	ee87 0aa7 	vdiv.f32	s0, s15, s15
 8007080:	e7f6      	b.n	8007070 <__ieee754_asinf+0x28>
 8007082:	f1b4 5f7c 	cmp.w	r4, #1056964608	@ 0x3f000000
 8007086:	eef7 8a00 	vmov.f32	s17, #112	@ 0x3f800000  1.0
 800708a:	d20b      	bcs.n	80070a4 <__ieee754_asinf+0x5c>
 800708c:	f1b4 5f48 	cmp.w	r4, #838860800	@ 0x32000000
 8007090:	d252      	bcs.n	8007138 <__ieee754_asinf+0xf0>
 8007092:	eddf 7a51 	vldr	s15, [pc, #324]	@ 80071d8 <__ieee754_asinf+0x190>
 8007096:	ee70 7a27 	vadd.f32	s15, s0, s15
 800709a:	eef4 7ae8 	vcmpe.f32	s15, s17
 800709e:	eef1 fa10 	vmrs	APSR_nzcv, fpscr
 80070a2:	dce5      	bgt.n	8007070 <__ieee754_asinf+0x28>
 80070a4:	f7ff ffc2 	bl	800702c <fabsf>
 80070a8:	ee38 8ac0 	vsub.f32	s16, s17, s0
 80070ac:	eef6 7a00 	vmov.f32	s15, #96	@ 0x3f000000  0.5
 80070b0:	ee28 8a27 	vmul.f32	s16, s16, s15
 80070b4:	ed9f 7a49 	vldr	s14, [pc, #292]	@ 80071dc <__ieee754_asinf+0x194>
 80070b8:	eddf 7a49 	vldr	s15, [pc, #292]	@ 80071e0 <__ieee754_asinf+0x198>
 80070bc:	ed9f 9a49 	vldr	s18, [pc, #292]	@ 80071e4 <__ieee754_asinf+0x19c>
 80070c0:	eea8 7a27 	vfma.f32	s14, s16, s15
 80070c4:	eddf 7a48 	vldr	s15, [pc, #288]	@ 80071e8 <__ieee754_asinf+0x1a0>
 80070c8:	eee7 7a08 	vfma.f32	s15, s14, s16
 80070cc:	ed9f 7a47 	vldr	s14, [pc, #284]	@ 80071ec <__ieee754_asinf+0x1a4>
 80070d0:	eea7 7a88 	vfma.f32	s14, s15, s16
 80070d4:	eddf 7a46 	vldr	s15, [pc, #280]	@ 80071f0 <__ieee754_asinf+0x1a8>
 80070d8:	eee7 7a08 	vfma.f32	s15, s14, s16
 80070dc:	ed9f 7a45 	vldr	s14, [pc, #276]	@ 80071f4 <__ieee754_asinf+0x1ac>
 80070e0:	eea7 9a88 	vfma.f32	s18, s15, s16
 80070e4:	eddf 7a44 	vldr	s15, [pc, #272]	@ 80071f8 <__ieee754_asinf+0x1b0>
 80070e8:	eee8 7a07 	vfma.f32	s15, s16, s14
 80070ec:	ed9f 7a43 	vldr	s14, [pc, #268]	@ 80071fc <__ieee754_asinf+0x1b4>
 80070f0:	eea7 7a88 	vfma.f32	s14, s15, s16
 80070f4:	eddf 7a42 	vldr	s15, [pc, #264]	@ 8007200 <__ieee754_asinf+0x1b8>
 80070f8:	eee7 7a08 	vfma.f32	s15, s14, s16
 80070fc:	eeb0 0a48 	vmov.f32	s0, s16
 8007100:	eee7 8a88 	vfma.f32	s17, s15, s16
 8007104:	f000 f884 	bl	8007210 <__ieee754_sqrtf>
 8007108:	4b3e      	ldr	r3, [pc, #248]	@ (8007204 <__ieee754_asinf+0x1bc>)
 800710a:	ee29 9a08 	vmul.f32	s18, s18, s16
 800710e:	429c      	cmp	r4, r3
 8007110:	ee89 6a28 	vdiv.f32	s12, s18, s17
 8007114:	eef0 6a00 	vmov.f32	s13, #0	@ 0x40000000  2.0
 8007118:	d93d      	bls.n	8007196 <__ieee754_asinf+0x14e>
 800711a:	eea0 0a06 	vfma.f32	s0, s0, s12
 800711e:	eddf 7a3a 	vldr	s15, [pc, #232]	@ 8007208 <__ieee754_asinf+0x1c0>
 8007122:	eee0 7a26 	vfma.f32	s15, s0, s13
 8007126:	ed9f 0a2b 	vldr	s0, [pc, #172]	@ 80071d4 <__ieee754_asinf+0x18c>
 800712a:	ee30 0a67 	vsub.f32	s0, s0, s15
 800712e:	2d00      	cmp	r5, #0
 8007130:	bfd8      	it	le
 8007132:	eeb1 0a40 	vnegle.f32	s0, s0
 8007136:	e79b      	b.n	8007070 <__ieee754_asinf+0x28>
 8007138:	ee60 7a00 	vmul.f32	s15, s0, s0
 800713c:	eddf 6a28 	vldr	s13, [pc, #160]	@ 80071e0 <__ieee754_asinf+0x198>
 8007140:	ed9f 7a26 	vldr	s14, [pc, #152]	@ 80071dc <__ieee754_asinf+0x194>
 8007144:	ed9f 6a2b 	vldr	s12, [pc, #172]	@ 80071f4 <__ieee754_asinf+0x1ac>
 8007148:	eea7 7aa6 	vfma.f32	s14, s15, s13
 800714c:	eddf 6a26 	vldr	s13, [pc, #152]	@ 80071e8 <__ieee754_asinf+0x1a0>
 8007150:	eee7 6a27 	vfma.f32	s13, s14, s15
 8007154:	ed9f 7a25 	vldr	s14, [pc, #148]	@ 80071ec <__ieee754_asinf+0x1a4>
 8007158:	eea6 7aa7 	vfma.f32	s14, s13, s15
 800715c:	eddf 6a24 	vldr	s13, [pc, #144]	@ 80071f0 <__ieee754_asinf+0x1a8>
 8007160:	eee7 6a27 	vfma.f32	s13, s14, s15
 8007164:	ed9f 7a1f 	vldr	s14, [pc, #124]	@ 80071e4 <__ieee754_asinf+0x19c>
 8007168:	eea6 7aa7 	vfma.f32	s14, s13, s15
 800716c:	eddf 6a22 	vldr	s13, [pc, #136]	@ 80071f8 <__ieee754_asinf+0x1b0>
 8007170:	eee7 6a86 	vfma.f32	s13, s15, s12
 8007174:	ed9f 6a21 	vldr	s12, [pc, #132]	@ 80071fc <__ieee754_asinf+0x1b4>
 8007178:	eea6 6aa7 	vfma.f32	s12, s13, s15
 800717c:	eddf 6a20 	vldr	s13, [pc, #128]	@ 8007200 <__ieee754_asinf+0x1b8>
 8007180:	eee6 6a27 	vfma.f32	s13, s12, s15
 8007184:	ee27 7a27 	vmul.f32	s14, s14, s15
 8007188:	eee6 8aa7 	vfma.f32	s17, s13, s15
 800718c:	eec7 7a28 	vdiv.f32	s15, s14, s17
 8007190:	eea0 0a27 	vfma.f32	s0, s0, s15
 8007194:	e76c      	b.n	8007070 <__ieee754_asinf+0x28>
 8007196:	ee10 3a10 	vmov	r3, s0
 800719a:	f36f 030b 	bfc	r3, #0, #12
 800719e:	ee07 3a10 	vmov	s14, r3
 80071a2:	eea7 8a47 	vfms.f32	s16, s14, s14
 80071a6:	ee70 5a00 	vadd.f32	s11, s0, s0
 80071aa:	ee30 0a07 	vadd.f32	s0, s0, s14
 80071ae:	eddf 7a08 	vldr	s15, [pc, #32]	@ 80071d0 <__ieee754_asinf+0x188>
 80071b2:	ee88 5a00 	vdiv.f32	s10, s16, s0
 80071b6:	ed9f 0a15 	vldr	s0, [pc, #84]	@ 800720c <__ieee754_asinf+0x1c4>
 80071ba:	eee5 7a66 	vfms.f32	s15, s10, s13
 80071be:	eed5 7a86 	vfnms.f32	s15, s11, s12
 80071c2:	eeb0 6a40 	vmov.f32	s12, s0
 80071c6:	eea7 6a66 	vfms.f32	s12, s14, s13
 80071ca:	ee77 7ac6 	vsub.f32	s15, s15, s12
 80071ce:	e7ac      	b.n	800712a <__ieee754_asinf+0xe2>
 80071d0:	b33bbd2e 	.word	0xb33bbd2e
 80071d4:	3fc90fdb 	.word	0x3fc90fdb
 80071d8:	7149f2ca 	.word	0x7149f2ca
 80071dc:	3a4f7f04 	.word	0x3a4f7f04
 80071e0:	3811ef08 	.word	0x3811ef08
 80071e4:	3e2aaaab 	.word	0x3e2aaaab
 80071e8:	bd241146 	.word	0xbd241146
 80071ec:	3e4e0aa8 	.word	0x3e4e0aa8
 80071f0:	bea6b090 	.word	0xbea6b090
 80071f4:	3d9dc62e 	.word	0x3d9dc62e
 80071f8:	bf303361 	.word	0xbf303361
 80071fc:	4001572d 	.word	0x4001572d
 8007200:	c019d139 	.word	0xc019d139
 8007204:	3f799999 	.word	0x3f799999
 8007208:	333bbd2e 	.word	0x333bbd2e
 800720c:	3f490fdb 	.word	0x3f490fdb

08007210 <__ieee754_sqrtf>:
 8007210:	eeb1 0ac0 	vsqrt.f32	s0, s0
 8007214:	4770      	bx	lr
	...

08007218 <_init>:
 8007218:	b5f8      	push	{r3, r4, r5, r6, r7, lr}
 800721a:	bf00      	nop
 800721c:	bcf8      	pop	{r3, r4, r5, r6, r7}
 800721e:	bc08      	pop	{r3}
 8007220:	469e      	mov	lr, r3
 8007222:	4770      	bx	lr

08007224 <_fini>:
 8007224:	b5f8      	push	{r3, r4, r5, r6, r7, lr}
 8007226:	bf00      	nop
 8007228:	bcf8      	pop	{r3, r4, r5, r6, r7}
 800722a:	bc08      	pop	{r3}
 800722c:	469e      	mov	lr, r3
 800722e:	4770      	bx	lr
